 xrRender_R2

 Timestamp is 61c6f602 (Sat Dec 25 13:44:18 2021)

 Preferred load address is 10000000

 Start         Length     Name                   Class
 0001:00000000 000001bcH .text$di                CODE
 0001:000001c0 000ccbe0H .text$mn                CODE
 0001:000ccda0 00000f65H .text$x                 CODE
 0001:000cdd10 000009bdH .text$yd                CODE
 0002:00000000 00000a50H .idata$5                DATA
 0002:00000a50 00000004H .CRT$XCA                DATA
 0002:00000a54 0000005cH .CRT$XCU                DATA
 0002:00000ab0 00000004H .CRT$XCZ                DATA
 0002:00000ab4 00000004H .CRT$XIA                DATA
 0002:00000ab8 00000004H .CRT$XIAA               DATA
 0002:00000abc 00000004H .CRT$XIC                DATA
 0002:00000ac0 00000004H .CRT$XIZ                DATA
 0002:00000ad0 00007338H .rdata                  DATA
 0002:00007e08 00000040H .rdata$debug            DATA
 0002:00007e48 000020c0H .rdata$r                DATA
 0002:00009f10 000003e0H .rdata$sxdata           DATA
 0002:0000a2f0 00000004H .rtc$IAA                DATA
 0002:0000a2f4 00000004H .rtc$IZZ                DATA
 0002:0000a2f8 00000004H .rtc$TAA                DATA
 0002:0000a2fc 00000004H .rtc$TZZ                DATA
 0002:0000a300 000055f4H .xdata$x                DATA
 0002:0000f900 000000adH .edata                  DATA
 0002:0000f9b0 000000b4H .idata$2                DATA
 0002:0000fa64 00000014H .idata$3                DATA
 0002:0000fa78 00000a50H .idata$4                DATA
 0002:000104c8 00006796H .idata$6                DATA
 0003:00000000 000018b0H .data                   DATA
 0003:000018b0 00000d70H .data$r                 DATA
 0003:00002620 00010620H .bss                    DATA
 0004:00000000 00000058H .rsrc$01                DATA
 0004:00000060 00000180H .rsrc$02                DATA

  Address         Publics by Value              Rva+Base       Lib:Object

 0000:00000000       ___guard_fids_count        00000000     <absolute>
 0000:00000000       __except_list              00000000     <absolute>
 0000:00000000       ___guard_flags             00000000     <absolute>
 0000:00000000       ___guard_fids_table        00000000     <absolute>
 0000:000000f8       ___safe_se_handler_count   000000f8     <absolute>
 0000:00009876       __ldused                   00009876     <absolute>
 0000:00009876       __fltused                  00009876     <absolute>
 0000:00000000       ___ImageBase               10000000     <linker-defined>
 0001:000001c0       ?increment_stats@stats_manager@@QAEXIW4enum_stats_buffer_type@@W4_D3DPOOL@@@Z 100011c0 f   stats_manager.obj
 0001:00000260       ?increment_stats@stats_manager@@AAEXIW4enum_stats_buffer_type@@W4_D3DPOOL@@PAX@Z 10001260 f   stats_manager.obj
 0001:00000330       ?increment_stats_rtarget@stats_manager@@QAEXPAUIDirect3DTexture9@@@Z 10001330 f   stats_manager.obj
 0001:00000380       ?increment_stats_vb@stats_manager@@QAEXPAUIDirect3DVertexBuffer9@@@Z 10001380 f   stats_manager.obj
 0001:000003c0       ?increment_stats_ib@stats_manager@@QAEXPAUIDirect3DIndexBuffer9@@@Z 100013c0 f   stats_manager.obj
 0001:00000400       ?decrement_stats_rtarget@stats_manager@@QAEXPAUIDirect3DTexture9@@@Z 10001400 f   stats_manager.obj
 0001:00000470       ?decrement_stats_vb@stats_manager@@QAEXPAUIDirect3DVertexBuffer9@@@Z 10001470 f   stats_manager.obj
 0001:000004d0       ?decrement_stats_ib@stats_manager@@QAEXPAUIDirect3DIndexBuffer9@@@Z 100014d0 f   stats_manager.obj
 0001:00000530       ?decrement_stats@stats_manager@@QAEXIW4enum_stats_buffer_type@@W4_D3DPOOL@@@Z 10001530 f   stats_manager.obj
 0001:000005d0       ?decrement_stats@stats_manager@@AAEXIW4enum_stats_buffer_type@@W4_D3DPOOL@@PAX@Z 100015d0 f   stats_manager.obj
 0001:00000600       ??1stats_manager@@QAE@XZ   10001600 f   stats_manager.obj
 0001:00000610       ?get_format_pixel_size@@YAIW4_D3DFORMAT@@@Z 10001610 f   stats_manager.obj
 0001:000006c0       ??0ColorMapManager@@QAE@XZ 100016c0 f   ColorMapManager.obj
 0001:00000790       ??0?$xr_map@Vshared_str@@V?$resptr_core@VCTexture@@Uresptrcode_texture@@@@Ustr_pred@ColorMapManager@@V?$xalloc@U?$pair@Vshared_str@@V?$resptr_core@VCTexture@@Uresptrcode_texture@@@@@std@@@@@@QAE@XZ 10001790 f i ColorMapManager.obj
 0001:000007b0       ??1?$xr_map@Vshared_str@@V?$resptr_core@VCTexture@@Uresptrcode_texture@@@@Ustr_pred@ColorMapManager@@V?$xalloc@U?$pair@Vshared_str@@V?$resptr_core@VCTexture@@Uresptrcode_texture@@@@@std@@@@@@QAE@XZ 100017b0 f i ColorMapManager.obj
 0001:000007e0       ??1?$map@Vshared_str@@V?$resptr_core@VCTexture@@Uresptrcode_texture@@@@Ustr_pred@ColorMapManager@@V?$xalloc@U?$pair@Vshared_str@@V?$resptr_core@VCTexture@@Uresptrcode_texture@@@@@std@@@@@std@@QAE@XZ 100017e0 f i ColorMapManager.obj
 0001:00000810       ?SetTextures@ColorMapManager@@QAEXABVshared_str@@0@Z 10001810 f   ColorMapManager.obj
 0001:00000830       ?UpdateTexture@ColorMapManager@@AAEXABVshared_str@@H@Z 10001830 f   ColorMapManager.obj
 0001:00000990       ??1?$pair@Vshared_str@@V?$resptr_core@VCTexture@@Uresptrcode_texture@@@@@std@@QAE@XZ 10001990 f i ColorMapManager.obj
 0001:000009c0       ??0?$resptr_core@VCTexture@@Uresptrcode_texture@@@@QAE@XZ 100019c0 f i ColorMapManager.obj
 0001:000009d0       ??0?$resptr_core@VCTexture@@Uresptrcode_texture@@@@QAE@PAVCTexture@@_N@Z 100019d0 f i ColorMapManager.obj
 0001:000009e0       ??0?$resptr_core@VCTexture@@Uresptrcode_texture@@@@QAE@ABV0@@Z 100019e0 f i ColorMapManager.obj
 0001:00000a00       ??C?$resptr_core@VCTexture@@Uresptrcode_texture@@@@QBEPAVCTexture@@XZ 10001a00 f i ColorMapManager.obj
 0001:00000a10       ??0?$map@Vshared_str@@V?$resptr_core@VCTexture@@Uresptrcode_texture@@@@Ustr_pred@ColorMapManager@@V?$xalloc@U?$pair@Vshared_str@@V?$resptr_core@VCTexture@@Uresptrcode_texture@@@@@std@@@@@std@@QAE@XZ 10001a10 f i ColorMapManager.obj
 0001:00000a30       ??1?$_Tree@V?$_Tmap_traits@Vshared_str@@V?$resptr_core@VCTexture@@Uresptrcode_texture@@@@Ustr_pred@ColorMapManager@@V?$xalloc@U?$pair@Vshared_str@@V?$resptr_core@VCTexture@@Uresptrcode_texture@@@@@std@@@@$0A@@std@@@std@@QAE@XZ 10001a30 f i ColorMapManager.obj
 0001:00000a60       ?end@?$_Tree@V?$_Tmap_traits@Vshared_str@@V?$resptr_core@VCTexture@@Uresptrcode_texture@@@@Ustr_pred@ColorMapManager@@V?$xalloc@U?$pair@Vshared_str@@V?$resptr_core@VCTexture@@Uresptrcode_texture@@@@@std@@@@$0A@@std@@@std@@QAE?AV?$_Tree_iterator@V?$_Tree_val@U?$_Tree_simple_types@U?$pair@$$CBVshared_str@@V?$resptr_core@VCTexture@@Uresptrcode_texture@@@@@std@@@std@@@std@@@2@XZ 10001a60 f i ColorMapManager.obj
 0001:00000a70       ?find@?$_Tree@V?$_Tmap_traits@Vshared_str@@V?$resptr_core@VCTexture@@Uresptrcode_texture@@@@Ustr_pred@ColorMapManager@@V?$xalloc@U?$pair@Vshared_str@@V?$resptr_core@VCTexture@@Uresptrcode_texture@@@@@std@@@@$0A@@std@@@std@@QAE?AV?$_Tree_iterator@V?$_Tree_val@U?$_Tree_simple_types@U?$pair@$$CBVshared_str@@V?$resptr_core@VCTexture@@Uresptrcode_texture@@@@@std@@@std@@@std@@@2@ABVshared_str@@@Z 10001a70 f i ColorMapManager.obj
 0001:00000ac0       ??C?$_Tree_iterator@V?$_Tree_val@U?$_Tree_simple_types@U?$pair@$$CBVshared_str@@V?$resptr_core@VCTexture@@Uresptrcode_texture@@@@@std@@@std@@@std@@@std@@QBEPAU?$pair@$$CBVshared_str@@V?$resptr_core@VCTexture@@Uresptrcode_texture@@@@@1@XZ 10001ac0 f i ColorMapManager.obj
 0001:00000ad0       ??9?$_Tree_const_iterator@V?$_Tree_val@U?$_Tree_simple_types@U?$pair@$$CBVshared_str@@V?$resptr_core@VCTexture@@Uresptrcode_texture@@@@@std@@@std@@@std@@@std@@QBE_NABV01@@Z 10001ad0 f i ColorMapManager.obj
 0001:00000ae0       ??1?$_Tree_comp@$0A@V?$_Tmap_traits@Vshared_str@@V?$resptr_core@VCTexture@@Uresptrcode_texture@@@@Ustr_pred@ColorMapManager@@V?$xalloc@U?$pair@Vshared_str@@V?$resptr_core@VCTexture@@Uresptrcode_texture@@@@@std@@@@$0A@@std@@@std@@QAE@XZ 10001ae0 f i ColorMapManager.obj
 0001:00000b00       ??1?$_Tree_buy@U?$pair@$$CBVshared_str@@V?$resptr_core@VCTexture@@Uresptrcode_texture@@@@@std@@V?$xalloc@U?$pair@Vshared_str@@V?$resptr_core@VCTexture@@Uresptrcode_texture@@@@@std@@@@@std@@QAE@XZ 10001b00 f i ColorMapManager.obj
 0001:00000b20       ??0?$_Tree@V?$_Tmap_traits@Vshared_str@@V?$resptr_core@VCTexture@@Uresptrcode_texture@@@@Ustr_pred@ColorMapManager@@V?$xalloc@U?$pair@Vshared_str@@V?$resptr_core@VCTexture@@Uresptrcode_texture@@@@@std@@@@$0A@@std@@@std@@QAE@ABUstr_pred@ColorMapManager@@ABV?$xalloc@U?$pair@Vshared_str@@V?$resptr_core@VCTexture@@Uresptrcode_texture@@@@@std@@@@@Z 10001b20 f i ColorMapManager.obj
 0001:00000b40       ?lower_bound@?$_Tree@V?$_Tmap_traits@Vshared_str@@V?$resptr_core@VCTexture@@Uresptrcode_texture@@@@Ustr_pred@ColorMapManager@@V?$xalloc@U?$pair@Vshared_str@@V?$resptr_core@VCTexture@@Uresptrcode_texture@@@@@std@@@@$0A@@std@@@std@@QAE?AV?$_Tree_iterator@V?$_Tree_val@U?$_Tree_simple_types@U?$pair@$$CBVshared_str@@V?$resptr_core@VCTexture@@Uresptrcode_texture@@@@@std@@@std@@@std@@@2@ABVshared_str@@@Z 10001b40 f i ColorMapManager.obj
 0001:00000b70       ?_Tidy@?$_Tree@V?$_Tmap_traits@Vshared_str@@V?$resptr_core@VCTexture@@Uresptrcode_texture@@@@Ustr_pred@ColorMapManager@@V?$xalloc@U?$pair@Vshared_str@@V?$resptr_core@VCTexture@@Uresptrcode_texture@@@@@std@@@@$0A@@std@@@std@@IAEXXZ 10001b70 f i ColorMapManager.obj
 0001:00000b90       ?_Key@?$_Tree@V?$_Tmap_traits@Vshared_str@@V?$resptr_core@VCTexture@@Uresptrcode_texture@@@@Ustr_pred@ColorMapManager@@V?$xalloc@U?$pair@Vshared_str@@V?$resptr_core@VCTexture@@Uresptrcode_texture@@@@@std@@@@$0A@@std@@@std@@IBEABVshared_str@@PAU?$_Tree_node@U?$pair@$$CBVshared_str@@V?$resptr_core@VCTexture@@Uresptrcode_texture@@@@@std@@PAX@2@@Z 10001b90 f i ColorMapManager.obj
 0001:00000ba0       ?_Getcomp@?$_Tree_comp@$0A@V?$_Tmap_traits@Vshared_str@@V?$resptr_core@VCTexture@@Uresptrcode_texture@@@@Ustr_pred@ColorMapManager@@V?$xalloc@U?$pair@Vshared_str@@V?$resptr_core@VCTexture@@Uresptrcode_texture@@@@@std@@@@$0A@@std@@@std@@QBE?AUstr_pred@ColorMapManager@@XZ 10001ba0 f i ColorMapManager.obj
 0001:00000bb0       ??0?$xalloc@U?$pair@Vshared_str@@V?$resptr_core@VCTexture@@Uresptrcode_texture@@@@@std@@@@QAE@XZ 10001bb0 f i ColorMapManager.obj
 0001:00000bc0       ??1?$_Tree_alloc@$0A@U?$_Tree_base_types@U?$pair@$$CBVshared_str@@V?$resptr_core@VCTexture@@Uresptrcode_texture@@@@@std@@V?$xalloc@U?$pair@Vshared_str@@V?$resptr_core@VCTexture@@Uresptrcode_texture@@@@@std@@@@@std@@@std@@QAE@XZ 10001bc0 f i ColorMapManager.obj
 0001:00000be0       ?pointer_to@?$pointer_traits@PAU?$pair@$$CBVshared_str@@V?$resptr_core@VCTexture@@Uresptrcode_texture@@@@@std@@@std@@SAPAU?$pair@$$CBVshared_str@@V?$resptr_core@VCTexture@@Uresptrcode_texture@@@@@2@AAU32@@Z 10001be0 f i ColorMapManager.obj
 0001:00000bf0       ??0?$_Tree_iterator@V?$_Tree_val@U?$_Tree_simple_types@U?$pair@$$CBVshared_str@@V?$resptr_core@VCTexture@@Uresptrcode_texture@@@@@std@@@std@@@std@@@std@@QAE@PAU?$_Tree_node@U?$pair@$$CBVshared_str@@V?$resptr_core@VCTexture@@Uresptrcode_texture@@@@@std@@PAX@1@PBV?$_Tree_val@U?$_Tree_simple_types@U?$pair@$$CBVshared_str@@V?$resptr_core@VCTexture@@Uresptrcode_texture@@@@@std@@@std@@@1@@Z 10001bf0 f i ColorMapManager.obj
 0001:00000c00       ??D?$_Tree_iterator@V?$_Tree_val@U?$_Tree_simple_types@U?$pair@$$CBVshared_str@@V?$resptr_core@VCTexture@@Uresptrcode_texture@@@@@std@@@std@@@std@@@std@@QBEAAU?$pair@$$CBVshared_str@@V?$resptr_core@VCTexture@@Uresptrcode_texture@@@@@1@XZ 10001c00 f i ColorMapManager.obj
 0001:00000c10       ??8?$_Tree_const_iterator@V?$_Tree_val@U?$_Tree_simple_types@U?$pair@$$CBVshared_str@@V?$resptr_core@VCTexture@@Uresptrcode_texture@@@@@std@@@std@@@std@@@std@@QBE_NABV01@@Z 10001c10 f i ColorMapManager.obj
 0001:00000c20       ?_Mynode@?$_Tree_unchecked_const_iterator@V?$_Tree_val@U?$_Tree_simple_types@U?$pair@$$CBVshared_str@@V?$resptr_core@VCTexture@@Uresptrcode_texture@@@@@std@@@std@@@std@@U_Iterator_base0@2@@std@@QBEPAU?$_Tree_node@U?$pair@$$CBVshared_str@@V?$resptr_core@VCTexture@@Uresptrcode_texture@@@@@std@@PAX@2@XZ 10001c20 f i ColorMapManager.obj
 0001:00000c30       ?begin@?$_Tree@V?$_Tmap_traits@Vshared_str@@V?$resptr_core@VCTexture@@Uresptrcode_texture@@@@Ustr_pred@ColorMapManager@@V?$xalloc@U?$pair@Vshared_str@@V?$resptr_core@VCTexture@@Uresptrcode_texture@@@@@std@@@@$0A@@std@@@std@@QAE?AV?$_Tree_iterator@V?$_Tree_val@U?$_Tree_simple_types@U?$pair@$$CBVshared_str@@V?$resptr_core@VCTexture@@Uresptrcode_texture@@@@@std@@@std@@@std@@@2@XZ 10001c30 f i ColorMapManager.obj
 0001:00000c40       ?erase@?$_Tree@V?$_Tmap_traits@Vshared_str@@V?$resptr_core@VCTexture@@Uresptrcode_texture@@@@Ustr_pred@ColorMapManager@@V?$xalloc@U?$pair@Vshared_str@@V?$resptr_core@VCTexture@@Uresptrcode_texture@@@@@std@@@@$0A@@std@@@std@@QAE?AV?$_Tree_iterator@V?$_Tree_val@U?$_Tree_simple_types@U?$pair@$$CBVshared_str@@V?$resptr_core@VCTexture@@Uresptrcode_texture@@@@@std@@@std@@@std@@@2@V?$_Tree_const_iterator@V?$_Tree_val@U?$_Tree_simple_types@U?$pair@$$CBVshared_str@@V?$resptr_core@VCTexture@@Uresptrcode_texture@@@@@std@@@std@@@std@@@2@0@Z 10001c40 f i ColorMapManager.obj
 0001:00000d00       ?_Lbound@?$_Tree@V?$_Tmap_traits@Vshared_str@@V?$resptr_core@VCTexture@@Uresptrcode_texture@@@@Ustr_pred@ColorMapManager@@V?$xalloc@U?$pair@Vshared_str@@V?$resptr_core@VCTexture@@Uresptrcode_texture@@@@@std@@@@$0A@@std@@@std@@IAEPAU?$_Tree_node@U?$pair@$$CBVshared_str@@V?$resptr_core@VCTexture@@Uresptrcode_texture@@@@@std@@PAX@2@ABVshared_str@@@Z 10001d00 f i ColorMapManager.obj
 0001:00000d30       ?_Kfn@?$_Tree@V?$_Tmap_traits@Vshared_str@@V?$resptr_core@VCTexture@@Uresptrcode_texture@@@@Ustr_pred@ColorMapManager@@V?$xalloc@U?$pair@Vshared_str@@V?$resptr_core@VCTexture@@Uresptrcode_texture@@@@@std@@@@$0A@@std@@@std@@IBEABVshared_str@@ABU?$pair@$$CBVshared_str@@V?$resptr_core@VCTexture@@Uresptrcode_texture@@@@@2@@Z 10001d30 f i ColorMapManager.obj
 0001:00000d40       ??0?$_Tree_comp@$0A@V?$_Tmap_traits@Vshared_str@@V?$resptr_core@VCTexture@@Uresptrcode_texture@@@@Ustr_pred@ColorMapManager@@V?$xalloc@U?$pair@Vshared_str@@V?$resptr_core@VCTexture@@Uresptrcode_texture@@@@@std@@@@$0A@@std@@@std@@QAE@ABUstr_pred@ColorMapManager@@ABV?$xalloc@U?$pair@Vshared_str@@V?$resptr_core@VCTexture@@Uresptrcode_texture@@@@@std@@@@@Z 10001d40 f i ColorMapManager.obj
 0001:00000d60       ?_Freeheadnode@?$_Tree_alloc@$0A@U?$_Tree_base_types@U?$pair@$$CBVshared_str@@V?$resptr_core@VCTexture@@Uresptrcode_texture@@@@@std@@V?$xalloc@U?$pair@Vshared_str@@V?$resptr_core@VCTexture@@Uresptrcode_texture@@@@@std@@@@@std@@@std@@QAEXPAU?$_Tree_node@U?$pair@$$CBVshared_str@@V?$resptr_core@VCTexture@@Uresptrcode_texture@@@@@std@@PAX@2@@Z 10001d60 f i ColorMapManager.obj
 0001:00000d80       ?_Myval@?$_Tree_val@U?$_Tree_simple_types@U?$pair@$$CBVshared_str@@V?$resptr_core@VCTexture@@Uresptrcode_texture@@@@@std@@@std@@@std@@SAAAU?$pair@$$CBVshared_str@@V?$resptr_core@VCTexture@@Uresptrcode_texture@@@@@2@PAU?$_Tree_node@U?$pair@$$CBVshared_str@@V?$resptr_core@VCTexture@@Uresptrcode_texture@@@@@std@@PAX@2@@Z 10001d80 f i ColorMapManager.obj
 0001:00000d90       ??0?$_Tree_const_iterator@V?$_Tree_val@U?$_Tree_simple_types@U?$pair@$$CBVshared_str@@V?$resptr_core@VCTexture@@Uresptrcode_texture@@@@@std@@@std@@@std@@@std@@QAE@PAU?$_Tree_node@U?$pair@$$CBVshared_str@@V?$resptr_core@VCTexture@@Uresptrcode_texture@@@@@std@@PAX@1@PBV?$_Tree_val@U?$_Tree_simple_types@U?$pair@$$CBVshared_str@@V?$resptr_core@VCTexture@@Uresptrcode_texture@@@@@std@@@std@@@1@@Z 10001d90 f i ColorMapManager.obj
 0001:00000da0       ??D?$_Tree_const_iterator@V?$_Tree_val@U?$_Tree_simple_types@U?$pair@$$CBVshared_str@@V?$resptr_core@VCTexture@@Uresptrcode_texture@@@@@std@@@std@@@std@@@std@@QBEABU?$pair@$$CBVshared_str@@V?$resptr_core@VCTexture@@Uresptrcode_texture@@@@@1@XZ 10001da0 f i ColorMapManager.obj
 0001:00000db0       ?erase@?$_Tree@V?$_Tmap_traits@Vshared_str@@V?$resptr_core@VCTexture@@Uresptrcode_texture@@@@Ustr_pred@ColorMapManager@@V?$xalloc@U?$pair@Vshared_str@@V?$resptr_core@VCTexture@@Uresptrcode_texture@@@@@std@@@@$0A@@std@@@std@@QAE?AV?$_Tree_iterator@V?$_Tree_val@U?$_Tree_simple_types@U?$pair@$$CBVshared_str@@V?$resptr_core@VCTexture@@Uresptrcode_texture@@@@@std@@@std@@@std@@@2@V?$_Tree_const_iterator@V?$_Tree_val@U?$_Tree_simple_types@U?$pair@$$CBVshared_str@@V?$resptr_core@VCTexture@@Uresptrcode_texture@@@@@std@@@std@@@std@@@2@@Z 10001db0 f i ColorMapManager.obj
 0001:00001020       ?clear@?$_Tree@V?$_Tmap_traits@Vshared_str@@V?$resptr_core@VCTexture@@Uresptrcode_texture@@@@Ustr_pred@ColorMapManager@@V?$xalloc@U?$pair@Vshared_str@@V?$resptr_core@VCTexture@@Uresptrcode_texture@@@@@std@@@@$0A@@std@@@std@@QAEXXZ 10002020 f i ColorMapManager.obj
 0001:00001050       ?_Lmost@?$_Tree@V?$_Tmap_traits@Vshared_str@@V?$resptr_core@VCTexture@@Uresptrcode_texture@@@@Ustr_pred@ColorMapManager@@V?$xalloc@U?$pair@Vshared_str@@V?$resptr_core@VCTexture@@Uresptrcode_texture@@@@@std@@@@$0A@@std@@@std@@IBEAAPAU?$_Tree_node@U?$pair@$$CBVshared_str@@V?$resptr_core@VCTexture@@Uresptrcode_texture@@@@@std@@PAX@2@XZ 10002050 f i ColorMapManager.obj
 0001:00001060       ?_Root@?$_Tree@V?$_Tmap_traits@Vshared_str@@V?$resptr_core@VCTexture@@Uresptrcode_texture@@@@Ustr_pred@ColorMapManager@@V?$xalloc@U?$pair@Vshared_str@@V?$resptr_core@VCTexture@@Uresptrcode_texture@@@@@std@@@@$0A@@std@@@std@@IBEAAPAU?$_Tree_node@U?$pair@$$CBVshared_str@@V?$resptr_core@VCTexture@@Uresptrcode_texture@@@@@std@@PAX@2@XZ 10002060 f i ColorMapManager.obj
 0001:00001070       ??0?$_Tree_buy@U?$pair@$$CBVshared_str@@V?$resptr_core@VCTexture@@Uresptrcode_texture@@@@@std@@V?$xalloc@U?$pair@Vshared_str@@V?$resptr_core@VCTexture@@Uresptrcode_texture@@@@@std@@@@@std@@QAE@ABV?$xalloc@U?$pair@Vshared_str@@V?$resptr_core@VCTexture@@Uresptrcode_texture@@@@@std@@@@@Z 10002070 f i ColorMapManager.obj
 0001:00001090       ?_Getal@?$_Tree_alloc@$0A@U?$_Tree_base_types@U?$pair@$$CBVshared_str@@V?$resptr_core@VCTexture@@Uresptrcode_texture@@@@@std@@V?$xalloc@U?$pair@Vshared_str@@V?$resptr_core@VCTexture@@Uresptrcode_texture@@@@@std@@@@@std@@@std@@QBE?AU?$_Wrap_alloc@V?$xalloc@U?$_Tree_node@U?$pair@$$CBVshared_str@@V?$resptr_core@VCTexture@@Uresptrcode_texture@@@@@std@@PAX@std@@@@@2@XZ 10002090 f i ColorMapManager.obj
 0001:000010a0       ?deallocate@?$_Wrap_alloc@V?$xalloc@U?$_Tree_node@U?$pair@$$CBVshared_str@@V?$resptr_core@VCTexture@@Uresptrcode_texture@@@@@std@@PAX@std@@@@@std@@QAEXPAU?$_Tree_node@U?$pair@$$CBVshared_str@@V?$resptr_core@VCTexture@@Uresptrcode_texture@@@@@std@@PAX@2@I@Z 100020a0 f i ColorMapManager.obj
 0001:000010c0       ?_Isnil@?$_Tree_val@U?$_Tree_simple_types@U?$pair@$$CBVshared_str@@V?$resptr_core@VCTexture@@Uresptrcode_texture@@@@@std@@@std@@@std@@SAAADPAU?$_Tree_node@U?$pair@$$CBVshared_str@@V?$resptr_core@VCTexture@@Uresptrcode_texture@@@@@std@@PAX@2@@Z 100020c0 f i ColorMapManager.obj
 0001:000010d0       ?_Left@?$_Tree_val@U?$_Tree_simple_types@U?$pair@$$CBVshared_str@@V?$resptr_core@VCTexture@@Uresptrcode_texture@@@@@std@@@std@@@std@@SAAAPAU?$_Tree_node@U?$pair@$$CBVshared_str@@V?$resptr_core@VCTexture@@Uresptrcode_texture@@@@@std@@PAX@2@PAU32@@Z 100020d0 f i ColorMapManager.obj
 0001:000010e0       ?_Parent@?$_Tree_val@U?$_Tree_simple_types@U?$pair@$$CBVshared_str@@V?$resptr_core@VCTexture@@Uresptrcode_texture@@@@@std@@@std@@@std@@SAAAPAU?$_Tree_node@U?$pair@$$CBVshared_str@@V?$resptr_core@VCTexture@@Uresptrcode_texture@@@@@std@@PAX@2@PAU32@@Z 100020e0 f i ColorMapManager.obj
 0001:000010f0       ?_Right@?$_Tree_val@U?$_Tree_simple_types@U?$pair@$$CBVshared_str@@V?$resptr_core@VCTexture@@Uresptrcode_texture@@@@@std@@@std@@@std@@SAAAPAU?$_Tree_node@U?$pair@$$CBVshared_str@@V?$resptr_core@VCTexture@@Uresptrcode_texture@@@@@std@@PAX@2@PAU32@@Z 100020f0 f i ColorMapManager.obj
 0001:00001100       ??E?$_Tree_const_iterator@V?$_Tree_val@U?$_Tree_simple_types@U?$pair@$$CBVshared_str@@V?$resptr_core@VCTexture@@Uresptrcode_texture@@@@@std@@@std@@@std@@@std@@QAE?AV01@H@Z 10002100 f i ColorMapManager.obj
 0001:00001120       ??0?$_Tree_unchecked_const_iterator@V?$_Tree_val@U?$_Tree_simple_types@U?$pair@$$CBVshared_str@@V?$resptr_core@VCTexture@@Uresptrcode_texture@@@@@std@@@std@@@std@@U_Iterator_base0@2@@std@@QAE@PAU?$_Tree_node@U?$pair@$$CBVshared_str@@V?$resptr_core@VCTexture@@Uresptrcode_texture@@@@@std@@PAX@1@PBV?$_Tree_val@U?$_Tree_simple_types@U?$pair@$$CBVshared_str@@V?$resptr_core@VCTexture@@Uresptrcode_texture@@@@@std@@@std@@@1@@Z 10002120 f i ColorMapManager.obj
 0001:00001130       ?_Erase@?$_Tree@V?$_Tmap_traits@Vshared_str@@V?$resptr_core@VCTexture@@Uresptrcode_texture@@@@Ustr_pred@ColorMapManager@@V?$xalloc@U?$pair@Vshared_str@@V?$resptr_core@VCTexture@@Uresptrcode_texture@@@@@std@@@@$0A@@std@@@std@@IAEXPAU?$_Tree_node@U?$pair@$$CBVshared_str@@V?$resptr_core@VCTexture@@Uresptrcode_texture@@@@@std@@PAX@2@@Z 10002130 f i ColorMapManager.obj
 0001:000011a0       ?_Lrotate@?$_Tree@V?$_Tmap_traits@Vshared_str@@V?$resptr_core@VCTexture@@Uresptrcode_texture@@@@Ustr_pred@ColorMapManager@@V?$xalloc@U?$pair@Vshared_str@@V?$resptr_core@VCTexture@@Uresptrcode_texture@@@@@std@@@@$0A@@std@@@std@@IAEXPAU?$_Tree_node@U?$pair@$$CBVshared_str@@V?$resptr_core@VCTexture@@Uresptrcode_texture@@@@@std@@PAX@2@@Z 100021a0 f i ColorMapManager.obj
 0001:000011f0       ?_Rmost@?$_Tree@V?$_Tmap_traits@Vshared_str@@V?$resptr_core@VCTexture@@Uresptrcode_texture@@@@Ustr_pred@ColorMapManager@@V?$xalloc@U?$pair@Vshared_str@@V?$resptr_core@VCTexture@@Uresptrcode_texture@@@@@std@@@@$0A@@std@@@std@@IBEAAPAU?$_Tree_node@U?$pair@$$CBVshared_str@@V?$resptr_core@VCTexture@@Uresptrcode_texture@@@@@std@@PAX@2@XZ 100021f0 f i ColorMapManager.obj
 0001:00001200       ?_Rrotate@?$_Tree@V?$_Tmap_traits@Vshared_str@@V?$resptr_core@VCTexture@@Uresptrcode_texture@@@@Ustr_pred@ColorMapManager@@V?$xalloc@U?$pair@Vshared_str@@V?$resptr_core@VCTexture@@Uresptrcode_texture@@@@@std@@@@$0A@@std@@@std@@IAEXPAU?$_Tree_node@U?$pair@$$CBVshared_str@@V?$resptr_core@VCTexture@@Uresptrcode_texture@@@@@std@@PAX@2@@Z 10002200 f i ColorMapManager.obj
 0001:00001260       ??0?$_Tree_alloc@$0A@U?$_Tree_base_types@U?$pair@$$CBVshared_str@@V?$resptr_core@VCTexture@@Uresptrcode_texture@@@@@std@@V?$xalloc@U?$pair@Vshared_str@@V?$resptr_core@VCTexture@@Uresptrcode_texture@@@@@std@@@@@std@@@std@@QAE@ABV?$xalloc@U?$pair@Vshared_str@@V?$resptr_core@VCTexture@@Uresptrcode_texture@@@@@std@@@@@Z 10002260 f i ColorMapManager.obj
 0001:00001280       ??0?$_Wrap_alloc@V?$xalloc@U?$_Tree_node@U?$pair@$$CBVshared_str@@V?$resptr_core@VCTexture@@Uresptrcode_texture@@@@@std@@PAX@std@@@@@std@@QAE@XZ 10002280 f i ColorMapManager.obj
 0001:00001290       ?deallocate@?$xalloc@U?$_Tree_node@U?$pair@$$CBVshared_str@@V?$resptr_core@VCTexture@@Uresptrcode_texture@@@@@std@@PAX@std@@@@QBEXPAU?$_Tree_node@U?$pair@$$CBVshared_str@@V?$resptr_core@VCTexture@@Uresptrcode_texture@@@@@std@@PAX@std@@I@Z 10002290 f i ColorMapManager.obj
 0001:000012b0       ?_Color@?$_Tree_val@U?$_Tree_simple_types@U?$pair@$$CBVshared_str@@V?$resptr_core@VCTexture@@Uresptrcode_texture@@@@@std@@@std@@@std@@SAAADPAU?$_Tree_node@U?$pair@$$CBVshared_str@@V?$resptr_core@VCTexture@@Uresptrcode_texture@@@@@std@@PAX@2@@Z 100022b0 f i ColorMapManager.obj
 0001:000012c0       ?_Max@?$_Tree_val@U?$_Tree_simple_types@U?$pair@$$CBVshared_str@@V?$resptr_core@VCTexture@@Uresptrcode_texture@@@@@std@@@std@@@std@@SAPAU?$_Tree_node@U?$pair@$$CBVshared_str@@V?$resptr_core@VCTexture@@Uresptrcode_texture@@@@@std@@PAX@2@PAU32@@Z 100022c0 f i ColorMapManager.obj
 0001:000012e0       ?_Min@?$_Tree_val@U?$_Tree_simple_types@U?$pair@$$CBVshared_str@@V?$resptr_core@VCTexture@@Uresptrcode_texture@@@@@std@@@std@@@std@@SAPAU?$_Tree_node@U?$pair@$$CBVshared_str@@V?$resptr_core@VCTexture@@Uresptrcode_texture@@@@@std@@PAX@2@PAU32@@Z 100022e0 f i ColorMapManager.obj
 0001:00001300       ??E?$_Tree_const_iterator@V?$_Tree_val@U?$_Tree_simple_types@U?$pair@$$CBVshared_str@@V?$resptr_core@VCTexture@@Uresptrcode_texture@@@@@std@@@std@@@std@@@std@@QAEAAV01@XZ 10002300 f i ColorMapManager.obj
 0001:00001310       ?_Buyheadnode@?$_Tree_alloc@$0A@U?$_Tree_base_types@U?$pair@$$CBVshared_str@@V?$resptr_core@VCTexture@@Uresptrcode_texture@@@@@std@@V?$xalloc@U?$pair@Vshared_str@@V?$resptr_core@VCTexture@@Uresptrcode_texture@@@@@std@@@@@std@@@std@@QAEPAU?$_Tree_node@U?$pair@$$CBVshared_str@@V?$resptr_core@VCTexture@@Uresptrcode_texture@@@@@std@@PAX@2@XZ 10002310 f i ColorMapManager.obj
 0001:000013a0       ??0?$xalloc@U?$_Tree_node@U?$pair@$$CBVshared_str@@V?$resptr_core@VCTexture@@Uresptrcode_texture@@@@@std@@PAX@std@@@@QAE@XZ 100023a0 f i ColorMapManager.obj
 0001:000013b0       ??0?$_Tree_val@U?$_Tree_simple_types@U?$pair@$$CBVshared_str@@V?$resptr_core@VCTexture@@Uresptrcode_texture@@@@@std@@@std@@@std@@QAE@XZ 100023b0 f i ColorMapManager.obj
 0001:000013c0       ??E?$_Tree_unchecked_const_iterator@V?$_Tree_val@U?$_Tree_simple_types@U?$pair@$$CBVshared_str@@V?$resptr_core@VCTexture@@Uresptrcode_texture@@@@@std@@@std@@@std@@U_Iterator_base0@2@@std@@QAEAAV01@XZ 100023c0 f i ColorMapManager.obj
 0001:00001410       ?allocate@?$_Wrap_alloc@V?$xalloc@U?$_Tree_node@U?$pair@$$CBVshared_str@@V?$resptr_core@VCTexture@@Uresptrcode_texture@@@@@std@@PAX@std@@@@@std@@QAEPAU?$_Tree_node@U?$pair@$$CBVshared_str@@V?$resptr_core@VCTexture@@Uresptrcode_texture@@@@@std@@PAX@2@I@Z 10002410 f i ColorMapManager.obj
 0001:00001430       ?allocate@?$xalloc@U?$_Tree_node@U?$pair@$$CBVshared_str@@V?$resptr_core@VCTexture@@Uresptrcode_texture@@@@@std@@PAX@std@@@@QBEPAU?$_Tree_node@U?$pair@$$CBVshared_str@@V?$resptr_core@VCTexture@@Uresptrcode_texture@@@@@std@@PAX@std@@IPBX@Z 10002430 f i ColorMapManager.obj
 0001:00001450       ??$mk_pair@Vshared_str@@V?$resptr_core@VCTexture@@Uresptrcode_texture@@@@@@YA?AU?$pair@Vshared_str@@V?$resptr_core@VCTexture@@Uresptrcode_texture@@@@@std@@Vshared_str@@V?$resptr_core@VCTexture@@Uresptrcode_texture@@@@@Z 10002450 f i ColorMapManager.obj
 0001:000014c0       ??$insert@U?$pair@Vshared_str@@V?$resptr_core@VCTexture@@Uresptrcode_texture@@@@@std@@@?$_Tree@V?$_Tmap_traits@Vshared_str@@V?$resptr_core@VCTexture@@Uresptrcode_texture@@@@Ustr_pred@ColorMapManager@@V?$xalloc@U?$pair@Vshared_str@@V?$resptr_core@VCTexture@@Uresptrcode_texture@@@@@std@@@@$0A@@std@@@std@@QAE?AU?$pair@V?$_Tree_iterator@V?$_Tree_val@U?$_Tree_simple_types@U?$pair@$$CBVshared_str@@V?$resptr_core@VCTexture@@Uresptrcode_texture@@@@@std@@@std@@@std@@@std@@_N@1@$$QAU?$pair@Vshared_str@@V?$resptr_core@VCTexture@@Uresptrcode_texture@@@@@1@@Z 100024c0 f i ColorMapManager.obj
 0001:000014f0       ??$addressof@U?$pair@$$CBVshared_str@@V?$resptr_core@VCTexture@@Uresptrcode_texture@@@@@std@@@std@@YAPAU?$pair@$$CBVshared_str@@V?$resptr_core@VCTexture@@Uresptrcode_texture@@@@@0@AAU10@@Z 100024f0 f i ColorMapManager.obj
 0001:00001500       ??$_Kfn@$$CBVshared_str@@V?$resptr_core@VCTexture@@Uresptrcode_texture@@@@@?$_Tmap_traits@Vshared_str@@V?$resptr_core@VCTexture@@Uresptrcode_texture@@@@Ustr_pred@ColorMapManager@@V?$xalloc@U?$pair@Vshared_str@@V?$resptr_core@VCTexture@@Uresptrcode_texture@@@@@std@@@@$0A@@std@@SAABVshared_str@@ABU?$pair@$$CBVshared_str@@V?$resptr_core@VCTexture@@Uresptrcode_texture@@@@@1@@Z 10002500 f i ColorMapManager.obj
 0001:00001510       ??$addressof@PAU?$_Tree_node@U?$pair@$$CBVshared_str@@V?$resptr_core@VCTexture@@Uresptrcode_texture@@@@@std@@PAX@std@@@std@@YAPAPAU?$_Tree_node@U?$pair@$$CBVshared_str@@V?$resptr_core@VCTexture@@Uresptrcode_texture@@@@@std@@PAX@0@AAPAU10@@Z 10002510 f i ColorMapManager.obj
 0001:00001520       ??$destroy@PAU?$_Tree_node@U?$pair@$$CBVshared_str@@V?$resptr_core@VCTexture@@Uresptrcode_texture@@@@@std@@PAX@std@@@?$_Wrap_alloc@V?$xalloc@U?$_Tree_node@U?$pair@$$CBVshared_str@@V?$resptr_core@VCTexture@@Uresptrcode_texture@@@@@std@@PAX@std@@@@@std@@QAEXPAPAU?$_Tree_node@U?$pair@$$CBVshared_str@@V?$resptr_core@VCTexture@@Uresptrcode_texture@@@@@std@@PAX@1@@Z 10002520 f i ColorMapManager.obj
 0001:00001530       ??$destroy@U?$pair@$$CBVshared_str@@V?$resptr_core@VCTexture@@Uresptrcode_texture@@@@@std@@@?$_Wrap_alloc@V?$xalloc@U?$_Tree_node@U?$pair@$$CBVshared_str@@V?$resptr_core@VCTexture@@Uresptrcode_texture@@@@@std@@PAX@std@@@@@std@@QAEXPAU?$pair@$$CBVshared_str@@V?$resptr_core@VCTexture@@Uresptrcode_texture@@@@@1@@Z 10002530 f i ColorMapManager.obj
 0001:00001560       ??$xr_free@U?$_Tree_node@U?$pair@$$CBVshared_str@@V?$resptr_core@VCTexture@@Uresptrcode_texture@@@@@std@@PAX@std@@@@YAXAAPAU?$_Tree_node@U?$pair@$$CBVshared_str@@V?$resptr_core@VCTexture@@Uresptrcode_texture@@@@@std@@PAX@std@@@Z 10002560 f i ColorMapManager.obj
 0001:00001580       ??$construct@PAU?$_Tree_node@U?$pair@$$CBVshared_str@@V?$resptr_core@VCTexture@@Uresptrcode_texture@@@@@std@@PAX@std@@AAPAU12@@?$_Wrap_alloc@V?$xalloc@U?$_Tree_node@U?$pair@$$CBVshared_str@@V?$resptr_core@VCTexture@@Uresptrcode_texture@@@@@std@@PAX@std@@@@@std@@QAEXPAPAU?$_Tree_node@U?$pair@$$CBVshared_str@@V?$resptr_core@VCTexture@@Uresptrcode_texture@@@@@std@@PAX@1@AAPAU21@@Z 10002580 f i ColorMapManager.obj
 0001:000015a0       ??$xr_alloc@U?$_Tree_node@U?$pair@$$CBVshared_str@@V?$resptr_core@VCTexture@@Uresptrcode_texture@@@@@std@@PAX@std@@@@YAPAU?$_Tree_node@U?$pair@$$CBVshared_str@@V?$resptr_core@VCTexture@@Uresptrcode_texture@@@@@std@@PAX@std@@I@Z 100025a0 f i ColorMapManager.obj
 0001:000015b0       ??$?0AAVshared_str@@AAV?$resptr_core@VCTexture@@Uresptrcode_texture@@@@X@?$pair@Vshared_str@@V?$resptr_core@VCTexture@@Uresptrcode_texture@@@@@std@@QAE@AAVshared_str@@AAV?$resptr_core@VCTexture@@Uresptrcode_texture@@@@@Z 100025b0 f i ColorMapManager.obj
 0001:000015f0       ??$forward@U?$pair@Vshared_str@@V?$resptr_core@VCTexture@@Uresptrcode_texture@@@@@std@@@std@@YA$$QAU?$pair@Vshared_str@@V?$resptr_core@VCTexture@@Uresptrcode_texture@@@@@0@AAU10@@Z 100025f0 f i ColorMapManager.obj
 0001:00001600       ??$_Buynode@U?$pair@Vshared_str@@V?$resptr_core@VCTexture@@Uresptrcode_texture@@@@@std@@@?$_Tree_buy@U?$pair@$$CBVshared_str@@V?$resptr_core@VCTexture@@Uresptrcode_texture@@@@@std@@V?$xalloc@U?$pair@Vshared_str@@V?$resptr_core@VCTexture@@Uresptrcode_texture@@@@@std@@@@@std@@QAEPAU?$_Tree_node@U?$pair@$$CBVshared_str@@V?$resptr_core@VCTexture@@Uresptrcode_texture@@@@@std@@PAX@1@$$QAU?$pair@Vshared_str@@V?$resptr_core@VCTexture@@Uresptrcode_texture@@@@@1@@Z 10002600 f i ColorMapManager.obj
 0001:00001680       ??$_Insert_nohint@AAU?$pair@$$CBVshared_str@@V?$resptr_core@VCTexture@@Uresptrcode_texture@@@@@std@@PAU?$_Tree_node@U?$pair@$$CBVshared_str@@V?$resptr_core@VCTexture@@Uresptrcode_texture@@@@@std@@PAX@2@@?$_Tree@V?$_Tmap_traits@Vshared_str@@V?$resptr_core@VCTexture@@Uresptrcode_texture@@@@Ustr_pred@ColorMapManager@@V?$xalloc@U?$pair@Vshared_str@@V?$resptr_core@VCTexture@@Uresptrcode_texture@@@@@std@@@@$0A@@std@@@std@@IAE?AU?$pair@V?$_Tree_iterator@V?$_Tree_val@U?$_Tree_simple_types@U?$pair@$$CBVshared_str@@V?$resptr_core@VCTexture@@Uresptrcode_texture@@@@@std@@@std@@@std@@@std@@_N@1@_NAAU?$pair@$$CBVshared_str@@V?$resptr_core@VCTexture@@Uresptrcode_texture@@@@@1@PAU?$_Tree_node@U?$pair@$$CBVshared_str@@V?$resptr_core@VCTexture@@Uresptrcode_texture@@@@@std@@PAX@1@@Z 10002680 f i ColorMapManager.obj
 0001:00001790       ??$destroy@PAU?$_Tree_node@U?$pair@$$CBVshared_str@@V?$resptr_core@VCTexture@@Uresptrcode_texture@@@@@std@@PAX@std@@@?$allocator_traits@V?$xalloc@U?$_Tree_node@U?$pair@$$CBVshared_str@@V?$resptr_core@VCTexture@@Uresptrcode_texture@@@@@std@@PAX@std@@@@@std@@SAXAAV?$xalloc@U?$_Tree_node@U?$pair@$$CBVshared_str@@V?$resptr_core@VCTexture@@Uresptrcode_texture@@@@@std@@PAX@std@@@@PAPAU?$_Tree_node@U?$pair@$$CBVshared_str@@V?$resptr_core@VCTexture@@Uresptrcode_texture@@@@@std@@PAX@1@@Z 10002790 f i ColorMapManager.obj
 0001:000017a0       ??$destroy@U?$pair@$$CBVshared_str@@V?$resptr_core@VCTexture@@Uresptrcode_texture@@@@@std@@@?$allocator_traits@V?$xalloc@U?$_Tree_node@U?$pair@$$CBVshared_str@@V?$resptr_core@VCTexture@@Uresptrcode_texture@@@@@std@@PAX@std@@@@@std@@SAXAAV?$xalloc@U?$_Tree_node@U?$pair@$$CBVshared_str@@V?$resptr_core@VCTexture@@Uresptrcode_texture@@@@@std@@PAX@std@@@@PAU?$pair@$$CBVshared_str@@V?$resptr_core@VCTexture@@Uresptrcode_texture@@@@@1@@Z 100027a0 f i ColorMapManager.obj
 0001:000017d0       ??$forward@AAPAU?$_Tree_node@U?$pair@$$CBVshared_str@@V?$resptr_core@VCTexture@@Uresptrcode_texture@@@@@std@@PAX@std@@@std@@YAAAPAU?$_Tree_node@U?$pair@$$CBVshared_str@@V?$resptr_core@VCTexture@@Uresptrcode_texture@@@@@std@@PAX@0@AAPAU10@@Z 100027d0 f i ColorMapManager.obj
 0001:000017e0       ??$construct@PAU?$_Tree_node@U?$pair@$$CBVshared_str@@V?$resptr_core@VCTexture@@Uresptrcode_texture@@@@@std@@PAX@std@@AAPAU12@@?$allocator_traits@V?$xalloc@U?$_Tree_node@U?$pair@$$CBVshared_str@@V?$resptr_core@VCTexture@@Uresptrcode_texture@@@@@std@@PAX@std@@@@@std@@SAXAAV?$xalloc@U?$_Tree_node@U?$pair@$$CBVshared_str@@V?$resptr_core@VCTexture@@Uresptrcode_texture@@@@@std@@PAX@std@@@@PAPAU?$_Tree_node@U?$pair@$$CBVshared_str@@V?$resptr_core@VCTexture@@Uresptrcode_texture@@@@@std@@PAX@1@AAPAU31@@Z 100027e0 f i ColorMapManager.obj
 0001:000017f0       ?_Destroy_if_not_nil@?$_Tree@V?$_Tmap_traits@Vshared_str@@V?$resptr_core@VCTexture@@Uresptrcode_texture@@@@Ustr_pred@ColorMapManager@@V?$xalloc@U?$pair@Vshared_str@@V?$resptr_core@VCTexture@@Uresptrcode_texture@@@@@std@@@@$0A@@std@@@std@@IAEXPAU?$_Tree_node@U?$pair@$$CBVshared_str@@V?$resptr_core@VCTexture@@Uresptrcode_texture@@@@@std@@PAX@2@@Z 100027f0 f i ColorMapManager.obj
 0001:00001830       ?_Buynode0@?$_Tree_buy@U?$pair@$$CBVshared_str@@V?$resptr_core@VCTexture@@Uresptrcode_texture@@@@@std@@V?$xalloc@U?$pair@Vshared_str@@V?$resptr_core@VCTexture@@Uresptrcode_texture@@@@@std@@@@@std@@QAEPAU?$_Tree_node@U?$pair@$$CBVshared_str@@V?$resptr_core@VCTexture@@Uresptrcode_texture@@@@@std@@PAX@2@XZ 10002830 f i ColorMapManager.obj
 0001:000018d0       ?_Freenode0@?$_Tree_buy@U?$pair@$$CBVshared_str@@V?$resptr_core@VCTexture@@Uresptrcode_texture@@@@@std@@V?$xalloc@U?$pair@Vshared_str@@V?$resptr_core@VCTexture@@Uresptrcode_texture@@@@@std@@@@@std@@QAEXPAU?$_Tree_node@U?$pair@$$CBVshared_str@@V?$resptr_core@VCTexture@@Uresptrcode_texture@@@@@std@@PAX@2@@Z 100028d0 f i ColorMapManager.obj
 0001:000018f0       ??F?$_Tree_iterator@V?$_Tree_val@U?$_Tree_simple_types@U?$pair@$$CBVshared_str@@V?$resptr_core@VCTexture@@Uresptrcode_texture@@@@@std@@@std@@@std@@@std@@QAEAAV01@XZ 100028f0 f i ColorMapManager.obj
 0001:00001900       ??F?$_Tree_const_iterator@V?$_Tree_val@U?$_Tree_simple_types@U?$pair@$$CBVshared_str@@V?$resptr_core@VCTexture@@Uresptrcode_texture@@@@@std@@@std@@@std@@@std@@QAEAAV01@XZ 10002900 f i ColorMapManager.obj
 0001:00001910       ??F?$_Tree_unchecked_const_iterator@V?$_Tree_val@U?$_Tree_simple_types@U?$pair@$$CBVshared_str@@V?$resptr_core@VCTexture@@Uresptrcode_texture@@@@@std@@@std@@@std@@U_Iterator_base0@2@@std@@QAEAAV01@XZ 10002910 f i ColorMapManager.obj
 0001:00001970       ??$forward@AAV?$resptr_core@VCTexture@@Uresptrcode_texture@@@@@std@@YAAAV?$resptr_core@VCTexture@@Uresptrcode_texture@@@@AAV1@@Z 10002970 f i ColorMapManager.obj
 0001:00001980       ??$construct@U?$pair@$$CBVshared_str@@V?$resptr_core@VCTexture@@Uresptrcode_texture@@@@@std@@U?$pair@Vshared_str@@V?$resptr_core@VCTexture@@Uresptrcode_texture@@@@@2@@?$_Wrap_alloc@V?$xalloc@U?$_Tree_node@U?$pair@$$CBVshared_str@@V?$resptr_core@VCTexture@@Uresptrcode_texture@@@@@std@@PAX@std@@@@@std@@QAEXPAU?$pair@$$CBVshared_str@@V?$resptr_core@VCTexture@@Uresptrcode_texture@@@@@1@$$QAU?$pair@Vshared_str@@V?$resptr_core@VCTexture@@Uresptrcode_texture@@@@@1@@Z 10002980 f i ColorMapManager.obj
 0001:000019d0       ??$forward@AAU?$pair@$$CBVshared_str@@V?$resptr_core@VCTexture@@Uresptrcode_texture@@@@@std@@@std@@YAAAU?$pair@$$CBVshared_str@@V?$resptr_core@VCTexture@@Uresptrcode_texture@@@@@0@AAU10@@Z 100029d0 f i ColorMapManager.obj
 0001:000019e0       ??$_Insert_at@AAU?$pair@$$CBVshared_str@@V?$resptr_core@VCTexture@@Uresptrcode_texture@@@@@std@@PAU?$_Tree_node@U?$pair@$$CBVshared_str@@V?$resptr_core@VCTexture@@Uresptrcode_texture@@@@@std@@PAX@2@@?$_Tree@V?$_Tmap_traits@Vshared_str@@V?$resptr_core@VCTexture@@Uresptrcode_texture@@@@Ustr_pred@ColorMapManager@@V?$xalloc@U?$pair@Vshared_str@@V?$resptr_core@VCTexture@@Uresptrcode_texture@@@@@std@@@@$0A@@std@@@std@@IAE?AV?$_Tree_iterator@V?$_Tree_val@U?$_Tree_simple_types@U?$pair@$$CBVshared_str@@V?$resptr_core@VCTexture@@Uresptrcode_texture@@@@@std@@@std@@@std@@@1@_NPAU?$_Tree_node@U?$pair@$$CBVshared_str@@V?$resptr_core@VCTexture@@Uresptrcode_texture@@@@@std@@PAX@1@AAU?$pair@$$CBVshared_str@@V?$resptr_core@VCTexture@@Uresptrcode_texture@@@@@1@1@Z 100029e0 f i ColorMapManager.obj
 0001:00001c20       ??$?0V?$_Tree_iterator@V?$_Tree_val@U?$_Tree_simple_types@U?$pair@$$CBVshared_str@@V?$resptr_core@VCTexture@@Uresptrcode_texture@@@@@std@@@std@@@std@@@std@@_NX@?$pair@V?$_Tree_iterator@V?$_Tree_val@U?$_Tree_simple_types@U?$pair@$$CBVshared_str@@V?$resptr_core@VCTexture@@Uresptrcode_texture@@@@@std@@@std@@@std@@@std@@_N@std@@QAE@$$QAV?$_Tree_iterator@V?$_Tree_val@U?$_Tree_simple_types@U?$pair@$$CBVshared_str@@V?$resptr_core@VCTexture@@Uresptrcode_texture@@@@@std@@@std@@@std@@@1@$$QA_N@Z 10002c20 f i ColorMapManager.obj
 0001:00001c40       ??$?0AAV?$_Tree_iterator@V?$_Tree_val@U?$_Tree_simple_types@U?$pair@$$CBVshared_str@@V?$resptr_core@VCTexture@@Uresptrcode_texture@@@@@std@@@std@@@std@@@std@@_NX@?$pair@V?$_Tree_iterator@V?$_Tree_val@U?$_Tree_simple_types@U?$pair@$$CBVshared_str@@V?$resptr_core@VCTexture@@Uresptrcode_texture@@@@@std@@@std@@@std@@@std@@_N@std@@QAE@AAV?$_Tree_iterator@V?$_Tree_val@U?$_Tree_simple_types@U?$pair@$$CBVshared_str@@V?$resptr_core@VCTexture@@Uresptrcode_texture@@@@@std@@@std@@@std@@@1@$$QA_N@Z 10002c40 f i ColorMapManager.obj
 0001:00001c60       ??$_Fn@V?$xalloc@U?$_Tree_node@U?$pair@$$CBVshared_str@@V?$resptr_core@VCTexture@@Uresptrcode_texture@@@@@std@@PAX@std@@@@PAU?$_Tree_node@U?$pair@$$CBVshared_str@@V?$resptr_core@VCTexture@@Uresptrcode_texture@@@@@std@@PAX@std@@@_Alloc_destroy@std@@SAXU_Wrap_int@1@AAV?$xalloc@U?$_Tree_node@U?$pair@$$CBVshared_str@@V?$resptr_core@VCTexture@@Uresptrcode_texture@@@@@std@@PAX@std@@@@PAPAU?$_Tree_node@U?$pair@$$CBVshared_str@@V?$resptr_core@VCTexture@@Uresptrcode_texture@@@@@std@@PAX@1@@Z 10002c60 f i ColorMapManager.obj
 0001:00001c70       ??$_Fn@V?$xalloc@U?$_Tree_node@U?$pair@$$CBVshared_str@@V?$resptr_core@VCTexture@@Uresptrcode_texture@@@@@std@@PAX@std@@@@U?$pair@$$CBVshared_str@@V?$resptr_core@VCTexture@@Uresptrcode_texture@@@@@std@@@_Alloc_destroy@std@@SAXU_Wrap_int@1@AAV?$xalloc@U?$_Tree_node@U?$pair@$$CBVshared_str@@V?$resptr_core@VCTexture@@Uresptrcode_texture@@@@@std@@PAX@std@@@@PAU?$pair@$$CBVshared_str@@V?$resptr_core@VCTexture@@Uresptrcode_texture@@@@@1@@Z 10002c70 f i ColorMapManager.obj
 0001:00001ca0       ??$_Fn@V?$xalloc@U?$_Tree_node@U?$pair@$$CBVshared_str@@V?$resptr_core@VCTexture@@Uresptrcode_texture@@@@@std@@PAX@std@@@@PAU?$_Tree_node@U?$pair@$$CBVshared_str@@V?$resptr_core@VCTexture@@Uresptrcode_texture@@@@@std@@PAX@std@@AAPAU23@@_Alloc_construct@std@@SAXU_Wrap_int@1@AAV?$xalloc@U?$_Tree_node@U?$pair@$$CBVshared_str@@V?$resptr_core@VCTexture@@Uresptrcode_texture@@@@@std@@PAX@std@@@@PAPAU?$_Tree_node@U?$pair@$$CBVshared_str@@V?$resptr_core@VCTexture@@Uresptrcode_texture@@@@@std@@PAX@1@AAPAU41@@Z 10002ca0 f i ColorMapManager.obj
 0001:00001cb0       ??_G?$pair@$$CBVshared_str@@V?$resptr_core@VCTexture@@Uresptrcode_texture@@@@@std@@QAEPAXI@Z 10002cb0 f i ColorMapManager.obj
 0001:00001ce0       ??1?$pair@$$CBVshared_str@@V?$resptr_core@VCTexture@@Uresptrcode_texture@@@@@std@@QAE@XZ 10002ce0 f i ColorMapManager.obj
 0001:00001d10       ?max_size@?$_Tree@V?$_Tmap_traits@Vshared_str@@V?$resptr_core@VCTexture@@Uresptrcode_texture@@@@Ustr_pred@ColorMapManager@@V?$xalloc@U?$pair@Vshared_str@@V?$resptr_core@VCTexture@@Uresptrcode_texture@@@@@std@@@@$0A@@std@@@std@@QBEIXZ 10002d10 f i ColorMapManager.obj
 0001:00001d20       ?max_size@?$_Wrap_alloc@V?$xalloc@U?$_Tree_node@U?$pair@$$CBVshared_str@@V?$resptr_core@VCTexture@@Uresptrcode_texture@@@@@std@@PAX@std@@@@@std@@QBEIXZ 10002d20 f i ColorMapManager.obj
 0001:00001d30       ?max_size@?$allocator_traits@V?$xalloc@U?$_Tree_node@U?$pair@$$CBVshared_str@@V?$resptr_core@VCTexture@@Uresptrcode_texture@@@@@std@@PAX@std@@@@@std@@SAIABV?$xalloc@U?$_Tree_node@U?$pair@$$CBVshared_str@@V?$resptr_core@VCTexture@@Uresptrcode_texture@@@@@std@@PAX@std@@@@@Z 10002d30 f i ColorMapManager.obj
 0001:00001d40       ??$construct@U?$pair@$$CBVshared_str@@V?$resptr_core@VCTexture@@Uresptrcode_texture@@@@@std@@U?$pair@Vshared_str@@V?$resptr_core@VCTexture@@Uresptrcode_texture@@@@@2@@?$allocator_traits@V?$xalloc@U?$_Tree_node@U?$pair@$$CBVshared_str@@V?$resptr_core@VCTexture@@Uresptrcode_texture@@@@@std@@PAX@std@@@@@std@@SAXAAV?$xalloc@U?$_Tree_node@U?$pair@$$CBVshared_str@@V?$resptr_core@VCTexture@@Uresptrcode_texture@@@@@std@@PAX@std@@@@PAU?$pair@$$CBVshared_str@@V?$resptr_core@VCTexture@@Uresptrcode_texture@@@@@1@$$QAU?$pair@Vshared_str@@V?$resptr_core@VCTexture@@Uresptrcode_texture@@@@@1@@Z 10002d40 f i ColorMapManager.obj
 0001:00001d80       ??$_Buynode_if_nil@AAU?$pair@$$CBVshared_str@@V?$resptr_core@VCTexture@@Uresptrcode_texture@@@@@std@@@?$_Tree@V?$_Tmap_traits@Vshared_str@@V?$resptr_core@VCTexture@@Uresptrcode_texture@@@@Ustr_pred@ColorMapManager@@V?$xalloc@U?$pair@Vshared_str@@V?$resptr_core@VCTexture@@Uresptrcode_texture@@@@@std@@@@$0A@@std@@@std@@IAEPAU?$_Tree_node@U?$pair@$$CBVshared_str@@V?$resptr_core@VCTexture@@Uresptrcode_texture@@@@@std@@PAX@1@PAU21@AAU?$pair@$$CBVshared_str@@V?$resptr_core@VCTexture@@Uresptrcode_texture@@@@@1@@Z 10002d80 f i ColorMapManager.obj
 0001:00001d90       ??$forward@V?$_Tree_iterator@V?$_Tree_val@U?$_Tree_simple_types@U?$pair@$$CBVshared_str@@V?$resptr_core@VCTexture@@Uresptrcode_texture@@@@@std@@@std@@@std@@@std@@@std@@YA$$QAV?$_Tree_iterator@V?$_Tree_val@U?$_Tree_simple_types@U?$pair@$$CBVshared_str@@V?$resptr_core@VCTexture@@Uresptrcode_texture@@@@@std@@@std@@@std@@@0@AAV10@@Z 10002d90 f i ColorMapManager.obj
 0001:00001da0       ??$forward@_N@std@@YA$$QA_NAA_N@Z 10002da0 f i ColorMapManager.obj
 0001:00001db0       ??$forward@AAV?$_Tree_iterator@V?$_Tree_val@U?$_Tree_simple_types@U?$pair@$$CBVshared_str@@V?$resptr_core@VCTexture@@Uresptrcode_texture@@@@@std@@@std@@@std@@@std@@@std@@YAAAV?$_Tree_iterator@V?$_Tree_val@U?$_Tree_simple_types@U?$pair@$$CBVshared_str@@V?$resptr_core@VCTexture@@Uresptrcode_texture@@@@@std@@@std@@@std@@@0@AAV10@@Z 10002db0 f i ColorMapManager.obj
 0001:00001dc0       ??$_Fn@V?$xalloc@U?$_Tree_node@U?$pair@$$CBVshared_str@@V?$resptr_core@VCTexture@@Uresptrcode_texture@@@@@std@@PAX@std@@@@@_Alloc_max_size@std@@SAIHABV?$xalloc@U?$_Tree_node@U?$pair@$$CBVshared_str@@V?$resptr_core@VCTexture@@Uresptrcode_texture@@@@@std@@PAX@std@@@@@Z 10002dc0 f i ColorMapManager.obj
 0001:00001dd0       ?max_size@?$xalloc@U?$_Tree_node@U?$pair@$$CBVshared_str@@V?$resptr_core@VCTexture@@Uresptrcode_texture@@@@@std@@PAX@std@@@@QBEIXZ 10002dd0 f i ColorMapManager.obj
 0001:00001de0       ??$_Fn@V?$xalloc@U?$_Tree_node@U?$pair@$$CBVshared_str@@V?$resptr_core@VCTexture@@Uresptrcode_texture@@@@@std@@PAX@std@@@@U?$pair@$$CBVshared_str@@V?$resptr_core@VCTexture@@Uresptrcode_texture@@@@@std@@U?$pair@Vshared_str@@V?$resptr_core@VCTexture@@Uresptrcode_texture@@@@@3@@_Alloc_construct@std@@SAXU_Wrap_int@1@AAV?$xalloc@U?$_Tree_node@U?$pair@$$CBVshared_str@@V?$resptr_core@VCTexture@@Uresptrcode_texture@@@@@std@@PAX@std@@@@PAU?$pair@$$CBVshared_str@@V?$resptr_core@VCTexture@@Uresptrcode_texture@@@@@1@$$QAU?$pair@Vshared_str@@V?$resptr_core@VCTexture@@Uresptrcode_texture@@@@@1@@Z 10002de0 f i ColorMapManager.obj
 0001:00001e20       ??$?0Vshared_str@@V?$resptr_core@VCTexture@@Uresptrcode_texture@@@@X@?$pair@$$CBVshared_str@@V?$resptr_core@VCTexture@@Uresptrcode_texture@@@@@std@@QAE@$$QAU?$pair@Vshared_str@@V?$resptr_core@VCTexture@@Uresptrcode_texture@@@@@1@@Z 10002e20 f i ColorMapManager.obj
 0001:00001e60       ??$forward@Vshared_str@@@std@@YA$$QAVshared_str@@AAV1@@Z 10002e60 f i ColorMapManager.obj
 0001:00001e70       ??$forward@V?$resptr_core@VCTexture@@Uresptrcode_texture@@@@@std@@YA$$QAV?$resptr_core@VCTexture@@Uresptrcode_texture@@@@AAV1@@Z 10002e70 f i ColorMapManager.obj
 0001:00001e80       ??$xr_free@X@@YAXAAPAX@Z   10002e80 f i ColorMapManager.obj
 0001:00001ea0       ??3@YAXPAX@Z               10002ea0 f i ColorMapManager.obj
 0001:00001ec0       ??2@YAPAXIPAX@Z            10002ec0 f i ColorMapManager.obj
 0001:00001ed0       ??0_Wrap_int@std@@QAE@H@Z  10002ed0 f i ColorMapManager.obj
 0001:00001ee0       ??$forward@AAVshared_str@@@std@@YAAAVshared_str@@AAV1@@Z 10002ee0 f i ColorMapManager.obj
 0001:00001ef0       ?_Adopt@_Iterator_base0@std@@QAEXPBX@Z 10002ef0 f i ColorMapManager.obj
 0001:00001f00       ??$_Move@AAD@std@@YA$$QADAAD@Z 10002f00 f i ColorMapManager.obj
 0001:00001f10       ??$swap@D@std@@YAXAAD0@Z   10002f10 f i ColorMapManager.obj
 0001:00001f20       ??M@YA_NABVshared_str@@0@Z 10002f20 f i ColorMapManager.obj
 0001:00001f30       ??Rstr_pred@ColorMapManager@@QBE_NABVshared_str@@0@Z 10002f30 f i ColorMapManager.obj
 0001:00001f50       ??0shared_str@@QAE@ABV0@@Z 10002f50 f i ColorMapManager.obj
 0001:00001f90       ?c_str@shared_str@@QBEPBDXZ 10002f90 f i ColorMapManager.obj
 0001:00001fa0       ?size@shared_str@@QBEIXZ   10002fa0 f i ColorMapManager.obj
 0001:00001fb0       ?_set@shared_str@@QAEXABV1@@Z 10002fb0 f i ColorMapManager.obj
 0001:00001fe0       ??4shared_str@@QAEAAV0@ABV0@@Z 10002fe0 f i ColorMapManager.obj
 0001:00002010       ?_get@shared_str@@QBEPBUstr_value@@XZ 10003010 f i ColorMapManager.obj
 0001:00002020       ??8@YA_NABVshared_str@@0@Z 10003020 f i ColorMapManager.obj
 0001:00002030       ??4?$resptr_core@VCTexture@@Uresptrcode_texture@@@@QAEAAV0@ABV0@@Z 10003030 f i ColorMapManager.obj
 0001:00002050       ??0shared_str@@QAE@XZ      10003050 f i ColorMapManager.obj
 0001:00002060       ?_dec@shared_str@@IAEXXZ   10003060 f i ColorMapManager.obj
 0001:00002080       ??1shared_str@@QAE@XZ      10003080 f i ColorMapManager.obj
 0001:000020a0       ??_I@YGXPAXIHP6EX0@Z@Z     100030a0 f i ColorMapManager.obj
 0001:000020d0       ??_H@YGXPAXIHP6EPAX0@Z@Z   100030d0 f i ColorMapManager.obj
 0001:00002100       ??1?$resptr_core@VCTexture@@Uresptrcode_texture@@@@QAE@XZ 10003100 f i ColorMapManager.obj
 0001:00002110       ?Copy@dxUIShader@@UAEXAAVIUIShader@@@Z 10003110 f   dxUIShader.obj
 0001:00002140       ??4dxUIShader@@QAEAAV0@ABV0@@Z 10003140 f i dxUIShader.obj
 0001:00002170       ??4IUIShader@@QAEAAV0@ABV0@@Z 10003170 f i dxUIShader.obj
 0001:00002180       ?create@dxUIShader@@UAEXPBD0@Z 10003180 f   dxUIShader.obj
 0001:000021a0       ?destroy@dxUIShader@@UAEXXZ 100031a0 f   dxUIShader.obj
 0001:000021c0       ??4?$resptr_core@UShader@@Uresptrcode_shader@@@@QAEAAV0@ABV0@@Z 100031c0 f i dxUIShader.obj
 0001:000021e0       ??1IWallMarkArray@@UAE@XZ  100031e0 f i dxWallMarkArray.obj
 0001:000021f0       ??_GIWallMarkArray@@UAEPAXI@Z 100031f0 f i dxWallMarkArray.obj
 0001:000021f0       ??_EIWallMarkArray@@UAEPAXI@Z 100031f0 f i * CIL library *:* CIL module *
 0001:00002220       ?Copy@dxWallMarkArray@@UAEXAAVIWallMarkArray@@@Z 10003220 f   dxWallMarkArray.obj
 0001:00002230       ??4dxWallMarkArray@@QAEAAV0@ABV0@@Z 10003230 f i dxWallMarkArray.obj
 0001:00002250       ??4IWallMarkArray@@QAEAAV0@ABV0@@Z 10003250 f i dxWallMarkArray.obj
 0001:00002260       ??4?$xr_vector@V?$resptr_core@UShader@@Uresptrcode_shader@@@@V?$xalloc@V?$resptr_core@UShader@@Uresptrcode_shader@@@@@@@@QAEAAV0@ABV0@@Z 10003260 f i dxWallMarkArray.obj
 0001:00002280       ??1dxWallMarkArray@@UAE@XZ 10003280 f   dxWallMarkArray.obj
 0001:00002300       ??_GdxWallMarkArray@@UAEPAXI@Z 10003300 f i dxWallMarkArray.obj
 0001:00002300       ??_EdxWallMarkArray@@UAEPAXI@Z 10003300 f i * CIL library *:* CIL module *
 0001:00002330       ??1?$xr_vector@V?$resptr_core@UShader@@Uresptrcode_shader@@@@V?$xalloc@V?$resptr_core@UShader@@Uresptrcode_shader@@@@@@@@QAE@XZ 10003330 f i dxWallMarkArray.obj
 0001:00002340       ?AppendMark@dxWallMarkArray@@UAEXPBD@Z 10003340 f   dxWallMarkArray.obj
 0001:00002380       ?clear@dxWallMarkArray@@UAEXXZ 10003380 f   dxWallMarkArray.obj
 0001:000023c0       ?empty@dxWallMarkArray@@UAE_NXZ 100033c0 f   dxWallMarkArray.obj
 0001:000023d0       ?GenerateWallmark@dxWallMarkArray@@UAE?AV?$FactoryPtr@VIUIShader@@@@XZ 100033d0 f   dxWallMarkArray.obj
 0001:00002430       ?dxGenerateWallmark@dxWallMarkArray@@QAEPAV?$resptr_core@UShader@@Uresptrcode_shader@@@@XZ 10003430 f   dxWallMarkArray.obj
 0001:00002460       ??0?$FactoryPtr@VIUIShader@@@@QAE@XZ 10003460 f i dxWallMarkArray.obj
 0001:00002480       ??1?$FactoryPtr@VIUIShader@@@@QAE@XZ 10003480 f i dxWallMarkArray.obj
 0001:000024a0       ??0?$FactoryPtr@VIUIShader@@@@QAE@ABV0@@Z 100034a0 f i dxWallMarkArray.obj
 0001:000024d0       ??D?$FactoryPtr@VIUIShader@@@@QBEAAVIUIShader@@XZ 100034d0 f i dxWallMarkArray.obj
 0001:000024e0       ?size@?$xr_vector@V?$resptr_core@UShader@@Uresptrcode_shader@@@@V?$xalloc@V?$resptr_core@UShader@@Uresptrcode_shader@@@@@@@@QBEIXZ 100034e0 f i dxWallMarkArray.obj
 0001:000024f0       ?clear@?$xr_vector@V?$resptr_core@UShader@@Uresptrcode_shader@@@@V?$xalloc@V?$resptr_core@UShader@@Uresptrcode_shader@@@@@@@@QAEXXZ 100034f0 f i dxWallMarkArray.obj
 0001:00002530       ??A?$xr_vector@V?$resptr_core@UShader@@Uresptrcode_shader@@@@V?$xalloc@V?$resptr_core@UShader@@Uresptrcode_shader@@@@@@@@QAEAAV?$resptr_core@UShader@@Uresptrcode_shader@@@@I@Z 10003530 f i dxWallMarkArray.obj
 0001:00002540       ??1?$vector@V?$resptr_core@UShader@@Uresptrcode_shader@@@@V?$xalloc@V?$resptr_core@UShader@@Uresptrcode_shader@@@@@@@std@@QAE@XZ 10003540 f i dxWallMarkArray.obj
 0001:00002550       ??4?$vector@V?$resptr_core@UShader@@Uresptrcode_shader@@@@V?$xalloc@V?$resptr_core@UShader@@Uresptrcode_shader@@@@@@@std@@QAEAAV01@ABV01@@Z 10003550 f i dxWallMarkArray.obj
 0001:000026a0       ?begin@?$vector@V?$resptr_core@UShader@@Uresptrcode_shader@@@@V?$xalloc@V?$resptr_core@UShader@@Uresptrcode_shader@@@@@@@std@@QAE?AV?$_Vector_iterator@V?$_Vector_val@U?$_Simple_types@V?$resptr_core@UShader@@Uresptrcode_shader@@@@@std@@@std@@@2@XZ 100036a0 f i dxWallMarkArray.obj
 0001:000026b0       ?end@?$vector@V?$resptr_core@UShader@@Uresptrcode_shader@@@@V?$xalloc@V?$resptr_core@UShader@@Uresptrcode_shader@@@@@@@std@@QAE?AV?$_Vector_iterator@V?$_Vector_val@U?$_Simple_types@V?$resptr_core@UShader@@Uresptrcode_shader@@@@@std@@@std@@@2@XZ 100036b0 f i dxWallMarkArray.obj
 0001:000026c0       ?empty@?$vector@V?$resptr_core@UShader@@Uresptrcode_shader@@@@V?$xalloc@V?$resptr_core@UShader@@Uresptrcode_shader@@@@@@@std@@QBE_NXZ 100036c0 f i dxWallMarkArray.obj
 0001:000026d0       ?push_back@?$vector@V?$resptr_core@UShader@@Uresptrcode_shader@@@@V?$xalloc@V?$resptr_core@UShader@@Uresptrcode_shader@@@@@@@std@@QAEXABV?$resptr_core@UShader@@Uresptrcode_shader@@@@@Z 100036d0 f i dxWallMarkArray.obj
 0001:00002730       ??C?$_Vector_iterator@V?$_Vector_val@U?$_Simple_types@V?$resptr_core@UShader@@Uresptrcode_shader@@@@@std@@@std@@@std@@QBEPAV?$resptr_core@UShader@@Uresptrcode_shader@@@@XZ 10003730 f i dxWallMarkArray.obj
 0001:00002740       ??E?$_Vector_iterator@V?$_Vector_val@U?$_Simple_types@V?$resptr_core@UShader@@Uresptrcode_shader@@@@@std@@@std@@@std@@QAEAAV01@XZ 10003740 f i dxWallMarkArray.obj
 0001:00002750       ??9?$_Vector_const_iterator@V?$_Vector_val@U?$_Simple_types@V?$resptr_core@UShader@@Uresptrcode_shader@@@@@std@@@std@@@std@@QBE_NABV01@@Z 10003750 f i dxWallMarkArray.obj
 0001:00002760       ?clear_and_free@?$xr_vector@V?$resptr_core@UShader@@Uresptrcode_shader@@@@V?$xalloc@V?$resptr_core@UShader@@Uresptrcode_shader@@@@@@@@QAEXXZ 10003760 f i dxWallMarkArray.obj
 0001:000027a0       ?capacity@?$vector@V?$resptr_core@UShader@@Uresptrcode_shader@@@@V?$xalloc@V?$resptr_core@UShader@@Uresptrcode_shader@@@@@@@std@@QBEIXZ 100037a0 f i dxWallMarkArray.obj
 0001:000027b0       ?size@?$vector@V?$resptr_core@UShader@@Uresptrcode_shader@@@@V?$xalloc@V?$resptr_core@UShader@@Uresptrcode_shader@@@@@@@std@@QBEIXZ 100037b0 f i dxWallMarkArray.obj
 0001:000027c0       ?clear@?$vector@V?$resptr_core@UShader@@Uresptrcode_shader@@@@V?$xalloc@V?$resptr_core@UShader@@Uresptrcode_shader@@@@@@@std@@QAEXXZ 100037c0 f i dxWallMarkArray.obj
 0001:00002800       ?_Buy@?$vector@V?$resptr_core@UShader@@Uresptrcode_shader@@@@V?$xalloc@V?$resptr_core@UShader@@Uresptrcode_shader@@@@@@@std@@IAE_NI@Z 10003800 f i dxWallMarkArray.obj
 0001:00002860       ?_Destroy@?$vector@V?$resptr_core@UShader@@Uresptrcode_shader@@@@V?$xalloc@V?$resptr_core@UShader@@Uresptrcode_shader@@@@@@@std@@IAEXPAV?$resptr_core@UShader@@Uresptrcode_shader@@@@0@Z 10003860 f i dxWallMarkArray.obj
 0001:00002890       ?_Inside@?$vector@V?$resptr_core@UShader@@Uresptrcode_shader@@@@V?$xalloc@V?$resptr_core@UShader@@Uresptrcode_shader@@@@@@@std@@IBE_NPBV?$resptr_core@UShader@@Uresptrcode_shader@@@@@Z 10003890 f i dxWallMarkArray.obj
 0001:000028b0       ?_Reserve@?$vector@V?$resptr_core@UShader@@Uresptrcode_shader@@@@V?$xalloc@V?$resptr_core@UShader@@Uresptrcode_shader@@@@@@@std@@IAEXI@Z 100038b0 f i dxWallMarkArray.obj
 0001:00002930       ?_Tidy@?$vector@V?$resptr_core@UShader@@Uresptrcode_shader@@@@V?$xalloc@V?$resptr_core@UShader@@Uresptrcode_shader@@@@@@@std@@IAEXXZ 10003930 f i dxWallMarkArray.obj
 0001:00002980       ?_Orphan_range@?$vector@V?$resptr_core@UShader@@Uresptrcode_shader@@@@V?$xalloc@V?$resptr_core@UShader@@Uresptrcode_shader@@@@@@@std@@IBEXPAV?$resptr_core@UShader@@Uresptrcode_shader@@@@0@Z 10003980 f i dxWallMarkArray.obj
 0001:00002990       ?_Change_alloc@?$_Vector_alloc@$0A@U?$_Vec_base_types@V?$resptr_core@UShader@@Uresptrcode_shader@@@@V?$xalloc@V?$resptr_core@UShader@@Uresptrcode_shader@@@@@@@std@@@std@@QAEXABU?$_Wrap_alloc@V?$xalloc@V?$resptr_core@UShader@@Uresptrcode_shader@@@@@@@2@@Z 10003990 f i dxWallMarkArray.obj
 0001:000029a0       ?_Getal@?$_Vector_alloc@$0A@U?$_Vec_base_types@V?$resptr_core@UShader@@Uresptrcode_shader@@@@V?$xalloc@V?$resptr_core@UShader@@Uresptrcode_shader@@@@@@@std@@@std@@QBE?AU?$_Wrap_alloc@V?$xalloc@V?$resptr_core@UShader@@Uresptrcode_shader@@@@@@@2@XZ 100039a0 f i dxWallMarkArray.obj
 0001:000029b0       ?deallocate@?$_Wrap_alloc@V?$xalloc@V?$resptr_core@UShader@@Uresptrcode_shader@@@@@@@std@@QAEXPAV?$resptr_core@UShader@@Uresptrcode_shader@@@@I@Z 100039b0 f i dxWallMarkArray.obj
 0001:000029d0       ?pointer_to@?$pointer_traits@PAV?$resptr_core@UShader@@Uresptrcode_shader@@@@@std@@SAPAV?$resptr_core@UShader@@Uresptrcode_shader@@@@AAV3@@Z 100039d0 f i dxWallMarkArray.obj
 0001:000029e0       ??0?$_Vector_iterator@V?$_Vector_val@U?$_Simple_types@V?$resptr_core@UShader@@Uresptrcode_shader@@@@@std@@@std@@@std@@QAE@PAV?$resptr_core@UShader@@Uresptrcode_shader@@@@PBU_Container_base0@1@@Z 100039e0 f i dxWallMarkArray.obj
 0001:000029f0       ??D?$_Vector_iterator@V?$_Vector_val@U?$_Simple_types@V?$resptr_core@UShader@@Uresptrcode_shader@@@@@std@@@std@@@std@@QBEAAV?$resptr_core@UShader@@Uresptrcode_shader@@@@XZ 100039f0 f i dxWallMarkArray.obj
 0001:00002a00       ??H?$_Vector_iterator@V?$_Vector_val@U?$_Simple_types@V?$resptr_core@UShader@@Uresptrcode_shader@@@@@std@@@std@@@std@@QBE?AV01@H@Z 10003a00 f i dxWallMarkArray.obj
 0001:00002a20       ??E?$_Vector_const_iterator@V?$_Vector_val@U?$_Simple_types@V?$resptr_core@UShader@@Uresptrcode_shader@@@@@std@@@std@@@std@@QAEAAV01@XZ 10003a20 f i dxWallMarkArray.obj
 0001:00002a30       ??8?$_Vector_const_iterator@V?$_Vector_val@U?$_Simple_types@V?$resptr_core@UShader@@Uresptrcode_shader@@@@@std@@@std@@@std@@QBE_NABV01@@Z 10003a30 f i dxWallMarkArray.obj
 0001:00002a40       ?_Unused_capacity@?$vector@V?$resptr_core@UShader@@Uresptrcode_shader@@@@V?$xalloc@V?$resptr_core@UShader@@Uresptrcode_shader@@@@@@@std@@QBEIXZ 10003a40 f i dxWallMarkArray.obj
 0001:00002a50       ?max_size@?$vector@V?$resptr_core@UShader@@Uresptrcode_shader@@@@V?$xalloc@V?$resptr_core@UShader@@Uresptrcode_shader@@@@@@@std@@QBEIXZ 10003a50 f i dxWallMarkArray.obj
 0001:00002a60       ?_Grow_to@?$vector@V?$resptr_core@UShader@@Uresptrcode_shader@@@@V?$xalloc@V?$resptr_core@UShader@@Uresptrcode_shader@@@@@@@std@@IBEII@Z 10003a60 f i dxWallMarkArray.obj
 0001:00002aa0       ?_Reallocate@?$vector@V?$resptr_core@UShader@@Uresptrcode_shader@@@@V?$xalloc@V?$resptr_core@UShader@@Uresptrcode_shader@@@@@@@std@@IAEXI@Z 10003aa0 f i dxWallMarkArray.obj
 0001:00002b80       ?_Xlen@?$vector@V?$resptr_core@UShader@@Uresptrcode_shader@@@@V?$xalloc@V?$resptr_core@UShader@@Uresptrcode_shader@@@@@@@std@@IBEXXZ 10003b80 f i dxWallMarkArray.obj
 0001:00002b90       ?deallocate@?$xalloc@V?$resptr_core@UShader@@Uresptrcode_shader@@@@@@QBEXPAV?$resptr_core@UShader@@Uresptrcode_shader@@@@I@Z 10003b90 f i dxWallMarkArray.obj
 0001:00002bb0       ??0?$_Wrap_alloc@V?$xalloc@V?$resptr_core@UShader@@Uresptrcode_shader@@@@@@@std@@QAE@XZ 10003bb0 f i dxWallMarkArray.obj
 0001:00002bc0       ?allocate@?$_Wrap_alloc@V?$xalloc@V?$resptr_core@UShader@@Uresptrcode_shader@@@@@@@std@@QAEPAV?$resptr_core@UShader@@Uresptrcode_shader@@@@I@Z 10003bc0 f i dxWallMarkArray.obj
 0001:00002be0       ??Y?$_Vector_iterator@V?$_Vector_val@U?$_Simple_types@V?$resptr_core@UShader@@Uresptrcode_shader@@@@@std@@@std@@@std@@QAEAAV01@H@Z 10003be0 f i dxWallMarkArray.obj
 0001:00002bf0       ??0?$_Vector_const_iterator@V?$_Vector_val@U?$_Simple_types@V?$resptr_core@UShader@@Uresptrcode_shader@@@@@std@@@std@@@std@@QAE@PAV?$resptr_core@UShader@@Uresptrcode_shader@@@@PBU_Container_base0@1@@Z 10003bf0 f i dxWallMarkArray.obj
 0001:00002c00       ??D?$_Vector_const_iterator@V?$_Vector_val@U?$_Simple_types@V?$resptr_core@UShader@@Uresptrcode_shader@@@@@std@@@std@@@std@@QBEABV?$resptr_core@UShader@@Uresptrcode_shader@@@@XZ 10003c00 f i dxWallMarkArray.obj
 0001:00002c10       ?_Compat@?$_Vector_const_iterator@V?$_Vector_val@U?$_Simple_types@V?$resptr_core@UShader@@Uresptrcode_shader@@@@@std@@@std@@@std@@QBEXABV12@@Z 10003c10 f i dxWallMarkArray.obj
 0001:00002c20       ??0?$xalloc@V?$resptr_core@UShader@@Uresptrcode_shader@@@@@@QAE@XZ 10003c20 f i dxWallMarkArray.obj
 0001:00002c30       ?allocate@?$xalloc@V?$resptr_core@UShader@@Uresptrcode_shader@@@@@@QBEPAV?$resptr_core@UShader@@Uresptrcode_shader@@@@IPBX@Z 10003c30 f i dxWallMarkArray.obj
 0001:00002c50       ?max_size@?$_Wrap_alloc@V?$xalloc@V?$resptr_core@UShader@@Uresptrcode_shader@@@@@@@std@@QBEIXZ 10003c50 f i dxWallMarkArray.obj
 0001:00002c60       ??Y?$_Vector_const_iterator@V?$_Vector_val@U?$_Simple_types@V?$resptr_core@UShader@@Uresptrcode_shader@@@@@std@@@std@@@std@@QAEAAV01@H@Z 10003c60 f i dxWallMarkArray.obj
 0001:00002c70       ?max_size@?$allocator_traits@V?$xalloc@V?$resptr_core@UShader@@Uresptrcode_shader@@@@@@@std@@SAIABV?$xalloc@V?$resptr_core@UShader@@Uresptrcode_shader@@@@@@@Z 10003c70 f i dxWallMarkArray.obj
 0001:00002c80       ??$?9V?$xalloc@V?$resptr_core@UShader@@Uresptrcode_shader@@@@@@V0@@std@@YA_NABU?$_Wrap_alloc@V?$xalloc@V?$resptr_core@UShader@@Uresptrcode_shader@@@@@@@0@0@Z 10003c80 f i dxWallMarkArray.obj
 0001:00002c90       ??$_Copy_impl@PAV?$resptr_core@UShader@@Uresptrcode_shader@@@@PAV1@@std@@YAPAV?$resptr_core@UShader@@Uresptrcode_shader@@@@PAV1@00@Z 10003c90 f i dxWallMarkArray.obj
 0001:00002cb0       ??$_Ucopy@PAV?$resptr_core@UShader@@Uresptrcode_shader@@@@@?$vector@V?$resptr_core@UShader@@Uresptrcode_shader@@@@V?$xalloc@V?$resptr_core@UShader@@Uresptrcode_shader@@@@@@@std@@IAEPAV?$resptr_core@UShader@@Uresptrcode_shader@@@@PAV2@00@Z 10003cb0 f i dxWallMarkArray.obj
 0001:00002cd0       ??$addressof@$$CBV?$resptr_core@UShader@@Uresptrcode_shader@@@@@std@@YAPBV?$resptr_core@UShader@@Uresptrcode_shader@@@@ABV1@@Z 10003cd0 f i dxWallMarkArray.obj
 0001:00002ce0       ??$construct@V?$resptr_core@UShader@@Uresptrcode_shader@@@@AAV1@@?$_Wrap_alloc@V?$xalloc@V?$resptr_core@UShader@@Uresptrcode_shader@@@@@@@std@@QAEXPAV?$resptr_core@UShader@@Uresptrcode_shader@@@@AAV2@@Z 10003ce0 f i dxWallMarkArray.obj
 0001:00002d00       ??$construct@V?$resptr_core@UShader@@Uresptrcode_shader@@@@ABV1@@?$_Wrap_alloc@V?$xalloc@V?$resptr_core@UShader@@Uresptrcode_shader@@@@@@@std@@QAEXPAV?$resptr_core@UShader@@Uresptrcode_shader@@@@ABV2@@Z 10003d00 f i dxWallMarkArray.obj
 0001:00002d20       ??$_Destroy_range@U?$_Wrap_alloc@V?$xalloc@V?$resptr_core@UShader@@Uresptrcode_shader@@@@@@@std@@@std@@YAXPAV?$resptr_core@UShader@@Uresptrcode_shader@@@@0AAU?$_Wrap_alloc@V?$xalloc@V?$resptr_core@UShader@@Uresptrcode_shader@@@@@@@0@@Z 10003d20 f i dxWallMarkArray.obj
 0001:00002d50       ??$addressof@V?$resptr_core@UShader@@Uresptrcode_shader@@@@@std@@YAPAV?$resptr_core@UShader@@Uresptrcode_shader@@@@AAV1@@Z 10003d50 f i dxWallMarkArray.obj
 0001:00002d60       ??$_Umove@PAV?$resptr_core@UShader@@Uresptrcode_shader@@@@@?$vector@V?$resptr_core@UShader@@Uresptrcode_shader@@@@V?$xalloc@V?$resptr_core@UShader@@Uresptrcode_shader@@@@@@@std@@IAEPAV?$resptr_core@UShader@@Uresptrcode_shader@@@@PAV2@00@Z 10003d60 f i dxWallMarkArray.obj
 0001:00002d80       ??$xr_free@V?$resptr_core@UShader@@Uresptrcode_shader@@@@@@YAXAAPAV?$resptr_core@UShader@@Uresptrcode_shader@@@@@Z 10003d80 f i dxWallMarkArray.obj
 0001:00002da0       ??$xr_alloc@V?$resptr_core@UShader@@Uresptrcode_shader@@@@@@YAPAV?$resptr_core@UShader@@Uresptrcode_shader@@@@I@Z 10003da0 f i dxWallMarkArray.obj
 0001:00002dc0       ??$_Fn@V?$xalloc@V?$resptr_core@UShader@@Uresptrcode_shader@@@@@@@_Alloc_max_size@std@@SAIHABV?$xalloc@V?$resptr_core@UShader@@Uresptrcode_shader@@@@@@@Z 10003dc0 f i dxWallMarkArray.obj
 0001:00002dd0       ?max_size@?$xalloc@V?$resptr_core@UShader@@Uresptrcode_shader@@@@@@QBEIXZ 10003dd0 f i dxWallMarkArray.obj
 0001:00002de0       ??$?8V?$xalloc@V?$resptr_core@UShader@@Uresptrcode_shader@@@@@@V0@@std@@YA_NABU?$_Wrap_alloc@V?$xalloc@V?$resptr_core@UShader@@Uresptrcode_shader@@@@@@@0@0@Z 10003de0 f i dxWallMarkArray.obj
 0001:00002df0       ??$_Ptr_cat@V?$resptr_core@UShader@@Uresptrcode_shader@@@@V1@@std@@YA?AU_Nonscalar_ptr_iterator_tag@0@PAV?$resptr_core@UShader@@Uresptrcode_shader@@@@0@Z 10003df0 f i dxWallMarkArray.obj
 0001:00002e00       ??$_Copy_impl@PAV?$resptr_core@UShader@@Uresptrcode_shader@@@@PAV1@@std@@YAPAV?$resptr_core@UShader@@Uresptrcode_shader@@@@PAV1@00U_Nonscalar_ptr_iterator_tag@0@@Z 10003e00 f i dxWallMarkArray.obj
 0001:00002e40       ??$_Uninitialized_copy@PAV?$resptr_core@UShader@@Uresptrcode_shader@@@@PAV1@U?$_Wrap_alloc@V?$xalloc@V?$resptr_core@UShader@@Uresptrcode_shader@@@@@@@std@@@std@@YAPAV?$resptr_core@UShader@@Uresptrcode_shader@@@@PAV1@00AAU?$_Wrap_alloc@V?$xalloc@V?$resptr_core@UShader@@Uresptrcode_shader@@@@@@@0@@Z 10003e40 f i dxWallMarkArray.obj
 0001:00002e60       ??$forward@AAV?$resptr_core@UShader@@Uresptrcode_shader@@@@@std@@YAAAV?$resptr_core@UShader@@Uresptrcode_shader@@@@AAV1@@Z 10003e60 f i dxWallMarkArray.obj
 0001:00002e70       ??$construct@V?$resptr_core@UShader@@Uresptrcode_shader@@@@AAV1@@?$allocator_traits@V?$xalloc@V?$resptr_core@UShader@@Uresptrcode_shader@@@@@@@std@@SAXAAV?$xalloc@V?$resptr_core@UShader@@Uresptrcode_shader@@@@@@PAV?$resptr_core@UShader@@Uresptrcode_shader@@@@AAV3@@Z 10003e70 f i dxWallMarkArray.obj
 0001:00002e90       ??$forward@ABV?$resptr_core@UShader@@Uresptrcode_shader@@@@@std@@YAABV?$resptr_core@UShader@@Uresptrcode_shader@@@@ABV1@@Z 10003e90 f i dxWallMarkArray.obj
 0001:00002ea0       ??$construct@V?$resptr_core@UShader@@Uresptrcode_shader@@@@ABV1@@?$allocator_traits@V?$xalloc@V?$resptr_core@UShader@@Uresptrcode_shader@@@@@@@std@@SAXAAV?$xalloc@V?$resptr_core@UShader@@Uresptrcode_shader@@@@@@PAV?$resptr_core@UShader@@Uresptrcode_shader@@@@ABV3@@Z 10003ea0 f i dxWallMarkArray.obj
 0001:00002ec0       ??$_Destroy_range@U?$_Wrap_alloc@V?$xalloc@V?$resptr_core@UShader@@Uresptrcode_shader@@@@@@@std@@@std@@YAXPAV?$resptr_core@UShader@@Uresptrcode_shader@@@@0AAU?$_Wrap_alloc@V?$xalloc@V?$resptr_core@UShader@@Uresptrcode_shader@@@@@@@0@U_Nonscalar_ptr_iterator_tag@0@@Z 10003ec0 f i dxWallMarkArray.obj
 0001:00002ef0       ??$_Uninitialized_move@PAV?$resptr_core@UShader@@Uresptrcode_shader@@@@PAV1@U?$_Wrap_alloc@V?$xalloc@V?$resptr_core@UShader@@Uresptrcode_shader@@@@@@@std@@@std@@YAPAV?$resptr_core@UShader@@Uresptrcode_shader@@@@PAV1@00AAU?$_Wrap_alloc@V?$xalloc@V?$resptr_core@UShader@@Uresptrcode_shader@@@@@@@0@@Z 10003ef0 f i dxWallMarkArray.obj
 0001:00002f10       ??0?$xalloc@V?$resptr_core@UShader@@Uresptrcode_shader@@@@@@QAE@ABV0@@Z 10003f10 f i dxWallMarkArray.obj
 0001:00002f20       ??$?8V?$resptr_core@UShader@@Uresptrcode_shader@@@@V0@@@YA_NABV?$xalloc@V?$resptr_core@UShader@@Uresptrcode_shader@@@@@@0@Z 10003f20 f i dxWallMarkArray.obj
 0001:00002f30       ??$_Unchecked@PAV?$resptr_core@UShader@@Uresptrcode_shader@@@@@std@@YAPAV?$resptr_core@UShader@@Uresptrcode_shader@@@@PAV1@@Z 10003f30 f i dxWallMarkArray.obj
 0001:00002f40       ??$_Uninit_copy@PAV?$resptr_core@UShader@@Uresptrcode_shader@@@@PAV1@U?$_Wrap_alloc@V?$xalloc@V?$resptr_core@UShader@@Uresptrcode_shader@@@@@@@std@@@std@@YAPAV?$resptr_core@UShader@@Uresptrcode_shader@@@@PAV1@00AAU?$_Wrap_alloc@V?$xalloc@V?$resptr_core@UShader@@Uresptrcode_shader@@@@@@@0@@Z 10003f40 f i dxWallMarkArray.obj
 0001:00002f60       ??$_Rechecked@PAV?$resptr_core@UShader@@Uresptrcode_shader@@@@PAV1@@std@@YAAAPAV?$resptr_core@UShader@@Uresptrcode_shader@@@@AAPAV1@PAV1@@Z 10003f60 f i dxWallMarkArray.obj
 0001:00002f70       ??$_Fn@V?$xalloc@V?$resptr_core@UShader@@Uresptrcode_shader@@@@@@V?$resptr_core@UShader@@Uresptrcode_shader@@@@AAV2@@_Alloc_construct@std@@SAXHAAV?$xalloc@V?$resptr_core@UShader@@Uresptrcode_shader@@@@@@PAV?$resptr_core@UShader@@Uresptrcode_shader@@@@AAV3@@Z 10003f70 f i dxWallMarkArray.obj
 0001:00002f90       ??$_Fn@V?$xalloc@V?$resptr_core@UShader@@Uresptrcode_shader@@@@@@V?$resptr_core@UShader@@Uresptrcode_shader@@@@ABV2@@_Alloc_construct@std@@SAXHAAV?$xalloc@V?$resptr_core@UShader@@Uresptrcode_shader@@@@@@PAV?$resptr_core@UShader@@Uresptrcode_shader@@@@ABV3@@Z 10003f90 f i dxWallMarkArray.obj
 0001:00002fb0       ??$destroy@V?$resptr_core@UShader@@Uresptrcode_shader@@@@@?$_Wrap_alloc@V?$xalloc@V?$resptr_core@UShader@@Uresptrcode_shader@@@@@@@std@@QAEXPAV?$resptr_core@UShader@@Uresptrcode_shader@@@@@Z 10003fb0 f i dxWallMarkArray.obj
 0001:00002fc0       ??$_Uninit_move@PAV?$resptr_core@UShader@@Uresptrcode_shader@@@@PAV1@U?$_Wrap_alloc@V?$xalloc@V?$resptr_core@UShader@@Uresptrcode_shader@@@@@@@std@@@std@@YAPAV?$resptr_core@UShader@@Uresptrcode_shader@@@@PAV1@00AAU?$_Wrap_alloc@V?$xalloc@V?$resptr_core@UShader@@Uresptrcode_shader@@@@@@@0@@Z 10003fc0 f i dxWallMarkArray.obj
 0001:00002fe0       ?construct@?$xalloc@V?$resptr_core@UShader@@Uresptrcode_shader@@@@@@QAEXPAV?$resptr_core@UShader@@Uresptrcode_shader@@@@ABV2@@Z 10003fe0 f i dxWallMarkArray.obj
 0001:00003000       ??$_Uninit_copy@PAV?$resptr_core@UShader@@Uresptrcode_shader@@@@PAV1@V?$xalloc@V?$resptr_core@UShader@@Uresptrcode_shader@@@@@@@std@@YAPAV?$resptr_core@UShader@@Uresptrcode_shader@@@@PAV1@00AAU?$_Wrap_alloc@V?$xalloc@V?$resptr_core@UShader@@Uresptrcode_shader@@@@@@@0@U_Nonscalar_ptr_iterator_tag@0@@Z 10004000 f i dxWallMarkArray.obj
 0001:00003090       ??$destroy@V?$resptr_core@UShader@@Uresptrcode_shader@@@@@?$allocator_traits@V?$xalloc@V?$resptr_core@UShader@@Uresptrcode_shader@@@@@@@std@@SAXAAV?$xalloc@V?$resptr_core@UShader@@Uresptrcode_shader@@@@@@PAV?$resptr_core@UShader@@Uresptrcode_shader@@@@@Z 10004090 f i dxWallMarkArray.obj
 0001:000030a0       ??$_Val_type@PAV?$resptr_core@UShader@@Uresptrcode_shader@@@@@std@@YAPAV?$resptr_core@UShader@@Uresptrcode_shader@@@@PAV1@@Z 100040a0 f i dxWallMarkArray.obj
 0001:000030b0       ??$_Uninit_move@PAV?$resptr_core@UShader@@Uresptrcode_shader@@@@PAV1@V?$xalloc@V?$resptr_core@UShader@@Uresptrcode_shader@@@@@@V1@@std@@YAPAV?$resptr_core@UShader@@Uresptrcode_shader@@@@PAV1@00AAU?$_Wrap_alloc@V?$xalloc@V?$resptr_core@UShader@@Uresptrcode_shader@@@@@@@0@0U_Nonscalar_ptr_iterator_tag@0@@Z 100040b0 f i dxWallMarkArray.obj
 0001:00003140       ??$_Construct@V?$resptr_core@UShader@@Uresptrcode_shader@@@@ABV1@@std@@YAXPAV?$resptr_core@UShader@@Uresptrcode_shader@@@@ABV1@@Z 10004140 f i dxWallMarkArray.obj
 0001:00003150       ??0?$resptr_core@UShader@@Uresptrcode_shader@@@@QAE@ABV0@@Z 10004150 f i dxWallMarkArray.obj
 0001:00003170       ??$_Fn@V?$xalloc@V?$resptr_core@UShader@@Uresptrcode_shader@@@@@@V?$resptr_core@UShader@@Uresptrcode_shader@@@@@_Alloc_destroy@std@@SAXHAAV?$xalloc@V?$resptr_core@UShader@@Uresptrcode_shader@@@@@@PAV?$resptr_core@UShader@@Uresptrcode_shader@@@@@Z 10004170 f i dxWallMarkArray.obj
 0001:00003180       ??$construct@V?$resptr_core@UShader@@Uresptrcode_shader@@@@V1@@?$_Wrap_alloc@V?$xalloc@V?$resptr_core@UShader@@Uresptrcode_shader@@@@@@@std@@QAEXPAV?$resptr_core@UShader@@Uresptrcode_shader@@@@$$QAV2@@Z 10004180 f i dxWallMarkArray.obj
 0001:000031a0       ?destroy@?$xalloc@V?$resptr_core@UShader@@Uresptrcode_shader@@@@@@QAEXPAV?$resptr_core@UShader@@Uresptrcode_shader@@@@@Z 100041a0 f i dxWallMarkArray.obj
 0001:000031b0       ??$forward@V?$resptr_core@UShader@@Uresptrcode_shader@@@@@std@@YA$$QAV?$resptr_core@UShader@@Uresptrcode_shader@@@@AAV1@@Z 100041b0 f i dxWallMarkArray.obj
 0001:000031c0       ??$construct@V?$resptr_core@UShader@@Uresptrcode_shader@@@@V1@@?$allocator_traits@V?$xalloc@V?$resptr_core@UShader@@Uresptrcode_shader@@@@@@@std@@SAXAAV?$xalloc@V?$resptr_core@UShader@@Uresptrcode_shader@@@@@@PAV?$resptr_core@UShader@@Uresptrcode_shader@@@@$$QAV3@@Z 100041c0 f i dxWallMarkArray.obj
 0001:000031e0       ??$_Destroy@V?$resptr_core@UShader@@Uresptrcode_shader@@@@@std@@YAXPAV?$resptr_core@UShader@@Uresptrcode_shader@@@@@Z 100041e0 f i dxWallMarkArray.obj
 0001:000031f0       ??_G?$resptr_core@UShader@@Uresptrcode_shader@@@@QAEPAXI@Z 100041f0 f i dxWallMarkArray.obj
 0001:00003200       ??$_Fn@V?$xalloc@V?$resptr_core@UShader@@Uresptrcode_shader@@@@@@V?$resptr_core@UShader@@Uresptrcode_shader@@@@V2@@_Alloc_construct@std@@SAXHAAV?$xalloc@V?$resptr_core@UShader@@Uresptrcode_shader@@@@@@PAV?$resptr_core@UShader@@Uresptrcode_shader@@@@$$QAV3@@Z 10004200 f i dxWallMarkArray.obj
 0001:00003220       ?DestroyObject@?$FactoryPtr@VIUIShader@@@@AAEXXZ 10004220 f i dxWallMarkArray.obj
 0001:00003240       ?CreateObject@?$FactoryPtr@VIUIShader@@@@AAEXXZ 10004240 f i dxWallMarkArray.obj
 0001:00003260       ?randI@CRandom@@QAEHXZ     10004260 f i dxWallMarkArray.obj
 0001:00003280       ?randI@CRandom@@QAEHH@Z    10004280 f i dxWallMarkArray.obj
 0001:00003290       ?randI@CRandom@@QAEHHH@Z   10004290 f i dxWallMarkArray.obj
 0001:000032b0       ??0?$resptr_core@UShader@@Uresptrcode_shader@@@@QAE@XZ 100042b0 f i dxWallMarkArray.obj
 0001:000032c0       ??1?$resptr_core@UShader@@Uresptrcode_shader@@@@QAE@XZ 100042c0 f i dxWallMarkArray.obj
 0001:000032d0       ?fix_texture_name@@YAXPAD@Z 100042d0 f   Texture.obj
 0001:00003330       ?get_texture_load_lod@@YAHPBD@Z 10004330 f   Texture.obj
 0001:000033c0       ?calc_texture_size@@YAIHII@Z 100043c0 f   Texture.obj
 0001:000034d0       ?Reduce@@YAXAAH000@Z       100044d0 f i Texture.obj
 0001:00003530       ?TW_Save@@YAXPAUIDirect3DTexture9@@PBD11@Z 10004530 f   Texture.obj
 0001:00003630       ?TW_LoadTextureFromTexture@@YAPAUIDirect3DTexture9@@PAU1@AAW4_D3DFORMAT@@HAAI2@Z 10004630 f   Texture.obj
 0001:00003860       ?it_gloss_rev_base@@YAIII@Z 10004860 f i Texture.obj
 0001:000038a0       ?it_difference@@YAIIII@Z   100048a0 f i Texture.obj
 0001:00003930       ?it_height_rev_base@@YAIII@Z 10004930 f i Texture.obj
 0001:00003980       ?texture_load@CRender@@UAEPAUIDirect3DBaseTexture9@@PBDAAI@Z 10004980 f   Texture.obj
 0001:00004550       ?begin@?$vector@UItem@CInifile@@V?$xalloc@UItem@CInifile@@@@@std@@QAE?AV?$_Vector_iterator@V?$_Vector_val@U?$_Simple_types@UItem@CInifile@@@std@@@std@@@2@XZ 10005550 f i Texture.obj
 0001:00004560       ?end@?$vector@UItem@CInifile@@V?$xalloc@UItem@CInifile@@@@@std@@QAE?AV?$_Vector_iterator@V?$_Vector_val@U?$_Simple_types@UItem@CInifile@@@std@@@std@@@2@XZ 10005560 f i Texture.obj
 0001:00004570       ??C?$_Vector_const_iterator@V?$_Vector_val@U?$_Simple_types@UItem@CInifile@@@std@@@std@@@std@@QBEPBUItem@CInifile@@XZ 10005570 f i Texture.obj
 0001:00004580       ??E?$_Vector_const_iterator@V?$_Vector_val@U?$_Simple_types@UItem@CInifile@@@std@@@std@@@std@@QAEAAV01@XZ 10005580 f i Texture.obj
 0001:00004590       ??9?$_Vector_const_iterator@V?$_Vector_val@U?$_Simple_types@UItem@CInifile@@@std@@@std@@@std@@QBE_NABV01@@Z 10005590 f i Texture.obj
 0001:000045a0       ??D?$_Vector_const_iterator@V?$_Vector_val@U?$_Simple_types@UItem@CInifile@@@std@@@std@@@std@@QBEABUItem@CInifile@@XZ 100055a0 f i Texture.obj
 0001:000045b0       ??8?$_Vector_const_iterator@V?$_Vector_val@U?$_Simple_types@UItem@CInifile@@@std@@@std@@@std@@QBE_NABV01@@Z 100055b0 f i Texture.obj
 0001:000045c0       ??0?$_Vector_iterator@V?$_Vector_val@U?$_Simple_types@UItem@CInifile@@@std@@@std@@@std@@QAE@PAUItem@CInifile@@PBU_Container_base0@1@@Z 100055c0 f i Texture.obj
 0001:000045d0       ?pointer_to@?$pointer_traits@PBUItem@CInifile@@@std@@SAPBUItem@CInifile@@ABU34@@Z 100055d0 f i Texture.obj
 0001:000045e0       ??0?$_Vector_const_iterator@V?$_Vector_val@U?$_Simple_types@UItem@CInifile@@@std@@@std@@@std@@QAE@PAUItem@CInifile@@PBU_Container_base0@1@@Z 100055e0 f i Texture.obj
 0001:000045f0       ?_Compat@?$_Vector_const_iterator@V?$_Vector_val@U?$_Simple_types@UItem@CInifile@@@std@@@std@@@std@@QBEXABV12@@Z 100055f0 f i Texture.obj
 0001:00004600       ??$strcpy_s@$0CAI@@@YAHAAY0CAI@DPBD@Z 10005600 f i Texture.obj
 0001:00004620       ??$TW_Iterate_1OP@P6AIII@Z@@YAXPAUIDirect3DTexture9@@0Q6AIII@Z@Z 10005620 f i Texture.obj
 0001:00004750       ??$TW_Iterate_2OP@P6AIIII@Z@@YAXPAUIDirect3DTexture9@@00Q6AIIII@Z@Z 10005750 f i Texture.obj
 0001:000048f0       ??$addressof@$$CBUItem@CInifile@@@std@@YAPBUItem@CInifile@@ABU12@@Z 100058f0 f i Texture.obj
 0001:00004900       ?xr_strcmp@@YAHPBD0@Z      10005900 f i Texture.obj
 0001:00004930       ?strstr@@YAPADPADPBD@Z     10005930 f i Texture.obj
 0001:00004940       ?color_get_A@@YAII@Z       10005940 f i Texture.obj
 0001:00004950       ?color_get_B@@YAII@Z       10005950 f i Texture.obj
 0001:00004960       ?color_get_G@@YAII@Z       10005960 f i Texture.obj
 0001:00004970       ?color_get_R@@YAII@Z       10005970 f i Texture.obj
 0001:00004980       ?color_argb@@YAIIIII@Z     10005980 f i Texture.obj
 0001:000049b0       ?color_rgba@@YAIIIII@Z     100059b0 f i Texture.obj
 0001:000049e0       ?xr_strlen@@YAIPBD@Z       100059e0 f i Texture.obj
 0001:000049f0       ?iFloor@@YAHM@Z            100059f0 f i Texture.obj
 0001:00004a50       ?strext@@YAPADPBD@Z        10005a50 f i Texture.obj
 0001:00004a60       ?getComment@CBlender_accum_direct_cascade@@UAEPBDXZ 10005a60 f i blender_light_direct_cascade.obj
 0001:00004a70       ?canBeDetailed@CBlender_accum_direct_cascade@@UAEHXZ 10005a70 f i blender_light_direct_cascade.obj
 0001:00004a80       ?canBeLMAPped@CBlender_accum_direct_cascade@@UAEHXZ 10005a80 f i blender_light_direct_cascade.obj
 0001:00004a90       ??0CBlender_accum_direct_cascade@@QAE@XZ 10005a90 f   blender_light_direct_cascade.obj
 0001:00004ac0       ??_GCBlender_accum_direct_cascade@@UAEPAXI@Z 10005ac0 f i blender_light_direct_cascade.obj
 0001:00004ac0       ??_ECBlender_accum_direct_cascade@@UAEPAXI@Z 10005ac0 f i * CIL library *:* CIL module *
 0001:00004af0       ??1CBlender_accum_direct_cascade@@UAE@XZ 10005af0 f   blender_light_direct_cascade.obj
 0001:00004b00       ?Compile@CBlender_accum_direct_cascade@@UAEXAAVCBlender_Compile@@@Z 10005b00 f   blender_light_direct_cascade.obj
 0001:00004d10       ?jitter@@YAXAAVCBlender_Compile@@@Z 10005d10 f i blender_light_direct_cascade.obj
 0001:00004da0       ?getComment@CBlender_rain_drops@@UAEPBDXZ 10005da0 f i blender_rain_drops.obj
 0001:00004db0       ?canBeDetailed@CBlender_rain_drops@@UAEHXZ 10005db0 f i blender_rain_drops.obj
 0001:00004dc0       ?canBeLMAPped@CBlender_rain_drops@@UAEHXZ 10005dc0 f i blender_rain_drops.obj
 0001:00004dd0       ??0CBlender_rain_drops@@QAE@XZ 10005dd0 f   blender_rain_drops.obj
 0001:00004e00       ??_GCBlender_rain_drops@@UAEPAXI@Z 10005e00 f i blender_rain_drops.obj
 0001:00004e00       ??_ECBlender_rain_drops@@UAEPAXI@Z 10005e00 f i * CIL library *:* CIL module *
 0001:00004e30       ??1CBlender_rain_drops@@UAE@XZ 10005e30 f   blender_rain_drops.obj
 0001:00004e40       ?Compile@CBlender_rain_drops@@UAEXAAVCBlender_Compile@@@Z 10005e40 f   blender_rain_drops.obj
 0001:00004eb0       ?getComment@CBlender_reflections@@UAEPBDXZ 10005eb0 f i blender_reflections.obj
 0001:00004ec0       ?canBeDetailed@CBlender_reflections@@UAEHXZ 10005ec0 f i blender_reflections.obj
 0001:00004ed0       ?canBeLMAPped@CBlender_reflections@@UAEHXZ 10005ed0 f i blender_reflections.obj
 0001:00004ee0       ??0CBlender_reflections@@QAE@XZ 10005ee0 f   blender_reflections.obj
 0001:00004f10       ??_GCBlender_reflections@@UAEPAXI@Z 10005f10 f i blender_reflections.obj
 0001:00004f10       ??_ECBlender_reflections@@UAEPAXI@Z 10005f10 f i * CIL library *:* CIL module *
 0001:00004f40       ??1CBlender_reflections@@UAE@XZ 10005f40 f   blender_reflections.obj
 0001:00004f50       ?Compile@CBlender_reflections@@UAEXAAVCBlender_Compile@@@Z 10005f50 f   blender_reflections.obj
 0001:00005070       ?getComment@CBlender_SSAO@@UAEPBDXZ 10006070 f i blender_ssao.obj
 0001:00005080       ?canBeDetailed@CBlender_SSAO@@UAEHXZ 10006080 f i blender_ssao.obj
 0001:00005090       ?canBeLMAPped@CBlender_SSAO@@UAEHXZ 10006090 f i blender_ssao.obj
 0001:000050a0       ??0CBlender_SSAO@@QAE@XZ   100060a0 f   blender_ssao.obj
 0001:000050d0       ??_ECBlender_SSAO@@UAEPAXI@Z 100060d0 f i * CIL library *:* CIL module *
 0001:000050d0       ??_GCBlender_SSAO@@UAEPAXI@Z 100060d0 f i blender_ssao.obj
 0001:00005100       ??1CBlender_SSAO@@UAE@XZ   10006100 f   blender_ssao.obj
 0001:00005110       ?Compile@CBlender_SSAO@@UAEXAAVCBlender_Compile@@@Z 10006110 f   blender_ssao.obj
 0001:000051e0       ?phase_rain_drops@CRenderTarget@@QAEXXZ 100061e0 f   r2_rendertarget_phase_rain_drops.obj
 0001:000058b0       ??C?$resptr_core@UShader@@Uresptrcode_shader@@@@QBEPAUShader@@XZ 100068b0 f i r2_rendertarget_phase_rain_drops.obj
 0001:000058c0       ??C?$resptr_core@USGeometry@@Uresptrcode_geom@@@@QBEPAUSGeometry@@XZ 100068c0 f i r2_rendertarget_phase_rain_drops.obj
 0001:000058d0       ??0?$resptr_core@VCRT@@Uresptrcode_crt@@@@QAE@PAVCRT@@_N@Z 100068d0 f i r2_rendertarget_phase_rain_drops.obj
 0001:000058e0       ??1?$resptr_core@VCRT@@Uresptrcode_crt@@@@QAE@XZ 100068e0 f i r2_rendertarget_phase_rain_drops.obj
 0001:000058f0       ?_get@?$resptr_base@USDeclaration@@@@QBEPAUSDeclaration@@XZ 100068f0 f i r2_rendertarget_phase_rain_drops.obj
 0001:00005900       ??D?$resptr_core@USGeometry@@Uresptrcode_geom@@@@QBEAAUSGeometry@@XZ 10006900 f i r2_rendertarget_phase_rain_drops.obj
 0001:00005910       ?set@?$_vector4@M@@QAEAAU1@ABU1@@Z 10006910 f i r2_rendertarget_phase_rain_drops.obj
 0001:00005930       ??A?$svector@U?$_vector4@M@@$0BAA@@@QAEAAU?$_vector4@M@@I@Z 10006930 f i r2_rendertarget_phase_rain_drops.obj
 0001:00005940       ?access@?$R_constant_cache@U?$_vector4@M@@$0BAA@@@QAEPAU?$_vector4@M@@I@Z 10006940 f i r2_rendertarget_phase_rain_drops.obj
 0001:00005950       ?dirty@?$R_constant_cache@U?$_vector4@M@@$0BAA@@@QAEXII@Z 10006950 f i r2_rendertarget_phase_rain_drops.obj
 0001:00005980       ?set@R_constant_array@@QAEXPAUR_constant@@AAUR_constant_load@@ABU?$_vector4@M@@@Z 10006980 f i r2_rendertarget_phase_rain_drops.obj
 0001:000059d0       ??_GR_constant@@QAEPAXI@Z  100069d0 f i r2_rendertarget_phase_rain_drops.obj
 0001:000059e0       ??R?$xr_special_free@$0A@UR_constant@@@@QAEXAAPAUR_constant@@@Z 100069e0 f i r2_rendertarget_phase_rain_drops.obj
 0001:00005a00       ??$xr_delete@UR_constant@@@@YAXAAPAUR_constant@@@Z 10006a00 f i r2_rendertarget_phase_rain_drops.obj
 0001:00005a30       ?_dec@?$resptr_base@UR_constant@@@@IAEXXZ 10006a30 f i r2_rendertarget_phase_rain_drops.obj
 0001:00005a70       ??1?$resptr_core@UR_constant@@V?$resptr_base@UR_constant@@@@@@QAE@XZ 10006a70 f i r2_rendertarget_phase_rain_drops.obj
 0001:00005ab0       ??D?$resptr_core@UR_constant@@V?$resptr_base@UR_constant@@@@@@QBEAAUR_constant@@XZ 10006ab0 f i r2_rendertarget_phase_rain_drops.obj
 0001:00005ac0       ?set@?$_vector4@M@@QAEAAU1@MMMM@Z 10006ac0 f i r2_rendertarget_phase_rain_drops.obj
 0001:00005ae0       ?set@?$_vector2@M@@QAEAAU1@MM@Z 10006ae0 f i r2_rendertarget_phase_rain_drops.obj
 0001:00005af0       ?set@?$_vector3@M@@QAEAAU1@MMM@Z 10006af0 f i r2_rendertarget_phase_rain_drops.obj
 0001:00005b10       ?phase_ssao@CRenderTarget@@QAEXXZ 10006b10 f   r2_rendertarget_phase_ssao.obj
 0001:00006300       ?phase_downsamp@CRenderTarget@@QAEXXZ 10007300 f   r2_rendertarget_phase_ssao.obj
 0001:000067d0       ?invert@?$_matrix@M@@QAEAAU1@ABU1@@Z 100077d0 f i r2_rendertarget_phase_ssao.obj
 0001:00006a20       ?set@R_constant_array@@QAEXPAUR_constant@@AAUR_constant_load@@ABU?$_matrix@M@@@Z 10007a20 f i r2_rendertarget_phase_ssao.obj
 0001:00006c00       ?set@TL@FVF@@QAEXMMMMIMM@Z 10007c00 f i r2_rendertarget_phase_ssao.obj
 0001:00006c40       ??$deg2rad@M@implement@@YAMM@Z 10007c40 f i r2_rendertarget_phase_ssao.obj
 0001:00006c60       ?deg2rad@@YAMM@Z           10007c60 f i r2_rendertarget_phase_ssao.obj
 0001:00006c80       _tanf                      10007c80 f i r2_rendertarget_phase_ssao.obj
 0001:00006c90       ?tan@@YAMM@Z               10007c90 f i r2_rendertarget_phase_ssao.obj
 0001:00006ca0       ?phase_wet_reflections@CRenderTarget@@QAEXXZ 10007ca0 f   r2_rendertarget_phase_wet_reflections.obj
 0001:00006d10       ?phase_wet_rain@CRenderTarget@@QAEXXZ 10007d10 f   r2_rendertarget_phase_wet_reflections.obj
 0001:00006d80       ?test@?$_flags@I@@QBEHI@Z  10007d80 f i r2_rendertarget_phase_wet_reflections.obj
 0001:00006d90       _hypot                     10007d90 f i stdafx.obj
 0001:00006dc0       ?length@?$char_traits@D@std@@SAIPBD@Z 10007dc0 f i stdafx.obj
 0001:00006de0       ?copy@?$char_traits@D@std@@SAPADPADPBDI@Z 10007de0 f i stdafx.obj
 0001:00006e00       ?move@?$char_traits@D@std@@SAPADPADPBDI@Z 10007e00 f i stdafx.obj
 0001:00006e20       ?assign@?$char_traits@D@std@@SAXAADABD@Z 10007e20 f i stdafx.obj
 0001:00006e30       ??0_Ignore@std@@QAE@XZ     10007e30 f i stdafx.obj
 0001:00006e40       ??0error_category@std@@QAE@XZ 10007e40 f i stdafx.obj
 0001:00006e50       ??1error_category@std@@UAE@XZ 10007e50 f i stdafx.obj
 0001:00006e60       ??8error_category@std@@QBE_NABV01@@Z 10007e60 f i stdafx.obj
 0001:00006e70       ??_Gerror_category@std@@UAEPAXI@Z 10007e70 f i stdafx.obj
 0001:00006e70       ??_Eerror_category@std@@UAEPAXI@Z 10007e70 f i * CIL library *:* CIL module *
 0001:00006ea0       ?value@error_code@std@@QBEHXZ 10007ea0 f i stdafx.obj
 0001:00006eb0       ?category@error_code@std@@QBEABVerror_category@2@XZ 10007eb0 f i stdafx.obj
 0001:00006ec0       ??0error_condition@std@@QAE@HABVerror_category@1@@Z 10007ec0 f i stdafx.obj
 0001:00006ee0       ?value@error_condition@std@@QBEHXZ 10007ee0 f i stdafx.obj
 0001:00006ef0       ?category@error_condition@std@@QBEABVerror_category@2@XZ 10007ef0 f i stdafx.obj
 0001:00006f00       ??8error_condition@std@@QBE_NABV01@@Z 10007f00 f i stdafx.obj
 0001:00006f20       ?default_error_condition@error_category@std@@UBE?AVerror_condition@2@H@Z 10007f20 f i stdafx.obj
 0001:00006f30       ?equivalent@error_category@std@@UBE_NHABVerror_condition@2@@Z 10007f30 f i stdafx.obj
 0001:00006f70       ?equivalent@error_category@std@@UBE_NABVerror_code@2@H@Z 10007f70 f i stdafx.obj
 0001:00006f90       ??0_Generic_error_category@std@@QAE@XZ 10007f90 f i stdafx.obj
 0001:00006fa0       ?name@_Generic_error_category@std@@UBEPBDXZ 10007fa0 f i stdafx.obj
 0001:00006fb0       ?message@_Generic_error_category@std@@UBE?AV?$basic_string@DU?$char_traits@D@std@@V?$allocator@D@2@@2@H@Z 10007fb0 f i stdafx.obj
 0001:00007020       ??_G_Generic_error_category@std@@UAEPAXI@Z 10008020 f i stdafx.obj
 0001:00007020       ??_E_Generic_error_category@std@@UAEPAXI@Z 10008020 f i * CIL library *:* CIL module *
 0001:00007050       ??1_Generic_error_category@std@@UAE@XZ 10008050 f i stdafx.obj
 0001:00007060       ??0_Iostream_error_category@std@@QAE@XZ 10008060 f i stdafx.obj
 0001:00007070       ?name@_Iostream_error_category@std@@UBEPBDXZ 10008070 f i stdafx.obj
 0001:00007080       ?message@_Iostream_error_category@std@@UBE?AV?$basic_string@DU?$char_traits@D@std@@V?$allocator@D@2@@2@H@Z 10008080 f i stdafx.obj
 0001:000070c0       ??_G_Iostream_error_category@std@@UAEPAXI@Z 100080c0 f i stdafx.obj
 0001:000070c0       ??_E_Iostream_error_category@std@@UAEPAXI@Z 100080c0 f i * CIL library *:* CIL module *
 0001:000070f0       ??1_Iostream_error_category@std@@UAE@XZ 100080f0 f i stdafx.obj
 0001:00007100       ??0_System_error_category@std@@QAE@XZ 10008100 f i stdafx.obj
 0001:00007110       ?name@_System_error_category@std@@UBEPBDXZ 10008110 f i stdafx.obj
 0001:00007120       ?message@_System_error_category@std@@UBE?AV?$basic_string@DU?$char_traits@D@std@@V?$allocator@D@2@@2@H@Z 10008120 f i stdafx.obj
 0001:00007190       ?default_error_condition@_System_error_category@std@@UBE?AVerror_condition@2@H@Z 10008190 f i stdafx.obj
 0001:000071c0       ??_E_System_error_category@std@@UAEPAXI@Z 100081c0 f i * CIL library *:* CIL module *
 0001:000071c0       ??_G_System_error_category@std@@UAEPAXI@Z 100081c0 f i stdafx.obj
 0001:000071f0       ??1_System_error_category@std@@UAE@XZ 100081f0 f i stdafx.obj
 0001:00007200       ?generic_category@std@@YAABVerror_category@1@XZ 10008200 f i stdafx.obj
 0001:00007210       ?system_category@std@@YAABVerror_category@1@XZ 10008210 f i stdafx.obj
 0001:00007220       ??2@YAPAXI@Z               10008220 f i stdafx.obj
 0001:00007240       ??0?$basic_string@DU?$char_traits@D@std@@V?$allocator@D@2@@std@@QAE@PBD@Z 10008240 f i stdafx.obj
 0001:00007290       ??1?$basic_string@DU?$char_traits@D@std@@V?$allocator@D@2@@std@@QAE@XZ 10008290 f i stdafx.obj
 0001:000072c0       ?assign@?$basic_string@DU?$char_traits@D@std@@V?$allocator@D@2@@std@@QAEAAV12@ABV12@II@Z 100082c0 f i stdafx.obj
 0001:00007380       ?assign@?$basic_string@DU?$char_traits@D@std@@V?$allocator@D@2@@std@@QAEAAV12@PBD@Z 10008380 f i stdafx.obj
 0001:000073c0       ?size@?$basic_string@DU?$char_traits@D@std@@V?$allocator@D@2@@std@@QBEIXZ 100083c0 f i stdafx.obj
 0001:000073d0       ?_Tidy@?$basic_string@DU?$char_traits@D@std@@V?$allocator@D@2@@std@@QAEX_NI@Z 100083d0 f i stdafx.obj
 0001:00007420       ??0?$allocator@D@std@@QAE@XZ 10008420 f i stdafx.obj
 0001:00007430       ??0?$_String_alloc@$0A@U?$_String_base_types@DV?$allocator@D@std@@@std@@@std@@QAE@ABV?$allocator@D@1@@Z 10008430 f i stdafx.obj
 0001:00007450       ?_Getal@?$_String_alloc@$0A@U?$_String_base_types@DV?$allocator@D@std@@@std@@@std@@QBE?AU?$_Wrap_alloc@V?$allocator@D@std@@@2@XZ 10008450 f i stdafx.obj
 0001:00007460       ?_Myptr@?$_String_val@U?$_Simple_types@D@std@@@std@@QAEPADXZ 10008460 f i stdafx.obj
 0001:00007470       ?_Myptr@?$_String_val@U?$_Simple_types@D@std@@@std@@QBEPBDXZ 10008470 f i stdafx.obj
 0001:00007480       ?assign@?$basic_string@DU?$char_traits@D@std@@V?$allocator@D@2@@std@@QAEAAV12@PBDI@Z 10008480 f i stdafx.obj
 0001:00007540       ?erase@?$basic_string@DU?$char_traits@D@std@@V?$allocator@D@2@@std@@QAEAAV12@I@Z 10008540 f i stdafx.obj
 0001:00007580       ?erase@?$basic_string@DU?$char_traits@D@std@@V?$allocator@D@2@@std@@QAEAAV12@II@Z 10008580 f i stdafx.obj
 0001:00007600       ?_Eos@?$basic_string@DU?$char_traits@D@std@@V?$allocator@D@2@@std@@QAEXI@Z 10008600 f i stdafx.obj
 0001:00007620       ?_Grow@?$basic_string@DU?$char_traits@D@std@@V?$allocator@D@2@@std@@QAE_NI_N@Z 10008620 f i stdafx.obj
 0001:00007670       ?_Inside@?$basic_string@DU?$char_traits@D@std@@V?$allocator@D@2@@std@@QAE_NPBD@Z 10008670 f i stdafx.obj
 0001:000076b0       ?_Xlen@?$basic_string@DU?$char_traits@D@std@@V?$allocator@D@2@@std@@QBEXXZ 100086b0 f i stdafx.obj
 0001:000076c0       ?_Xran@?$basic_string@DU?$char_traits@D@std@@V?$allocator@D@2@@std@@QBEXXZ 100086c0 f i stdafx.obj
 0001:000076d0       ??0?$_Wrap_alloc@V?$allocator@D@std@@@std@@QAE@XZ 100086d0 f i stdafx.obj
 0001:000076e0       ?deallocate@?$_Wrap_alloc@V?$allocator@D@std@@@std@@QAEXPADI@Z 100086e0 f i stdafx.obj
 0001:00007700       ??0?$_String_val@U?$_Simple_types@D@std@@@std@@QAE@XZ 10008700 f i stdafx.obj
 0001:00007720       ?max_size@?$basic_string@DU?$char_traits@D@std@@V?$allocator@D@2@@std@@QBEIXZ 10008720 f i stdafx.obj
 0001:00007730       ?_Copy@?$basic_string@DU?$char_traits@D@std@@V?$allocator@D@2@@std@@QAEXII@Z 10008730 f i stdafx.obj
 0001:00007880       ?deallocate@?$allocator@D@std@@QAEXPADI@Z 10008880 f i stdafx.obj
 0001:000078a0       ?allocate@?$_Wrap_alloc@V?$allocator@D@std@@@std@@QAEPADI@Z 100088a0 f i stdafx.obj
 0001:000078d0       ?max_size@?$_Wrap_alloc@V?$allocator@D@std@@@std@@QBEIXZ 100088d0 f i stdafx.obj
 0001:000078e0       ?allocate@?$allocator@D@std@@QAEPADI@Z 100088e0 f i stdafx.obj
 0001:00007910       ?max_size@?$allocator_traits@V?$allocator@D@std@@@std@@SAIABV?$allocator@D@2@@Z 10008910 f i stdafx.obj
 0001:00007920       ?max_size@?$allocator@D@std@@QBEIXZ 10008920 f i stdafx.obj
 0001:00007930       ??$construct@PADAAPAD@?$_Wrap_alloc@V?$allocator@D@std@@@std@@QAEXPAPADAAPAD@Z 10008930 f i stdafx.obj
 0001:00007950       ??$destroy@PAD@?$_Wrap_alloc@V?$allocator@D@std@@@std@@QAEXPAPAD@Z 10008950 f i stdafx.obj
 0001:00007960       ??$addressof@D@std@@YAPADAAD@Z 10008960 f i stdafx.obj
 0001:00007970       ??$_Allocate@D@std@@YAPADIPAD@Z 10008970 f i stdafx.obj
 0001:000079a0       ??$forward@AAPAD@std@@YAAAPADAAPAD@Z 100089a0 f i stdafx.obj
 0001:000079b0       ??$construct@PADAAPAD@?$allocator_traits@V?$allocator@D@std@@@std@@SAXAAV?$allocator@D@1@PAPADAAPAD@Z 100089b0 f i stdafx.obj
 0001:000079c0       ??$destroy@PAD@?$allocator_traits@V?$allocator@D@std@@@std@@SAXAAV?$allocator@D@1@PAPAD@Z 100089c0 f i stdafx.obj
 0001:000079d0       ??$construct@PADAAPAD@?$allocator@D@std@@QAEXPAPADAAPAD@Z 100089d0 f i stdafx.obj
 0001:000079f0       ??$destroy@PAD@?$allocator@D@std@@QAEXPAPAD@Z 100089f0 f i stdafx.obj
 0001:00007a00       ?apply@CCC_detail_radius@@QAEXXZ 10008a00 f i xrRender_console.obj
 0001:00007ac0       ??0CCC_detail_radius@@QAE@PBDPAHHH@Z 10008ac0 f i xrRender_console.obj
 0001:00007af0       ?Execute@CCC_detail_radius@@UAEXPBD@Z 10008af0 f i xrRender_console.obj
 0001:00007b10       ?Status@CCC_detail_radius@@UAEXAAY0BAA@D@Z 10008b10 f i xrRender_console.obj
 0001:00007b20       ??_ECCC_detail_radius@@UAEPAXI@Z 10008b20 f i * CIL library *:* CIL module *
 0001:00007b20       ??_GCCC_detail_radius@@UAEPAXI@Z 10008b20 f i xrRender_console.obj
 0001:00007b50       ??1CCC_detail_radius@@UAE@XZ 10008b50 f i xrRender_console.obj
 0001:00007b60       ?apply@CCC_tf_Aniso@@QAEXXZ 10008b60 f i xrRender_console.obj
 0001:00007bc0       ??0CCC_tf_Aniso@@QAE@PBDPAH@Z 10008bc0 f i xrRender_console.obj
 0001:00007bf0       ?Execute@CCC_tf_Aniso@@UAEXPBD@Z 10008bf0 f i xrRender_console.obj
 0001:00007c10       ?Status@CCC_tf_Aniso@@UAEXAAY0BAA@D@Z 10008c10 f i xrRender_console.obj
 0001:00007c30       ??_ECCC_tf_Aniso@@UAEPAXI@Z 10008c30 f i * CIL library *:* CIL module *
 0001:00007c30       ??_GCCC_tf_Aniso@@UAEPAXI@Z 10008c30 f i xrRender_console.obj
 0001:00007c60       ??1CCC_tf_Aniso@@UAE@XZ    10008c60 f i xrRender_console.obj
 0001:00007c70       ?apply@CCC_tf_MipBias@@QAEXXZ 10008c70 f i xrRender_console.obj
 0001:00007cc0       ??0CCC_tf_MipBias@@QAE@PBDPAM@Z 10008cc0 f i xrRender_console.obj
 0001:00007cf0       ?Execute@CCC_tf_MipBias@@UAEXPBD@Z 10008cf0 f i xrRender_console.obj
 0001:00007d10       ?Status@CCC_tf_MipBias@@UAEXAAY0BAA@D@Z 10008d10 f i xrRender_console.obj
 0001:00007d30       ??_GCCC_tf_MipBias@@UAEPAXI@Z 10008d30 f i xrRender_console.obj
 0001:00007d30       ??_ECCC_tf_MipBias@@UAEPAXI@Z 10008d30 f i * CIL library *:* CIL module *
 0001:00007d60       ??1CCC_tf_MipBias@@UAE@XZ  10008d60 f i xrRender_console.obj
 0001:00007d70       ??0CCC_R2GM@@QAE@PBDPAM@Z  10008d70 f i xrRender_console.obj
 0001:00007dc0       ?Execute@CCC_R2GM@@UAEXPBD@Z 10008dc0 f i xrRender_console.obj
 0001:00007f60       ??_GCCC_R2GM@@UAEPAXI@Z    10008f60 f i xrRender_console.obj
 0001:00007f60       ??_ECCC_R2GM@@UAEPAXI@Z    10008f60 f i * CIL library *:* CIL module *
 0001:00007f90       ??1CCC_R2GM@@UAE@XZ        10008f90 f i xrRender_console.obj
 0001:00007fa0       ??0CCC_Screenshot@@QAE@PBD@Z 10008fa0 f i xrRender_console.obj
 0001:00007fd0       ?Execute@CCC_Screenshot@@UAEXPBD@Z 10008fd0 f i xrRender_console.obj
 0001:00008040       ??_ECCC_Screenshot@@UAEPAXI@Z 10009040 f i * CIL library *:* CIL module *
 0001:00008040       ??_GCCC_Screenshot@@UAEPAXI@Z 10009040 f i xrRender_console.obj
 0001:00008070       ??1CCC_Screenshot@@UAE@XZ  10009070 f i xrRender_console.obj
 0001:00008080       ??0CCC_RestoreQuadIBData@@QAE@PBD@Z 10009080 f i xrRender_console.obj
 0001:000080b0       ?Execute@CCC_RestoreQuadIBData@@UAEXPBD@Z 100090b0 f i xrRender_console.obj
 0001:000080c0       ??_GCCC_RestoreQuadIBData@@UAEPAXI@Z 100090c0 f i xrRender_console.obj
 0001:000080c0       ??_ECCC_RestoreQuadIBData@@UAEPAXI@Z 100090c0 f i * CIL library *:* CIL module *
 0001:000080f0       ??1CCC_RestoreQuadIBData@@UAE@XZ 100090f0 f i xrRender_console.obj
 0001:00008100       ??0CCC_SSAO_Mode@@QAE@PBDPAIPAUxr_token@@@Z 10009100 f i xrRender_console.obj
 0001:00008130       ?Execute@CCC_SSAO_Mode@@UAEXPBD@Z 10009130 f i xrRender_console.obj
 0001:000081f0       ??_GCCC_SSAO_Mode@@UAEPAXI@Z 100091f0 f i xrRender_console.obj
 0001:000081f0       ??_ECCC_SSAO_Mode@@UAEPAXI@Z 100091f0 f i * CIL library *:* CIL module *
 0001:00008220       ??1CCC_SSAO_Mode@@UAE@XZ   10009220 f i xrRender_console.obj
 0001:00008230       ??0CCC_Preset@@QAE@PBDPAIPAUxr_token@@@Z 10009230 f i xrRender_console.obj
 0001:00008260       ?Execute@CCC_Preset@@UAEXPBD@Z 10009260 f i xrRender_console.obj
 0001:00008330       ??_ECCC_Preset@@UAEPAXI@Z  10009330 f i * CIL library *:* CIL module *
 0001:00008330       ??_GCCC_Preset@@UAEPAXI@Z  10009330 f i xrRender_console.obj
 0001:00008360       ??1CCC_Preset@@UAE@XZ      10009360 f i xrRender_console.obj
 0001:00008370       ??0CCC_PP@@QAE@PBDPAIPAUxr_token@@PAU?$_flags@I@@I@Z 10009370 f i xrRender_console.obj
 0001:000083b0       ?Execute@CCC_PP@@UAEXPBD@Z 100093b0 f i xrRender_console.obj
 0001:00008410       ??_GCCC_PP@@UAEPAXI@Z      10009410 f i xrRender_console.obj
 0001:00008410       ??_ECCC_PP@@UAEPAXI@Z      10009410 f i * CIL library *:* CIL module *
 0001:00008440       ??1CCC_PP@@UAE@XZ          10009440 f i xrRender_console.obj
 0001:00008450       ??0CCC_memory_stats@@QAE@PBD@Z 10009450 f i xrRender_console.obj
 0001:00008480       ?Execute@CCC_memory_stats@@UAEXPBD@Z 10009480 f i xrRender_console.obj
 0001:000087c0       ??_ECCC_memory_stats@@UAEPAXI@Z 100097c0 f i * CIL library *:* CIL module *
 0001:000087c0       ??_GCCC_memory_stats@@UAEPAXI@Z 100097c0 f i xrRender_console.obj
 0001:000087f0       ??1CCC_memory_stats@@UAE@XZ 100097f0 f i xrRender_console.obj
 0001:00008800       ??0CCC_DofFar@@QAE@PBDPAMMM@Z 10009800 f i xrRender_console.obj
 0001:00008840       ?Execute@CCC_DofFar@@UAEXPBD@Z 10009840 f i xrRender_console.obj
 0001:00008900       ?Save@CCC_DofFar@@UAEXPAVIWriter@@@Z 10009900 f i xrRender_console.obj
 0001:00008910       ??_GCCC_DofFar@@UAEPAXI@Z  10009910 f i xrRender_console.obj
 0001:00008910       ??_ECCC_DofFar@@UAEPAXI@Z  10009910 f i * CIL library *:* CIL module *
 0001:00008940       ??1CCC_DofFar@@UAE@XZ      10009940 f i xrRender_console.obj
 0001:00008950       ??0CCC_DofNear@@QAE@PBDPAMMM@Z 10009950 f i xrRender_console.obj
 0001:00008990       ?Execute@CCC_DofNear@@UAEXPBD@Z 10009990 f i xrRender_console.obj
 0001:00008a50       ?Save@CCC_DofNear@@UAEXPAVIWriter@@@Z 10009a50 f i xrRender_console.obj
 0001:00008a60       ??_ECCC_DofNear@@UAEPAXI@Z 10009a60 f i * CIL library *:* CIL module *
 0001:00008a60       ??_GCCC_DofNear@@UAEPAXI@Z 10009a60 f i xrRender_console.obj
 0001:00008a90       ??1CCC_DofNear@@UAE@XZ     10009a90 f i xrRender_console.obj
 0001:00008aa0       ??0CCC_DofFocus@@QAE@PBDPAMMM@Z 10009aa0 f i xrRender_console.obj
 0001:00008ae0       ?Execute@CCC_DofFocus@@UAEXPBD@Z 10009ae0 f i xrRender_console.obj
 0001:00008bf0       ?Save@CCC_DofFocus@@UAEXPAVIWriter@@@Z 10009bf0 f i xrRender_console.obj
 0001:00008c00       ??_GCCC_DofFocus@@UAEPAXI@Z 10009c00 f i xrRender_console.obj
 0001:00008c00       ??_ECCC_DofFocus@@UAEPAXI@Z 10009c00 f i * CIL library *:* CIL module *
 0001:00008c30       ??1CCC_DofFocus@@UAE@XZ    10009c30 f i xrRender_console.obj
 0001:00008c40       ??0CCC_Dof@@QAE@PBDPAU?$_vector3@M@@U1@2@Z 10009c40 f i xrRender_console.obj
 0001:00008ca0       ?Execute@CCC_Dof@@UAEXPBD@Z 10009ca0 f i xrRender_console.obj
 0001:00008d60       ?Status@CCC_Dof@@UAEXAAY0BAA@D@Z 10009d60 f i xrRender_console.obj
 0001:00008db0       ?Info@CCC_Dof@@UAEXAAY0BAA@D@Z 10009db0 f i xrRender_console.obj
 0001:00008e30       ??_GCCC_Dof@@UAEPAXI@Z     10009e30 f i xrRender_console.obj
 0001:00008e30       ??_ECCC_Dof@@UAEPAXI@Z     10009e30 f i * CIL library *:* CIL module *
 0001:00008e60       ??1CCC_Dof@@UAE@XZ         10009e60 f i xrRender_console.obj
 0001:00008e70       ?xrRender_initconsole@@YAXXZ 10009e70 f   xrRender_console.obj
 0001:0000b330       ?xrRender_apply_tf@@YAXXZ  1000c330 f   xrRender_console.obj
 0001:0000b360       ??$sprintf_s@$0BAA@@@YAHAAY0BAA@DPBDZZ 1000c360 f i xrRender_console.obj
 0001:0000b380       ??$clamp@H@@YAXAAHABH1@Z   1000c380 f i xrRender_console.obj
 0001:0000b390       ?set@?$_flags@I@@QAEAAU1@IH@Z 1000c390 f i xrRender_console.obj
 0001:0000b3b0       _DllMain@12                1000c3b0 f   xrRender_R2.obj
 0001:0000b3e0       _SupportsAdvancedRendering 1000c3e0 f   xrRender_R2.obj
 0001:0000b450       ?ped_sort_pred@@YA_NPBVCPEDef@PS@@0@Z 1000c450 f   PSLibrary.obj
 0001:0000b4b0       ?pgd_sort_pred@@YA_NPBVCPGDef@PS@@0@Z 1000c4b0 f   PSLibrary.obj
 0001:0000b510       ?ped_find_pred@@YA_NPBVCPEDef@PS@@PBD@Z 1000c510 f   PSLibrary.obj
 0001:0000b560       ?pgd_find_pred@@YA_NPBVCPGDef@PS@@PBD@Z 1000c560 f   PSLibrary.obj
 0001:0000b5b0       ?OnCreate@CPSLibrary@@QAEXXZ 1000c5b0 f   PSLibrary.obj
 0001:0000b5f0       ?OnDestroy@CPSLibrary@@QAEXXZ 1000c5f0 f   PSLibrary.obj
 0001:0000b6e0       ?FindPEDIt@CPSLibrary@@QAE?AV?$_Vector_iterator@V?$_Vector_val@U?$_Simple_types@PAVCPEDef@PS@@@std@@@std@@@std@@PBD@Z 1000c6e0 f   PSLibrary.obj
 0001:0000b770       ?FindPED@CPSLibrary@@QAEPAVCPEDef@PS@@PBD@Z 1000c770 f   PSLibrary.obj
 0001:0000b7a0       ?FindPGDIt@CPSLibrary@@QAE?AV?$_Vector_iterator@V?$_Vector_val@U?$_Simple_types@PAVCPGDef@PS@@@std@@@std@@@std@@PBD@Z 1000c7a0 f   PSLibrary.obj
 0001:0000b830       ?FindPGD@CPSLibrary@@QAEPAVCPGDef@PS@@PBD@Z 1000c830 f   PSLibrary.obj
 0001:0000b860       ?RenamePED@CPSLibrary@@QAEXPAVCPEDef@PS@@PBD@Z 1000c860 f   PSLibrary.obj
 0001:0000b8e0       ?RenamePGD@CPSLibrary@@QAEXPAVCPGDef@PS@@PBD@Z 1000c8e0 f   PSLibrary.obj
 0001:0000b960       ?Remove@CPSLibrary@@QAEXPBD@Z 1000c960 f   PSLibrary.obj
 0001:0000ba30       ?Load2@CPSLibrary@@QAE_NXZ 1000ca30 f   PSLibrary.obj
 0001:0000be80       ??0?$xr_set@UFS_File@@U?$less@UFS_File@@@std@@V?$xalloc@UFS_File@@@@@@QAE@XZ 1000ce80 f i PSLibrary.obj
 0001:0000bea0       ??1?$xr_set@UFS_File@@U?$less@UFS_File@@@std@@V?$xalloc@UFS_File@@@@@@QAE@XZ 1000cea0 f i PSLibrary.obj
 0001:0000bed0       ??1?$set@UFS_File@@U?$less@UFS_File@@@std@@V?$xalloc@UFS_File@@@@@std@@QAE@XZ 1000ced0 f i PSLibrary.obj
 0001:0000bf00       ?Load@CPSLibrary@@QAE_NPBD@Z 1000cf00 f   PSLibrary.obj
 0001:0000c270       ?Reload@CPSLibrary@@QAEXXZ 1000d270 f   PSLibrary.obj
 0001:0000c2c0       ?particles_group_begin@CPSLibrary@@UBEPBQBVCPGDef@PS@@XZ 1000d2c0 f   PSLibrary.obj
 0001:0000c2e0       ?particles_group_end@CPSLibrary@@UBEPBQBVCPGDef@PS@@XZ 1000d2e0 f   PSLibrary.obj
 0001:0000c300       ?particles_group_next@CPSLibrary@@UBEXAAPBQBVCPGDef@PS@@@Z 1000d300 f   PSLibrary.obj
 0001:0000c310       ?particles_group_id@CPSLibrary@@UBEABVshared_str@@ABVCPGDef@PS@@@Z 1000d310 f   PSLibrary.obj
 0001:0000c320       ?size@?$xr_set@UFS_File@@U?$less@UFS_File@@@std@@V?$xalloc@UFS_File@@@@@@QBEIXZ 1000d320 f i PSLibrary.obj
 0001:0000c330       ??0?$set@UFS_File@@U?$less@UFS_File@@@std@@V?$xalloc@UFS_File@@@@@std@@QAE@XZ 1000d330 f i PSLibrary.obj
 0001:0000c350       ??1?$_Tree@V?$_Tset_traits@UFS_File@@U?$less@UFS_File@@@std@@V?$xalloc@UFS_File@@@@$0A@@std@@@std@@QAE@XZ 1000d350 f i PSLibrary.obj
 0001:0000c380       ?begin@?$_Tree@V?$_Tset_traits@UFS_File@@U?$less@UFS_File@@@std@@V?$xalloc@UFS_File@@@@$0A@@std@@@std@@QAE?AV?$_Tree_const_iterator@V?$_Tree_val@U?$_Tree_simple_types@UFS_File@@@std@@@std@@@2@XZ 1000d380 f i PSLibrary.obj
 0001:0000c390       ?end@?$_Tree@V?$_Tset_traits@UFS_File@@U?$less@UFS_File@@@std@@V?$xalloc@UFS_File@@@@$0A@@std@@@std@@QAE?AV?$_Tree_const_iterator@V?$_Tree_val@U?$_Tree_simple_types@UFS_File@@@std@@@std@@@2@XZ 1000d390 f i PSLibrary.obj
 0001:0000c3a0       ?clear@?$xr_vector@PAVCPEDef@PS@@V?$xalloc@PAVCPEDef@PS@@@@@@QAEXXZ 1000d3a0 f i PSLibrary.obj
 0001:0000c3b0       ?push_back@?$vector@PAVCPEDef@PS@@V?$xalloc@PAVCPEDef@PS@@@@@std@@QAEXABQAVCPEDef@PS@@@Z 1000d3b0 f i PSLibrary.obj
 0001:0000c410       ?erase@?$vector@PAVCPEDef@PS@@V?$xalloc@PAVCPEDef@PS@@@@@std@@QAE?AV?$_Vector_iterator@V?$_Vector_val@U?$_Simple_types@PAVCPEDef@PS@@@std@@@std@@@2@V?$_Vector_const_iterator@V?$_Vector_val@U?$_Simple_types@PAVCPEDef@PS@@@std@@@std@@@2@@Z 1000d410 f i PSLibrary.obj
 0001:0000c450       ?size@?$xr_vector@PAVCPGDef@PS@@V?$xalloc@PAVCPGDef@PS@@@@@@QBEIXZ 1000d450 f i PSLibrary.obj
 0001:0000c460       ?clear@?$xr_vector@PAVCPGDef@PS@@V?$xalloc@PAVCPGDef@PS@@@@@@QAEXXZ 1000d460 f i PSLibrary.obj
 0001:0000c470       ?begin@?$vector@PAVCPGDef@PS@@V?$xalloc@PAVCPGDef@PS@@@@@std@@QBE?AV?$_Vector_const_iterator@V?$_Vector_val@U?$_Simple_types@PAVCPGDef@PS@@@std@@@std@@@2@XZ 1000d470 f i PSLibrary.obj
 0001:0000c480       ?end@?$vector@PAVCPGDef@PS@@V?$xalloc@PAVCPGDef@PS@@@@@std@@QBE?AV?$_Vector_const_iterator@V?$_Vector_val@U?$_Simple_types@PAVCPGDef@PS@@@std@@@std@@@2@XZ 1000d480 f i PSLibrary.obj
 0001:0000c490       ?push_back@?$vector@PAVCPGDef@PS@@V?$xalloc@PAVCPGDef@PS@@@@@std@@QAEXABQAVCPGDef@PS@@@Z 1000d490 f i PSLibrary.obj
 0001:0000c4f0       ?erase@?$vector@PAVCPGDef@PS@@V?$xalloc@PAVCPGDef@PS@@@@@std@@QAE?AV?$_Vector_iterator@V?$_Vector_val@U?$_Simple_types@PAVCPGDef@PS@@@std@@@std@@@2@V?$_Vector_const_iterator@V?$_Vector_val@U?$_Simple_types@PAVCPGDef@PS@@@std@@@std@@@2@@Z 1000d4f0 f i PSLibrary.obj
 0001:0000c530       ??D?$_Vector_iterator@V?$_Vector_val@U?$_Simple_types@PAVCPEDef@PS@@@std@@@std@@@std@@QBEAAPAVCPEDef@PS@@XZ 1000d530 f i PSLibrary.obj
 0001:0000c540       ??E?$_Vector_iterator@V?$_Vector_val@U?$_Simple_types@PAVCPEDef@PS@@@std@@@std@@@std@@QAE?AV01@H@Z 1000d540 f i PSLibrary.obj
 0001:0000c550       ??8?$_Vector_const_iterator@V?$_Vector_val@U?$_Simple_types@PAVCPEDef@PS@@@std@@@std@@@std@@QBE_NABV01@@Z 1000d550 f i PSLibrary.obj
 0001:0000c560       ??9?$_Vector_const_iterator@V?$_Vector_val@U?$_Simple_types@PAVCPEDef@PS@@@std@@@std@@@std@@QBE_NABV01@@Z 1000d560 f i PSLibrary.obj
 0001:0000c570       ??D?$_Vector_iterator@V?$_Vector_val@U?$_Simple_types@PAVCPGDef@PS@@@std@@@std@@@std@@QBEAAPAVCPGDef@PS@@XZ 1000d570 f i PSLibrary.obj
 0001:0000c580       ??E?$_Vector_iterator@V?$_Vector_val@U?$_Simple_types@PAVCPGDef@PS@@@std@@@std@@@std@@QAE?AV01@H@Z 1000d580 f i PSLibrary.obj
 0001:0000c590       ??D?$_Vector_const_iterator@V?$_Vector_val@U?$_Simple_types@PAVCPGDef@PS@@@std@@@std@@@std@@QBEABQAVCPGDef@PS@@XZ 1000d590 f i PSLibrary.obj
 0001:0000c5a0       ??8?$_Vector_const_iterator@V?$_Vector_val@U?$_Simple_types@PAVCPGDef@PS@@@std@@@std@@@std@@QBE_NABV01@@Z 1000d5a0 f i PSLibrary.obj
 0001:0000c5b0       ??9?$_Vector_const_iterator@V?$_Vector_val@U?$_Simple_types@PAVCPGDef@PS@@@std@@@std@@@std@@QBE_NABV01@@Z 1000d5b0 f i PSLibrary.obj
 0001:0000c5c0       ??D?$_Tree_const_iterator@V?$_Tree_val@U?$_Tree_simple_types@UFS_File@@@std@@@std@@@std@@QBEABUFS_File@@XZ 1000d5c0 f i PSLibrary.obj
 0001:0000c5d0       ??E?$_Tree_const_iterator@V?$_Tree_val@U?$_Tree_simple_types@UFS_File@@@std@@@std@@@std@@QAEAAV01@XZ 1000d5d0 f i PSLibrary.obj
 0001:0000c5e0       ??9?$_Tree_const_iterator@V?$_Tree_val@U?$_Tree_simple_types@UFS_File@@@std@@@std@@@std@@QBE_NABV01@@Z 1000d5e0 f i PSLibrary.obj
 0001:0000c5f0       ??1?$_Tree_comp@$0A@V?$_Tset_traits@UFS_File@@U?$less@UFS_File@@@std@@V?$xalloc@UFS_File@@@@$0A@@std@@@std@@QAE@XZ 1000d5f0 f i PSLibrary.obj
 0001:0000c610       ??1?$_Tree_buy@UFS_File@@V?$xalloc@UFS_File@@@@@std@@QAE@XZ 1000d610 f i PSLibrary.obj
 0001:0000c630       ??0?$_Tree@V?$_Tset_traits@UFS_File@@U?$less@UFS_File@@@std@@V?$xalloc@UFS_File@@@@$0A@@std@@@std@@QAE@ABU?$less@UFS_File@@@1@ABV?$xalloc@UFS_File@@@@@Z 1000d630 f i PSLibrary.obj
 0001:0000c650       ?size@?$_Tree@V?$_Tset_traits@UFS_File@@U?$less@UFS_File@@@std@@V?$xalloc@UFS_File@@@@$0A@@std@@@std@@QBEIXZ 1000d650 f i PSLibrary.obj
 0001:0000c660       ?_Lmost@?$_Tree@V?$_Tset_traits@UFS_File@@U?$less@UFS_File@@@std@@V?$xalloc@UFS_File@@@@$0A@@std@@@std@@IBEAAPAU?$_Tree_node@UFS_File@@PAX@2@XZ 1000d660 f i PSLibrary.obj
 0001:0000c670       ?_Tidy@?$_Tree@V?$_Tset_traits@UFS_File@@U?$less@UFS_File@@@std@@V?$xalloc@UFS_File@@@@$0A@@std@@@std@@IAEXXZ 1000d670 f i PSLibrary.obj
 0001:0000c690       ??0?$xalloc@UFS_File@@@@QAE@XZ 1000d690 f i PSLibrary.obj
 0001:0000c6a0       ??1?$_Tree_alloc@$0A@U?$_Tree_base_types@UFS_File@@V?$xalloc@UFS_File@@@@@std@@@std@@QAE@XZ 1000d6a0 f i PSLibrary.obj
 0001:0000c6c0       ?_Myval@?$_Tree_val@U?$_Tree_simple_types@UFS_File@@@std@@@std@@SAAAUFS_File@@PAU?$_Tree_node@UFS_File@@PAX@2@@Z 1000d6c0 f i PSLibrary.obj
 0001:0000c6d0       ?clear_and_free@?$xr_vector@PAVCPEDef@PS@@V?$xalloc@PAVCPEDef@PS@@@@@@QAEXXZ 1000d6d0 f i PSLibrary.obj
 0001:0000c6e0       ?_Make_iter@?$vector@PAVCPEDef@PS@@V?$xalloc@PAVCPEDef@PS@@@@@std@@QBE?AV?$_Vector_iterator@V?$_Vector_val@U?$_Simple_types@PAVCPEDef@PS@@@std@@@std@@@2@V?$_Vector_const_iterator@V?$_Vector_val@U?$_Simple_types@PAVCPEDef@PS@@@std@@@std@@@2@@Z 1000d6e0 f i PSLibrary.obj
 0001:0000c6f0       ?_Inside@?$vector@PAVCPEDef@PS@@V?$xalloc@PAVCPEDef@PS@@@@@std@@IBE_NPBQAVCPEDef@PS@@@Z 1000d6f0 f i PSLibrary.obj
 0001:0000c710       ?_Reserve@?$vector@PAVCPEDef@PS@@V?$xalloc@PAVCPEDef@PS@@@@@std@@IAEXI@Z 1000d710 f i PSLibrary.obj
 0001:0000c780       ?_Orphan_range@?$vector@PAVCPEDef@PS@@V?$xalloc@PAVCPEDef@PS@@@@@std@@IBEXPAPAVCPEDef@PS@@0@Z 1000d780 f i PSLibrary.obj
 0001:0000c790       ?clear_and_free@?$xr_vector@PAVCPGDef@PS@@V?$xalloc@PAVCPGDef@PS@@@@@@QAEXXZ 1000d790 f i PSLibrary.obj
 0001:0000c7a0       ?_Make_iter@?$vector@PAVCPGDef@PS@@V?$xalloc@PAVCPGDef@PS@@@@@std@@QBE?AV?$_Vector_iterator@V?$_Vector_val@U?$_Simple_types@PAVCPGDef@PS@@@std@@@std@@@2@V?$_Vector_const_iterator@V?$_Vector_val@U?$_Simple_types@PAVCPGDef@PS@@@std@@@std@@@2@@Z 1000d7a0 f i PSLibrary.obj
 0001:0000c7b0       ?size@?$vector@PAVCPGDef@PS@@V?$xalloc@PAVCPGDef@PS@@@@@std@@QBEIXZ 1000d7b0 f i PSLibrary.obj
 0001:0000c7c0       ?_Inside@?$vector@PAVCPGDef@PS@@V?$xalloc@PAVCPGDef@PS@@@@@std@@IBE_NPBQAVCPGDef@PS@@@Z 1000d7c0 f i PSLibrary.obj
 0001:0000c7e0       ?_Reserve@?$vector@PAVCPGDef@PS@@V?$xalloc@PAVCPGDef@PS@@@@@std@@IAEXI@Z 1000d7e0 f i PSLibrary.obj
 0001:0000c850       ?_Orphan_range@?$vector@PAVCPGDef@PS@@V?$xalloc@PAVCPGDef@PS@@@@@std@@IBEXPAPAVCPGDef@PS@@0@Z 1000d850 f i PSLibrary.obj
 0001:0000c860       ??E?$_Vector_iterator@V?$_Vector_val@U?$_Simple_types@PAVCPEDef@PS@@@std@@@std@@@std@@QAEAAV01@XZ 1000d860 f i PSLibrary.obj
 0001:0000c870       ??D?$_Vector_const_iterator@V?$_Vector_val@U?$_Simple_types@PAVCPEDef@PS@@@std@@@std@@@std@@QBEABQAVCPEDef@PS@@XZ 1000d870 f i PSLibrary.obj
 0001:0000c880       ?_Compat@?$_Vector_const_iterator@V?$_Vector_val@U?$_Simple_types@PAVCPEDef@PS@@@std@@@std@@@std@@QBEXABV12@@Z 1000d880 f i PSLibrary.obj
 0001:0000c890       ??E?$_Vector_iterator@V?$_Vector_val@U?$_Simple_types@PAVCPGDef@PS@@@std@@@std@@@std@@QAEAAV01@XZ 1000d890 f i PSLibrary.obj
 0001:0000c8a0       ?_Compat@?$_Vector_const_iterator@V?$_Vector_val@U?$_Simple_types@PAVCPGDef@PS@@@std@@@std@@@std@@QBEXABV12@@Z 1000d8a0 f i PSLibrary.obj
 0001:0000c8b0       ??0?$_Tree_const_iterator@V?$_Tree_val@U?$_Tree_simple_types@UFS_File@@@std@@@std@@@std@@QAE@PAU?$_Tree_node@UFS_File@@PAX@1@PBV?$_Tree_val@U?$_Tree_simple_types@UFS_File@@@std@@@1@@Z 1000d8b0 f i PSLibrary.obj
 0001:0000c8c0       ??8?$_Tree_const_iterator@V?$_Tree_val@U?$_Tree_simple_types@UFS_File@@@std@@@std@@@std@@QBE_NABV01@@Z 1000d8c0 f i PSLibrary.obj
 0001:0000c8d0       ??E?$_Tree_unchecked_const_iterator@V?$_Tree_val@U?$_Tree_simple_types@UFS_File@@@std@@@std@@U_Iterator_base0@2@@std@@QAEAAV01@XZ 1000d8d0 f i PSLibrary.obj
 0001:0000c920       ?erase@?$_Tree@V?$_Tset_traits@UFS_File@@U?$less@UFS_File@@@std@@V?$xalloc@UFS_File@@@@$0A@@std@@@std@@QAE?AV?$_Tree_const_iterator@V?$_Tree_val@U?$_Tree_simple_types@UFS_File@@@std@@@std@@@2@V32@0@Z 1000d920 f i PSLibrary.obj
 0001:0000c9e0       ??0?$_Tree_comp@$0A@V?$_Tset_traits@UFS_File@@U?$less@UFS_File@@@std@@V?$xalloc@UFS_File@@@@$0A@@std@@@std@@QAE@ABU?$less@UFS_File@@@1@ABV?$xalloc@UFS_File@@@@@Z 1000d9e0 f i PSLibrary.obj
 0001:0000ca00       ?_Freeheadnode@?$_Tree_alloc@$0A@U?$_Tree_base_types@UFS_File@@V?$xalloc@UFS_File@@@@@std@@@std@@QAEXPAU?$_Tree_node@UFS_File@@PAX@2@@Z 1000da00 f i PSLibrary.obj
 0001:0000ca20       ?_Isnil@?$_Tree_val@U?$_Tree_simple_types@UFS_File@@@std@@@std@@SAAADPAU?$_Tree_node@UFS_File@@PAX@2@@Z 1000da20 f i PSLibrary.obj
 0001:0000ca30       ?_Left@?$_Tree_val@U?$_Tree_simple_types@UFS_File@@@std@@@std@@SAAAPAU?$_Tree_node@UFS_File@@PAX@2@PAU32@@Z 1000da30 f i PSLibrary.obj
 0001:0000ca40       ?_Parent@?$_Tree_val@U?$_Tree_simple_types@UFS_File@@@std@@@std@@SAAAPAU?$_Tree_node@UFS_File@@PAX@2@PAU32@@Z 1000da40 f i PSLibrary.obj
 0001:0000ca50       ?_Right@?$_Tree_val@U?$_Tree_simple_types@UFS_File@@@std@@@std@@SAAAPAU?$_Tree_node@UFS_File@@PAX@2@PAU32@@Z 1000da50 f i PSLibrary.obj
 0001:0000ca60       ?_Min@?$_Tree_val@U?$_Tree_simple_types@UFS_File@@@std@@@std@@SAPAU?$_Tree_node@UFS_File@@PAX@2@PAU32@@Z 1000da60 f i PSLibrary.obj
 0001:0000ca80       ?_Unused_capacity@?$vector@PAVCPEDef@PS@@V?$xalloc@PAVCPEDef@PS@@@@@std@@QBEIXZ 1000da80 f i PSLibrary.obj
 0001:0000ca90       ?size@?$vector@PAVCPEDef@PS@@V?$xalloc@PAVCPEDef@PS@@@@@std@@QBEIXZ 1000da90 f i PSLibrary.obj
 0001:0000caa0       ?max_size@?$vector@PAVCPEDef@PS@@V?$xalloc@PAVCPEDef@PS@@@@@std@@QBEIXZ 1000daa0 f i PSLibrary.obj
 0001:0000cab0       ?clear@?$vector@PAVCPEDef@PS@@V?$xalloc@PAVCPEDef@PS@@@@@std@@QAEXXZ 1000dab0 f i PSLibrary.obj
 0001:0000cac0       ?_Grow_to@?$vector@PAVCPEDef@PS@@V?$xalloc@PAVCPEDef@PS@@@@@std@@IBEII@Z 1000dac0 f i PSLibrary.obj
 0001:0000cb00       ?_Reallocate@?$vector@PAVCPEDef@PS@@V?$xalloc@PAVCPEDef@PS@@@@@std@@IAEXI@Z 1000db00 f i PSLibrary.obj
 0001:0000cbc0       ?_Xlen@?$vector@PAVCPEDef@PS@@V?$xalloc@PAVCPEDef@PS@@@@@std@@IBEXXZ 1000dbc0 f i PSLibrary.obj
 0001:0000cbd0       ?_Unused_capacity@?$vector@PAVCPGDef@PS@@V?$xalloc@PAVCPGDef@PS@@@@@std@@QBEIXZ 1000dbd0 f i PSLibrary.obj
 0001:0000cbe0       ?max_size@?$vector@PAVCPGDef@PS@@V?$xalloc@PAVCPGDef@PS@@@@@std@@QBEIXZ 1000dbe0 f i PSLibrary.obj
 0001:0000cbf0       ?clear@?$vector@PAVCPGDef@PS@@V?$xalloc@PAVCPGDef@PS@@@@@std@@QAEXXZ 1000dbf0 f i PSLibrary.obj
 0001:0000cc00       ?_Grow_to@?$vector@PAVCPGDef@PS@@V?$xalloc@PAVCPGDef@PS@@@@@std@@IBEII@Z 1000dc00 f i PSLibrary.obj
 0001:0000cc40       ?_Reallocate@?$vector@PAVCPGDef@PS@@V?$xalloc@PAVCPGDef@PS@@@@@std@@IAEXI@Z 1000dc40 f i PSLibrary.obj
 0001:0000cd00       ?_Xlen@?$vector@PAVCPGDef@PS@@V?$xalloc@PAVCPGDef@PS@@@@@std@@IBEXXZ 1000dd00 f i PSLibrary.obj
 0001:0000cd10       ??E?$_Vector_const_iterator@V?$_Vector_val@U?$_Simple_types@PAVCPEDef@PS@@@std@@@std@@@std@@QAEAAV01@XZ 1000dd10 f i PSLibrary.obj
 0001:0000cd20       ??E?$_Vector_const_iterator@V?$_Vector_val@U?$_Simple_types@PAVCPGDef@PS@@@std@@@std@@@std@@QAEAAV01@XZ 1000dd20 f i PSLibrary.obj
 0001:0000cd30       ??0?$_Tree_unchecked_const_iterator@V?$_Tree_val@U?$_Tree_simple_types@UFS_File@@@std@@@std@@U_Iterator_base0@2@@std@@QAE@PAU?$_Tree_node@UFS_File@@PAX@1@PBV?$_Tree_val@U?$_Tree_simple_types@UFS_File@@@std@@@1@@Z 1000dd30 f i PSLibrary.obj
 0001:0000cd40       ?erase@?$_Tree@V?$_Tset_traits@UFS_File@@U?$less@UFS_File@@@std@@V?$xalloc@UFS_File@@@@$0A@@std@@@std@@QAE?AV?$_Tree_const_iterator@V?$_Tree_val@U?$_Tree_simple_types@UFS_File@@@std@@@std@@@2@V32@@Z 1000dd40 f i PSLibrary.obj
 0001:0000cf90       ?clear@?$_Tree@V?$_Tset_traits@UFS_File@@U?$less@UFS_File@@@std@@V?$xalloc@UFS_File@@@@$0A@@std@@@std@@QAEXXZ 1000df90 f i PSLibrary.obj
 0001:0000cfc0       ??0?$_Tree_buy@UFS_File@@V?$xalloc@UFS_File@@@@@std@@QAE@ABV?$xalloc@UFS_File@@@@@Z 1000dfc0 f i PSLibrary.obj
 0001:0000cfe0       ?_Getal@?$_Tree_alloc@$0A@U?$_Tree_base_types@UFS_File@@V?$xalloc@UFS_File@@@@@std@@@std@@QBE?AU?$_Wrap_alloc@V?$xalloc@U?$_Tree_node@UFS_File@@PAX@std@@@@@2@XZ 1000dfe0 f i PSLibrary.obj
 0001:0000cff0       ?deallocate@?$_Wrap_alloc@V?$xalloc@U?$_Tree_node@UFS_File@@PAX@std@@@@@std@@QAEXPAU?$_Tree_node@UFS_File@@PAX@2@I@Z 1000dff0 f i PSLibrary.obj
 0001:0000d010       ?capacity@?$vector@PAVCPEDef@PS@@V?$xalloc@PAVCPEDef@PS@@@@@std@@QBEIXZ 1000e010 f i PSLibrary.obj
 0001:0000d020       ?allocate@?$_Wrap_alloc@V?$xalloc@PAVCPEDef@PS@@@@@std@@QAEPAPAVCPEDef@PS@@I@Z 1000e020 f i PSLibrary.obj
 0001:0000d040       ?max_size@?$_Wrap_alloc@V?$xalloc@PAVCPEDef@PS@@@@@std@@QBEIXZ 1000e040 f i PSLibrary.obj
 0001:0000d050       ?capacity@?$vector@PAVCPGDef@PS@@V?$xalloc@PAVCPGDef@PS@@@@@std@@QBEIXZ 1000e050 f i PSLibrary.obj
 0001:0000d060       ?allocate@?$_Wrap_alloc@V?$xalloc@PAVCPGDef@PS@@@@@std@@QAEPAPAVCPGDef@PS@@I@Z 1000e060 f i PSLibrary.obj
 0001:0000d080       ?max_size@?$_Wrap_alloc@V?$xalloc@PAVCPGDef@PS@@@@@std@@QBEIXZ 1000e080 f i PSLibrary.obj
 0001:0000d090       ??E?$_Tree_const_iterator@V?$_Tree_val@U?$_Tree_simple_types@UFS_File@@@std@@@std@@@std@@QAE?AV01@H@Z 1000e090 f i PSLibrary.obj
 0001:0000d0b0       ?_Erase@?$_Tree@V?$_Tset_traits@UFS_File@@U?$less@UFS_File@@@std@@V?$xalloc@UFS_File@@@@$0A@@std@@@std@@IAEXPAU?$_Tree_node@UFS_File@@PAX@2@@Z 1000e0b0 f i PSLibrary.obj
 0001:0000d110       ?_Lrotate@?$_Tree@V?$_Tset_traits@UFS_File@@U?$less@UFS_File@@@std@@V?$xalloc@UFS_File@@@@$0A@@std@@@std@@IAEXPAU?$_Tree_node@UFS_File@@PAX@2@@Z 1000e110 f i PSLibrary.obj
 0001:0000d160       ?_Rmost@?$_Tree@V?$_Tset_traits@UFS_File@@U?$less@UFS_File@@@std@@V?$xalloc@UFS_File@@@@$0A@@std@@@std@@IBEAAPAU?$_Tree_node@UFS_File@@PAX@2@XZ 1000e160 f i PSLibrary.obj
 0001:0000d170       ?_Root@?$_Tree@V?$_Tset_traits@UFS_File@@U?$less@UFS_File@@@std@@V?$xalloc@UFS_File@@@@$0A@@std@@@std@@IBEAAPAU?$_Tree_node@UFS_File@@PAX@2@XZ 1000e170 f i PSLibrary.obj
 0001:0000d180       ?_Rrotate@?$_Tree@V?$_Tset_traits@UFS_File@@U?$less@UFS_File@@@std@@V?$xalloc@UFS_File@@@@$0A@@std@@@std@@IAEXPAU?$_Tree_node@UFS_File@@PAX@2@@Z 1000e180 f i PSLibrary.obj
 0001:0000d1e0       ??0?$_Tree_alloc@$0A@U?$_Tree_base_types@UFS_File@@V?$xalloc@UFS_File@@@@@std@@@std@@QAE@ABV?$xalloc@UFS_File@@@@@Z 1000e1e0 f i PSLibrary.obj
 0001:0000d200       ??0?$_Wrap_alloc@V?$xalloc@U?$_Tree_node@UFS_File@@PAX@std@@@@@std@@QAE@XZ 1000e200 f i PSLibrary.obj
 0001:0000d210       ?deallocate@?$xalloc@U?$_Tree_node@UFS_File@@PAX@std@@@@QBEXPAU?$_Tree_node@UFS_File@@PAX@std@@I@Z 1000e210 f i PSLibrary.obj
 0001:0000d230       ?_Color@?$_Tree_val@U?$_Tree_simple_types@UFS_File@@@std@@@std@@SAAADPAU?$_Tree_node@UFS_File@@PAX@2@@Z 1000e230 f i PSLibrary.obj
 0001:0000d240       ?_Max@?$_Tree_val@U?$_Tree_simple_types@UFS_File@@@std@@@std@@SAPAU?$_Tree_node@UFS_File@@PAX@2@PAU32@@Z 1000e240 f i PSLibrary.obj
 0001:0000d260       ?allocate@?$xalloc@PAVCPEDef@PS@@@@QBEPAPAVCPEDef@PS@@IPBX@Z 1000e260 f i PSLibrary.obj
 0001:0000d280       ?max_size@?$allocator_traits@V?$xalloc@PAVCPEDef@PS@@@@@std@@SAIABV?$xalloc@PAVCPEDef@PS@@@@@Z 1000e280 f i PSLibrary.obj
 0001:0000d290       ?allocate@?$xalloc@PAVCPGDef@PS@@@@QBEPAPAVCPGDef@PS@@IPBX@Z 1000e290 f i PSLibrary.obj
 0001:0000d2b0       ?max_size@?$allocator_traits@V?$xalloc@PAVCPGDef@PS@@@@@std@@SAIABV?$xalloc@PAVCPGDef@PS@@@@@Z 1000e2b0 f i PSLibrary.obj
 0001:0000d2c0       ?_Mynode@?$_Tree_unchecked_const_iterator@V?$_Tree_val@U?$_Tree_simple_types@UFS_File@@@std@@@std@@U_Iterator_base0@2@@std@@QBEPAU?$_Tree_node@UFS_File@@PAX@2@XZ 1000e2c0 f i PSLibrary.obj
 0001:0000d2d0       ?_Buyheadnode@?$_Tree_alloc@$0A@U?$_Tree_base_types@UFS_File@@V?$xalloc@UFS_File@@@@@std@@@std@@QAEPAU?$_Tree_node@UFS_File@@PAX@2@XZ 1000e2d0 f i PSLibrary.obj
 0001:0000d360       ??0?$xalloc@U?$_Tree_node@UFS_File@@PAX@std@@@@QAE@XZ 1000e360 f i PSLibrary.obj
 0001:0000d370       ??0?$_Tree_val@U?$_Tree_simple_types@UFS_File@@@std@@@std@@QAE@XZ 1000e370 f i PSLibrary.obj
 0001:0000d380       ?allocate@?$_Wrap_alloc@V?$xalloc@U?$_Tree_node@UFS_File@@PAX@std@@@@@std@@QAEPAU?$_Tree_node@UFS_File@@PAX@2@I@Z 1000e380 f i PSLibrary.obj
 0001:0000d3a0       ?allocate@?$xalloc@U?$_Tree_node@UFS_File@@PAX@std@@@@QBEPAU?$_Tree_node@UFS_File@@PAX@std@@IPBX@Z 1000e3a0 f i PSLibrary.obj
 0001:0000d3c0       ??$xr_delete@VCPEDef@PS@@@@YAXAAPAVCPEDef@PS@@@Z 1000e3c0 f i PSLibrary.obj
 0001:0000d3f0       ??$xr_delete@VCPGDef@PS@@@@YAXAAPAVCPGDef@PS@@@Z 1000e3f0 f i PSLibrary.obj
 0001:0000d420       ??$lower_bound@V?$_Vector_iterator@V?$_Vector_val@U?$_Simple_types@PAVCPEDef@PS@@@std@@@std@@@std@@PBDP6A_NPBVCPEDef@PS@@PBD@Z@std@@YA?AV?$_Vector_iterator@V?$_Vector_val@U?$_Simple_types@PAVCPEDef@PS@@@std@@@std@@@0@V10@0ABQBDP6A_NPBVCPEDef@PS@@PBD@Z@Z 1000e420 f i PSLibrary.obj
 0001:0000d440       ??$lower_bound@V?$_Vector_iterator@V?$_Vector_val@U?$_Simple_types@PAVCPGDef@PS@@@std@@@std@@@std@@PBDP6A_NPBVCPGDef@PS@@PBD@Z@std@@YA?AV?$_Vector_iterator@V?$_Vector_val@U?$_Simple_types@PAVCPGDef@PS@@@std@@@std@@@0@V10@0ABQBDP6A_NPBVCPGDef@PS@@PBD@Z@Z 1000e440 f i PSLibrary.obj
 0001:0000d460       ??$xr_new@VCPEDef@PS@@@@YAPAVCPEDef@PS@@XZ 1000e460 f i PSLibrary.obj
 0001:0000d480       ??$xr_new@VCPGDef@PS@@@@YAPAVCPGDef@PS@@XZ 1000e480 f i PSLibrary.obj
 0001:0000d4c0       ??$sort@V?$_Vector_iterator@V?$_Vector_val@U?$_Simple_types@PAVCPEDef@PS@@@std@@@std@@@std@@P6A_NPBVCPEDef@PS@@0@Z@std@@YAXV?$_Vector_iterator@V?$_Vector_val@U?$_Simple_types@PAVCPEDef@PS@@@std@@@std@@@0@0P6A_NPBVCPEDef@PS@@1@Z@Z 1000e4c0 f i PSLibrary.obj
 0001:0000d4e0       ??$sort@V?$_Vector_iterator@V?$_Vector_val@U?$_Simple_types@PAVCPGDef@PS@@@std@@@std@@@std@@P6A_NPBVCPGDef@PS@@0@Z@std@@YAXV?$_Vector_iterator@V?$_Vector_val@U?$_Simple_types@PAVCPGDef@PS@@@std@@@std@@@0@0P6A_NPBVCPGDef@PS@@1@Z@Z 1000e4e0 f i PSLibrary.obj
 0001:0000d500       ??$addressof@QAVCPEDef@PS@@@std@@YAPBQAVCPEDef@PS@@ABQAV12@@Z 1000e500 f i PSLibrary.obj
 0001:0000d510       ??$construct@PAVCPEDef@PS@@AAPAV12@@?$_Wrap_alloc@V?$xalloc@PAVCPEDef@PS@@@@@std@@QAEXPAPAVCPEDef@PS@@AAPAV23@@Z 1000e510 f i PSLibrary.obj
 0001:0000d530       ??$construct@PAVCPEDef@PS@@ABQAV12@@?$_Wrap_alloc@V?$xalloc@PAVCPEDef@PS@@@@@std@@QAEXPAPAVCPEDef@PS@@ABQAV23@@Z 1000e530 f i PSLibrary.obj
 0001:0000d550       ??$_Move@PAPAVCPEDef@PS@@PAPAV12@@std@@YAPAPAVCPEDef@PS@@PAPAV12@00@Z 1000e550 f i PSLibrary.obj
 0001:0000d580       ??$addressof@QAVCPGDef@PS@@@std@@YAPBQAVCPGDef@PS@@ABQAV12@@Z 1000e580 f i PSLibrary.obj
 0001:0000d590       ??$construct@PAVCPGDef@PS@@AAPAV12@@?$_Wrap_alloc@V?$xalloc@PAVCPGDef@PS@@@@@std@@QAEXPAPAVCPGDef@PS@@AAPAV23@@Z 1000e590 f i PSLibrary.obj
 0001:0000d5b0       ??$construct@PAVCPGDef@PS@@ABQAV12@@?$_Wrap_alloc@V?$xalloc@PAVCPGDef@PS@@@@@std@@QAEXPAPAVCPGDef@PS@@ABQAV23@@Z 1000e5b0 f i PSLibrary.obj
 0001:0000d5d0       ??$_Move@PAPAVCPGDef@PS@@PAPAV12@@std@@YAPAPAVCPGDef@PS@@PAPAV12@00@Z 1000e5d0 f i PSLibrary.obj
 0001:0000d600       ??$addressof@PAU?$_Tree_node@UFS_File@@PAX@std@@@std@@YAPAPAU?$_Tree_node@UFS_File@@PAX@0@AAPAU10@@Z 1000e600 f i PSLibrary.obj
 0001:0000d610       ??$destroy@PAU?$_Tree_node@UFS_File@@PAX@std@@@?$_Wrap_alloc@V?$xalloc@U?$_Tree_node@UFS_File@@PAX@std@@@@@std@@QAEXPAPAU?$_Tree_node@UFS_File@@PAX@1@@Z 1000e610 f i PSLibrary.obj
 0001:0000d620       ??$_Umove@PAPAVCPEDef@PS@@@?$vector@PAVCPEDef@PS@@V?$xalloc@PAVCPEDef@PS@@@@@std@@IAEPAPAVCPEDef@PS@@PAPAV23@00@Z 1000e620 f i PSLibrary.obj
 0001:0000d650       ??$_Umove@PAPAVCPGDef@PS@@@?$vector@PAVCPGDef@PS@@V?$xalloc@PAVCPGDef@PS@@@@@std@@IAEPAPAVCPGDef@PS@@PAPAV23@00@Z 1000e650 f i PSLibrary.obj
 0001:0000d680       ??$addressof@UFS_File@@@std@@YAPAUFS_File@@AAU1@@Z 1000e680 f i PSLibrary.obj
 0001:0000d690       ??$destroy@UFS_File@@@?$_Wrap_alloc@V?$xalloc@U?$_Tree_node@UFS_File@@PAX@std@@@@@std@@QAEXPAUFS_File@@@Z 1000e690 f i PSLibrary.obj
 0001:0000d6a0       ??$xr_free@U?$_Tree_node@UFS_File@@PAX@std@@@@YAXAAPAU?$_Tree_node@UFS_File@@PAX@std@@@Z 1000e6a0 f i PSLibrary.obj
 0001:0000d6c0       ??$xr_alloc@PAVCPEDef@PS@@@@YAPAPAVCPEDef@PS@@I@Z 1000e6c0 f i PSLibrary.obj
 0001:0000d6e0       ??$_Fn@V?$xalloc@PAVCPEDef@PS@@@@@_Alloc_max_size@std@@SAIHABV?$xalloc@PAVCPEDef@PS@@@@@Z 1000e6e0 f i PSLibrary.obj
 0001:0000d6f0       ??$xr_alloc@PAVCPGDef@PS@@@@YAPAPAVCPGDef@PS@@I@Z 1000e6f0 f i PSLibrary.obj
 0001:0000d710       ??$_Fn@V?$xalloc@PAVCPGDef@PS@@@@@_Alloc_max_size@std@@SAIHABV?$xalloc@PAVCPGDef@PS@@@@@Z 1000e710 f i PSLibrary.obj
 0001:0000d720       ??$construct@PAU?$_Tree_node@UFS_File@@PAX@std@@AAPAU12@@?$_Wrap_alloc@V?$xalloc@U?$_Tree_node@UFS_File@@PAX@std@@@@@std@@QAEXPAPAU?$_Tree_node@UFS_File@@PAX@1@AAPAU21@@Z 1000e720 f i PSLibrary.obj
 0001:0000d740       ??$xr_alloc@U?$_Tree_node@UFS_File@@PAX@std@@@@YAPAU?$_Tree_node@UFS_File@@PAX@std@@I@Z 1000e740 f i PSLibrary.obj
 0001:0000d750       ?max_size@?$xalloc@PAVCPEDef@PS@@@@QBEIXZ 1000e750 f i PSLibrary.obj
 0001:0000d760       ?max_size@?$xalloc@PAVCPGDef@PS@@@@QBEIXZ 1000e760 f i PSLibrary.obj
 0001:0000d770       ??G?$_Vector_iterator@V?$_Vector_val@U?$_Simple_types@PAVCPEDef@PS@@@std@@@std@@@std@@QBEHABV?$_Vector_const_iterator@V?$_Vector_val@U?$_Simple_types@PAVCPEDef@PS@@@std@@@std@@@1@@Z 1000e770 f i PSLibrary.obj
 0001:0000d780       ??G?$_Vector_iterator@V?$_Vector_val@U?$_Simple_types@PAVCPGDef@PS@@@std@@@std@@@std@@QBEHABV?$_Vector_const_iterator@V?$_Vector_val@U?$_Simple_types@PAVCPGDef@PS@@@std@@@std@@@1@@Z 1000e780 f i PSLibrary.obj
 0001:0000d790       ??R?$xr_special_free@$0A@VCPEDef@PS@@@@QAEXAAPAVCPEDef@PS@@@Z 1000e790 f i PSLibrary.obj
 0001:0000d7b0       ??R?$xr_special_free@$0A@VCPGDef@PS@@@@QAEXAAPAVCPGDef@PS@@@Z 1000e7b0 f i PSLibrary.obj
 0001:0000d7d0       ??_GCPEDef@PS@@QAEPAXI@Z   1000e7d0 f i PSLibrary.obj
 0001:0000d7e0       ??_GCPGDef@PS@@QAEPAXI@Z   1000e7e0 f i PSLibrary.obj
 0001:0000d7f0       ??G?$_Vector_const_iterator@V?$_Vector_val@U?$_Simple_types@PAVCPEDef@PS@@@std@@@std@@@std@@QBEHABV01@@Z 1000e7f0 f i PSLibrary.obj
 0001:0000d800       ??G?$_Vector_const_iterator@V?$_Vector_val@U?$_Simple_types@PAVCPGDef@PS@@@std@@@std@@@std@@QBEHABV01@@Z 1000e800 f i PSLibrary.obj
 0001:0000d810       ??$_Unchecked@V?$_Vector_val@U?$_Simple_types@PAVCPEDef@PS@@@std@@@std@@@std@@YAPAPAVCPEDef@PS@@V?$_Vector_iterator@V?$_Vector_val@U?$_Simple_types@PAVCPEDef@PS@@@std@@@std@@@0@@Z 1000e810 f i PSLibrary.obj
 0001:0000d820       ??$_Dist_type@V?$_Vector_iterator@V?$_Vector_val@U?$_Simple_types@PAVCPEDef@PS@@@std@@@std@@@std@@@std@@YAPAHV?$_Vector_iterator@V?$_Vector_val@U?$_Simple_types@PAVCPEDef@PS@@@std@@@std@@@0@@Z 1000e820 f i PSLibrary.obj
 0001:0000d830       ??$_Lower_bound@PAPAVCPEDef@PS@@PBDHP6A_NPBV12@PBD@Z@std@@YAPAPAVCPEDef@PS@@PAPAV12@0ABQBDP6A_NPBV12@PBD@ZPAH@Z 1000e830 f i PSLibrary.obj
 0001:0000d8c0       ??$_Rechecked@V?$_Vector_val@U?$_Simple_types@PAVCPEDef@PS@@@std@@@std@@@std@@YAAAV?$_Vector_iterator@V?$_Vector_val@U?$_Simple_types@PAVCPEDef@PS@@@std@@@std@@@0@AAV10@PAPAVCPEDef@PS@@@Z 1000e8c0 f i PSLibrary.obj
 0001:0000d8d0       ??$_Unchecked@V?$_Vector_val@U?$_Simple_types@PAVCPGDef@PS@@@std@@@std@@@std@@YAPAPAVCPGDef@PS@@V?$_Vector_iterator@V?$_Vector_val@U?$_Simple_types@PAVCPGDef@PS@@@std@@@std@@@0@@Z 1000e8d0 f i PSLibrary.obj
 0001:0000d8e0       ??$_Dist_type@V?$_Vector_iterator@V?$_Vector_val@U?$_Simple_types@PAVCPGDef@PS@@@std@@@std@@@std@@@std@@YAPAHV?$_Vector_iterator@V?$_Vector_val@U?$_Simple_types@PAVCPGDef@PS@@@std@@@std@@@0@@Z 1000e8e0 f i PSLibrary.obj
 0001:0000d8f0       ??$_Lower_bound@PAPAVCPGDef@PS@@PBDHP6A_NPBV12@PBD@Z@std@@YAPAPAVCPGDef@PS@@PAPAV12@0ABQBDP6A_NPBV12@PBD@ZPAH@Z 1000e8f0 f i PSLibrary.obj
 0001:0000d980       ??$_Rechecked@V?$_Vector_val@U?$_Simple_types@PAVCPGDef@PS@@@std@@@std@@@std@@YAAAV?$_Vector_iterator@V?$_Vector_val@U?$_Simple_types@PAVCPGDef@PS@@@std@@@std@@@0@AAV10@PAPAVCPGDef@PS@@@Z 1000e980 f i PSLibrary.obj
 0001:0000d990       ??$_Sort@PAPAVCPEDef@PS@@HP6A_NPBV12@0@Z@std@@YAXPAPAVCPEDef@PS@@0HP6A_NPBV12@1@Z@Z 1000e990 f i PSLibrary.obj
 0001:0000da80       ??$_Sort@PAPAVCPGDef@PS@@HP6A_NPBV12@0@Z@std@@YAXPAPAVCPGDef@PS@@0HP6A_NPBV12@1@Z@Z 1000ea80 f i PSLibrary.obj
 0001:0000db70       ??$forward@AAPAVCPEDef@PS@@@std@@YAAAPAVCPEDef@PS@@AAPAV12@@Z 1000eb70 f i PSLibrary.obj
 0001:0000db80       ??$construct@PAVCPEDef@PS@@AAPAV12@@?$allocator_traits@V?$xalloc@PAVCPEDef@PS@@@@@std@@SAXAAV?$xalloc@PAVCPEDef@PS@@@@PAPAVCPEDef@PS@@AAPAV34@@Z 1000eb80 f i PSLibrary.obj
 0001:0000db90       ??$forward@ABQAVCPEDef@PS@@@std@@YAABQAVCPEDef@PS@@ABQAV12@@Z 1000eb90 f i PSLibrary.obj
 0001:0000dba0       ??$construct@PAVCPEDef@PS@@ABQAV12@@?$allocator_traits@V?$xalloc@PAVCPEDef@PS@@@@@std@@SAXAAV?$xalloc@PAVCPEDef@PS@@@@PAPAVCPEDef@PS@@ABQAV34@@Z 1000eba0 f i PSLibrary.obj
 0001:0000dbb0       ??$_Move@PAPAVCPEDef@PS@@PAPAV12@@std@@YAPAPAVCPEDef@PS@@PAPAV12@00U_Scalar_ptr_iterator_tag@0@@Z 1000ebb0 f i PSLibrary.obj
 0001:0000dbe0       ??$forward@AAPAVCPGDef@PS@@@std@@YAAAPAVCPGDef@PS@@AAPAV12@@Z 1000ebe0 f i PSLibrary.obj
 0001:0000dbf0       ??$construct@PAVCPGDef@PS@@AAPAV12@@?$allocator_traits@V?$xalloc@PAVCPGDef@PS@@@@@std@@SAXAAV?$xalloc@PAVCPGDef@PS@@@@PAPAVCPGDef@PS@@AAPAV34@@Z 1000ebf0 f i PSLibrary.obj
 0001:0000dc00       ??$forward@ABQAVCPGDef@PS@@@std@@YAABQAVCPGDef@PS@@ABQAV12@@Z 1000ec00 f i PSLibrary.obj
 0001:0000dc10       ??$construct@PAVCPGDef@PS@@ABQAV12@@?$allocator_traits@V?$xalloc@PAVCPGDef@PS@@@@@std@@SAXAAV?$xalloc@PAVCPGDef@PS@@@@PAPAVCPGDef@PS@@ABQAV34@@Z 1000ec10 f i PSLibrary.obj
 0001:0000dc20       ??$_Move@PAPAVCPGDef@PS@@PAPAV12@@std@@YAPAPAVCPGDef@PS@@PAPAV12@00U_Scalar_ptr_iterator_tag@0@@Z 1000ec20 f i PSLibrary.obj
 0001:0000dc50       ??$destroy@PAU?$_Tree_node@UFS_File@@PAX@std@@@?$allocator_traits@V?$xalloc@U?$_Tree_node@UFS_File@@PAX@std@@@@@std@@SAXAAV?$xalloc@U?$_Tree_node@UFS_File@@PAX@std@@@@PAPAU?$_Tree_node@UFS_File@@PAX@1@@Z 1000ec50 f i PSLibrary.obj
 0001:0000dc60       ??$_Uninitialized_move@PAPAVCPEDef@PS@@PAPAV12@U?$_Wrap_alloc@V?$xalloc@PAVCPEDef@PS@@@@@std@@@std@@YAPAPAVCPEDef@PS@@PAPAV12@00AAU?$_Wrap_alloc@V?$xalloc@PAVCPEDef@PS@@@@@0@@Z 1000ec60 f i PSLibrary.obj
 0001:0000dc80       ??$_Uninitialized_move@PAPAVCPGDef@PS@@PAPAV12@U?$_Wrap_alloc@V?$xalloc@PAVCPGDef@PS@@@@@std@@@std@@YAPAPAVCPGDef@PS@@PAPAV12@00AAU?$_Wrap_alloc@V?$xalloc@PAVCPGDef@PS@@@@@0@@Z 1000ec80 f i PSLibrary.obj
 0001:0000dca0       ??$destroy@UFS_File@@@?$allocator_traits@V?$xalloc@U?$_Tree_node@UFS_File@@PAX@std@@@@@std@@SAXAAV?$xalloc@U?$_Tree_node@UFS_File@@PAX@std@@@@PAUFS_File@@@Z 1000eca0 f i PSLibrary.obj
 0001:0000dcb0       ??$forward@AAPAU?$_Tree_node@UFS_File@@PAX@std@@@std@@YAAAPAU?$_Tree_node@UFS_File@@PAX@0@AAPAU10@@Z 1000ecb0 f i PSLibrary.obj
 0001:0000dcc0       ??$construct@PAU?$_Tree_node@UFS_File@@PAX@std@@AAPAU12@@?$allocator_traits@V?$xalloc@U?$_Tree_node@UFS_File@@PAX@std@@@@@std@@SAXAAV?$xalloc@U?$_Tree_node@UFS_File@@PAX@std@@@@PAPAU?$_Tree_node@UFS_File@@PAX@1@AAPAU31@@Z 1000ecc0 f i PSLibrary.obj
 0001:0000dcd0       ?_Rechecked@?$_Vector_iterator@V?$_Vector_val@U?$_Simple_types@PAVCPEDef@PS@@@std@@@std@@@std@@QAEAAV12@PAPAVCPEDef@PS@@@Z 1000ecd0 f i PSLibrary.obj
 0001:0000dce0       ?_Unchecked@?$_Vector_iterator@V?$_Vector_val@U?$_Simple_types@PAVCPEDef@PS@@@std@@@std@@@std@@QBEPAPAVCPEDef@PS@@XZ 1000ece0 f i PSLibrary.obj
 0001:0000dcf0       ?_Rechecked@?$_Vector_iterator@V?$_Vector_val@U?$_Simple_types@PAVCPGDef@PS@@@std@@@std@@@std@@QAEAAV12@PAPAVCPGDef@PS@@@Z 1000ecf0 f i PSLibrary.obj
 0001:0000dd00       ?_Unchecked@?$_Vector_iterator@V?$_Vector_val@U?$_Simple_types@PAVCPGDef@PS@@@std@@@std@@@std@@QBEPAPAVCPGDef@PS@@XZ 1000ed00 f i PSLibrary.obj
 0001:0000dd10       ??$_Distance@PAPAVCPEDef@PS@@H@std@@YAXPAPAVCPEDef@PS@@0AAH@Z 1000ed10 f i PSLibrary.obj
 0001:0000dd20       ??$advance@PAPAVCPEDef@PS@@H@std@@YAXAAPAPAVCPEDef@PS@@H@Z 1000ed20 f i PSLibrary.obj
 0001:0000dd30       ??$_Distance@PAPAVCPGDef@PS@@H@std@@YAXPAPAVCPGDef@PS@@0AAH@Z 1000ed30 f i PSLibrary.obj
 0001:0000dd40       ??$advance@PAPAVCPGDef@PS@@H@std@@YAXAAPAPAVCPGDef@PS@@H@Z 1000ed40 f i PSLibrary.obj
 0001:0000dd50       ??$_Unguarded_partition@PAPAVCPEDef@PS@@P6A_NPBV12@0@Z@std@@YA?AU?$pair@PAPAVCPEDef@PS@@PAPAV12@@0@PAPAVCPEDef@PS@@0P6A_NPBV23@1@Z@Z 1000ed50 f i PSLibrary.obj
 0001:0000df40       ??$make_heap@PAPAVCPEDef@PS@@P6A_NPBV12@0@Z@std@@YAXPAPAVCPEDef@PS@@0P6A_NPBV12@1@Z@Z 1000ef40 f i PSLibrary.obj
 0001:0000df60       ??$sort_heap@PAPAVCPEDef@PS@@P6A_NPBV12@0@Z@std@@YAXPAPAVCPEDef@PS@@0P6A_NPBV12@1@Z@Z 1000ef60 f i PSLibrary.obj
 0001:0000df70       ??$_Insertion_sort@PAPAVCPEDef@PS@@P6A_NPBV12@0@Z@std@@YAXPAPAVCPEDef@PS@@0P6A_NPBV12@1@Z@Z 1000ef70 f i PSLibrary.obj
 0001:0000df80       ??$_Unguarded_partition@PAPAVCPGDef@PS@@P6A_NPBV12@0@Z@std@@YA?AU?$pair@PAPAVCPGDef@PS@@PAPAV12@@0@PAPAVCPGDef@PS@@0P6A_NPBV23@1@Z@Z 1000ef80 f i PSLibrary.obj
 0001:0000e170       ??$make_heap@PAPAVCPGDef@PS@@P6A_NPBV12@0@Z@std@@YAXPAPAVCPGDef@PS@@0P6A_NPBV12@1@Z@Z 1000f170 f i PSLibrary.obj
 0001:0000e190       ??$sort_heap@PAPAVCPGDef@PS@@P6A_NPBV12@0@Z@std@@YAXPAPAVCPGDef@PS@@0P6A_NPBV12@1@Z@Z 1000f190 f i PSLibrary.obj
 0001:0000e1a0       ??$_Insertion_sort@PAPAVCPGDef@PS@@P6A_NPBV12@0@Z@std@@YAXPAPAVCPGDef@PS@@0P6A_NPBV12@1@Z@Z 1000f1a0 f i PSLibrary.obj
 0001:0000e1b0       ??$_Fn@V?$xalloc@PAVCPEDef@PS@@@@PAVCPEDef@PS@@AAPAV23@@_Alloc_construct@std@@SAXHAAV?$xalloc@PAVCPEDef@PS@@@@PAPAVCPEDef@PS@@AAPAV34@@Z 1000f1b0 f i PSLibrary.obj
 0001:0000e1d0       ??$_Fn@V?$xalloc@PAVCPEDef@PS@@@@PAVCPEDef@PS@@ABQAV23@@_Alloc_construct@std@@SAXHAAV?$xalloc@PAVCPEDef@PS@@@@PAPAVCPEDef@PS@@ABQAV34@@Z 1000f1d0 f i PSLibrary.obj
 0001:0000e1f0       ??$_Fn@V?$xalloc@PAVCPGDef@PS@@@@PAVCPGDef@PS@@AAPAV23@@_Alloc_construct@std@@SAXHAAV?$xalloc@PAVCPGDef@PS@@@@PAPAVCPGDef@PS@@AAPAV34@@Z 1000f1f0 f i PSLibrary.obj
 0001:0000e210       ??$_Fn@V?$xalloc@PAVCPGDef@PS@@@@PAVCPGDef@PS@@ABQAV23@@_Alloc_construct@std@@SAXHAAV?$xalloc@PAVCPGDef@PS@@@@PAPAVCPGDef@PS@@ABQAV34@@Z 1000f210 f i PSLibrary.obj
 0001:0000e230       ??$_Fn@V?$xalloc@U?$_Tree_node@UFS_File@@PAX@std@@@@PAU?$_Tree_node@UFS_File@@PAX@std@@@_Alloc_destroy@std@@SAXU_Wrap_int@1@AAV?$xalloc@U?$_Tree_node@UFS_File@@PAX@std@@@@PAPAU?$_Tree_node@UFS_File@@PAX@1@@Z 1000f230 f i PSLibrary.obj
 0001:0000e240       ??$_Unchecked@PAPAVCPEDef@PS@@@std@@YAPAPAVCPEDef@PS@@PAPAV12@@Z 1000f240 f i PSLibrary.obj
 0001:0000e250       ??$_Uninit_move@PAPAVCPEDef@PS@@PAPAV12@U?$_Wrap_alloc@V?$xalloc@PAVCPEDef@PS@@@@@std@@@std@@YAPAPAVCPEDef@PS@@PAPAV12@00AAU?$_Wrap_alloc@V?$xalloc@PAVCPEDef@PS@@@@@0@@Z 1000f250 f i PSLibrary.obj
 0001:0000e270       ??$_Rechecked@PAPAVCPEDef@PS@@PAPAV12@@std@@YAAAPAPAVCPEDef@PS@@AAPAPAV12@PAPAV12@@Z 1000f270 f i PSLibrary.obj
 0001:0000e280       ??$_Unchecked@PAPAVCPGDef@PS@@@std@@YAPAPAVCPGDef@PS@@PAPAV12@@Z 1000f280 f i PSLibrary.obj
 0001:0000e290       ??$_Uninit_move@PAPAVCPGDef@PS@@PAPAV12@U?$_Wrap_alloc@V?$xalloc@PAVCPGDef@PS@@@@@std@@@std@@YAPAPAVCPGDef@PS@@PAPAV12@00AAU?$_Wrap_alloc@V?$xalloc@PAVCPGDef@PS@@@@@0@@Z 1000f290 f i PSLibrary.obj
 0001:0000e2b0       ??$_Rechecked@PAPAVCPGDef@PS@@PAPAV12@@std@@YAAAPAPAVCPGDef@PS@@AAPAPAV12@PAPAV12@@Z 1000f2b0 f i PSLibrary.obj
 0001:0000e2c0       ??$_Fn@V?$xalloc@U?$_Tree_node@UFS_File@@PAX@std@@@@UFS_File@@@_Alloc_destroy@std@@SAXU_Wrap_int@1@AAV?$xalloc@U?$_Tree_node@UFS_File@@PAX@std@@@@PAUFS_File@@@Z 1000f2c0 f i PSLibrary.obj
 0001:0000e2d0       ??$_Fn@V?$xalloc@U?$_Tree_node@UFS_File@@PAX@std@@@@PAU?$_Tree_node@UFS_File@@PAX@std@@AAPAU23@@_Alloc_construct@std@@SAXU_Wrap_int@1@AAV?$xalloc@U?$_Tree_node@UFS_File@@PAX@std@@@@PAPAU?$_Tree_node@UFS_File@@PAX@1@AAPAU41@@Z 1000f2d0 f i PSLibrary.obj
 0001:0000e2e0       ??_GFS_File@@QAEPAXI@Z     1000f2e0 f i PSLibrary.obj
 0001:0000e2f0       ?construct@?$xalloc@PAVCPEDef@PS@@@@QAEXPAPAVCPEDef@PS@@ABQAV23@@Z 1000f2f0 f i PSLibrary.obj
 0001:0000e310       ?construct@?$xalloc@PAVCPGDef@PS@@@@QAEXPAPAVCPGDef@PS@@ABQAV23@@Z 1000f310 f i PSLibrary.obj
 0001:0000e330       ??$_Iter_cat@PAPAVCPEDef@PS@@@std@@YA?AUrandom_access_iterator_tag@0@ABQAPAVCPEDef@PS@@@Z 1000f330 f i PSLibrary.obj
 0001:0000e340       ??$_Distance2@PAPAVCPEDef@PS@@H@std@@YAXPAPAVCPEDef@PS@@0AAHUrandom_access_iterator_tag@0@@Z 1000f340 f i PSLibrary.obj
 0001:0000e350       ??$_Advance@PAPAVCPEDef@PS@@H@std@@YAXAAPAPAVCPEDef@PS@@HUrandom_access_iterator_tag@0@@Z 1000f350 f i PSLibrary.obj
 0001:0000e360       ??$_Iter_cat@PAPAVCPGDef@PS@@@std@@YA?AUrandom_access_iterator_tag@0@ABQAPAVCPGDef@PS@@@Z 1000f360 f i PSLibrary.obj
 0001:0000e370       ??$_Distance2@PAPAVCPGDef@PS@@H@std@@YAXPAPAVCPGDef@PS@@0AAHUrandom_access_iterator_tag@0@@Z 1000f370 f i PSLibrary.obj
 0001:0000e380       ??$_Advance@PAPAVCPGDef@PS@@H@std@@YAXAAPAPAVCPGDef@PS@@HUrandom_access_iterator_tag@0@@Z 1000f380 f i PSLibrary.obj
 0001:0000e390       ??$_Median@PAPAVCPEDef@PS@@P6A_NPBV12@0@Z@std@@YAXPAPAVCPEDef@PS@@00P6A_NPBV12@1@Z@Z 1000f390 f i PSLibrary.obj
 0001:0000e560       ??$iter_swap@PAPAVCPEDef@PS@@PAPAV12@@std@@YAXPAPAVCPEDef@PS@@0@Z 1000f560 f i PSLibrary.obj
 0001:0000e570       ??$?0AAPAPAVCPEDef@PS@@AAPAPAV01@X@?$pair@PAPAVCPEDef@PS@@PAPAV12@@std@@QAE@AAPAPAVCPEDef@PS@@0@Z 1000f570 f i PSLibrary.obj
 0001:0000e590       ??$_Dist_type@PAPAVCPEDef@PS@@@std@@YAPAHPAPAVCPEDef@PS@@@Z 1000f590 f i PSLibrary.obj
 0001:0000e5a0       ??$_Val_type@PAPAVCPEDef@PS@@@std@@YAPAPAVCPEDef@PS@@PAPAV12@@Z 1000f5a0 f i PSLibrary.obj
 0001:0000e5b0       ??$_Make_heap@PAPAVCPEDef@PS@@HPAV12@P6A_NPBV12@0@Z@std@@YAXPAPAVCPEDef@PS@@0P6A_NPBV12@1@ZPAH0@Z 1000f5b0 f i PSLibrary.obj
 0001:0000e670       ??$_Sort_heap@PAPAVCPEDef@PS@@P6A_NPBV12@0@Z@std@@YAXPAPAVCPEDef@PS@@0P6A_NPBV12@1@Z@Z 1000f670 f i PSLibrary.obj
 0001:0000e6d0       ??$_Insertion_sort1@PAPAVCPEDef@PS@@P6A_NPBV12@0@ZPAV12@@std@@YAXPAPAVCPEDef@PS@@0P6A_NPBV12@1@Z0@Z 1000f6d0 f i PSLibrary.obj
 0001:0000e780       ??$_Median@PAPAVCPGDef@PS@@P6A_NPBV12@0@Z@std@@YAXPAPAVCPGDef@PS@@00P6A_NPBV12@1@Z@Z 1000f780 f i PSLibrary.obj
 0001:0000e950       ??$iter_swap@PAPAVCPGDef@PS@@PAPAV12@@std@@YAXPAPAVCPGDef@PS@@0@Z 1000f950 f i PSLibrary.obj
 0001:0000e960       ??$?0AAPAPAVCPGDef@PS@@AAPAPAV01@X@?$pair@PAPAVCPGDef@PS@@PAPAV12@@std@@QAE@AAPAPAVCPGDef@PS@@0@Z 1000f960 f i PSLibrary.obj
 0001:0000e980       ??$_Dist_type@PAPAVCPGDef@PS@@@std@@YAPAHPAPAVCPGDef@PS@@@Z 1000f980 f i PSLibrary.obj
 0001:0000e990       ??$_Val_type@PAPAVCPGDef@PS@@@std@@YAPAPAVCPGDef@PS@@PAPAV12@@Z 1000f990 f i PSLibrary.obj
 0001:0000e9a0       ??$_Make_heap@PAPAVCPGDef@PS@@HPAV12@P6A_NPBV12@0@Z@std@@YAXPAPAVCPGDef@PS@@0P6A_NPBV12@1@ZPAH0@Z 1000f9a0 f i PSLibrary.obj
 0001:0000ea60       ??$_Sort_heap@PAPAVCPGDef@PS@@P6A_NPBV12@0@Z@std@@YAXPAPAVCPGDef@PS@@0P6A_NPBV12@1@Z@Z 1000fa60 f i PSLibrary.obj
 0001:0000eac0       ??$_Insertion_sort1@PAPAVCPGDef@PS@@P6A_NPBV12@0@ZPAV12@@std@@YAXPAPAVCPGDef@PS@@0P6A_NPBV12@1@Z0@Z 1000fac0 f i PSLibrary.obj
 0001:0000eb70       ??$_Uninit_move@PAPAVCPEDef@PS@@PAPAV12@V?$xalloc@PAVCPEDef@PS@@@@PAV12@@std@@YAPAPAVCPEDef@PS@@PAPAV12@00AAU?$_Wrap_alloc@V?$xalloc@PAVCPEDef@PS@@@@@0@0U_Scalar_ptr_iterator_tag@0@@Z 1000fb70 f i PSLibrary.obj
 0001:0000eb90       ??$_Uninit_move@PAPAVCPGDef@PS@@PAPAV12@V?$xalloc@PAVCPGDef@PS@@@@PAV12@@std@@YAPAPAVCPGDef@PS@@PAPAV12@00AAU?$_Wrap_alloc@V?$xalloc@PAVCPGDef@PS@@@@@0@0U_Scalar_ptr_iterator_tag@0@@Z 1000fb90 f i PSLibrary.obj
 0001:0000ebb0       ??$_Construct@PAVCPEDef@PS@@ABQAV12@@std@@YAXPAPAVCPEDef@PS@@ABQAV12@@Z 1000fbb0 f i PSLibrary.obj
 0001:0000ebc0       ??$_Construct@PAVCPGDef@PS@@ABQAV12@@std@@YAXPAPAVCPGDef@PS@@ABQAV12@@Z 1000fbc0 f i PSLibrary.obj
 0001:0000ebd0       ??$_Med3@PAPAVCPEDef@PS@@P6A_NPBV12@0@Z@std@@YAXPAPAVCPEDef@PS@@00P6A_NPBV12@1@Z@Z 1000fbd0 f i PSLibrary.obj
 0001:0000ec30       ??$swap@PAVCPEDef@PS@@@std@@YAXAAPAVCPEDef@PS@@0@Z 1000fc30 f i PSLibrary.obj
 0001:0000ec40       ??$forward@AAPAPAVCPEDef@PS@@@std@@YAAAPAPAVCPEDef@PS@@AAPAPAV12@@Z 1000fc40 f i PSLibrary.obj
 0001:0000ec50       ??$_Move@AAPAVCPEDef@PS@@@std@@YA$$QAPAVCPEDef@PS@@AAPAV12@@Z 1000fc50 f i PSLibrary.obj
 0001:0000ec60       ??$_Adjust_heap@PAPAVCPEDef@PS@@HPAV12@P6A_NPBV12@0@Z@std@@YAXPAPAVCPEDef@PS@@HH$$QAPAV12@P6A_NPBV12@2@Z@Z 1000fc60 f i PSLibrary.obj
 0001:0000ed10       ??$_Pop_heap@PAPAVCPEDef@PS@@P6A_NPBV12@0@Z@std@@YAXPAPAVCPEDef@PS@@0P6A_NPBV12@1@Z@Z 1000fd10 f i PSLibrary.obj
 0001:0000ed40       ??$_Move_backward@PAPAVCPEDef@PS@@PAPAV12@@std@@YAPAPAVCPEDef@PS@@PAPAV12@00@Z 1000fd40 f i PSLibrary.obj
 0001:0000ed60       ??$_Med3@PAPAVCPGDef@PS@@P6A_NPBV12@0@Z@std@@YAXPAPAVCPGDef@PS@@00P6A_NPBV12@1@Z@Z 1000fd60 f i PSLibrary.obj
 0001:0000edc0       ??$swap@PAVCPGDef@PS@@@std@@YAXAAPAVCPGDef@PS@@0@Z 1000fdc0 f i PSLibrary.obj
 0001:0000edd0       ??$forward@AAPAPAVCPGDef@PS@@@std@@YAAAPAPAVCPGDef@PS@@AAPAPAV12@@Z 1000fdd0 f i PSLibrary.obj
 0001:0000ede0       ??$_Move@AAPAVCPGDef@PS@@@std@@YA$$QAPAVCPGDef@PS@@AAPAV12@@Z 1000fde0 f i PSLibrary.obj
 0001:0000edf0       ??$_Adjust_heap@PAPAVCPGDef@PS@@HPAV12@P6A_NPBV12@0@Z@std@@YAXPAPAVCPGDef@PS@@HH$$QAPAV12@P6A_NPBV12@2@Z@Z 1000fdf0 f i PSLibrary.obj
 0001:0000eea0       ??$_Pop_heap@PAPAVCPGDef@PS@@P6A_NPBV12@0@Z@std@@YAXPAPAVCPGDef@PS@@0P6A_NPBV12@1@Z@Z 1000fea0 f i PSLibrary.obj
 0001:0000eed0       ??$_Move_backward@PAPAVCPGDef@PS@@PAPAV12@@std@@YAPAPAVCPGDef@PS@@PAPAV12@00@Z 1000fed0 f i PSLibrary.obj
 0001:0000eef0       ??$_Uninit_move@PAPAVCPEDef@PS@@PAPAV12@V?$xalloc@PAVCPEDef@PS@@@@PAV12@@std@@YAPAPAVCPEDef@PS@@PAPAV12@00AAU?$_Wrap_alloc@V?$xalloc@PAVCPEDef@PS@@@@@0@0U_Nonscalar_ptr_iterator_tag@0@@Z 1000fef0 f i PSLibrary.obj
 0001:0000ef60       ??$_Uninit_move@PAPAVCPGDef@PS@@PAPAV12@V?$xalloc@PAVCPGDef@PS@@@@PAV12@@std@@YAPAPAVCPGDef@PS@@PAPAV12@00AAU?$_Wrap_alloc@V?$xalloc@PAVCPGDef@PS@@@@@0@0U_Nonscalar_ptr_iterator_tag@0@@Z 1000ff60 f i PSLibrary.obj
 0001:0000efd0       ??$_Push_heap@PAPAVCPEDef@PS@@HPAV12@P6A_NPBV12@0@Z@std@@YAXPAPAVCPEDef@PS@@HH$$QAPAV12@P6A_NPBV12@2@Z@Z 1000ffd0 f i PSLibrary.obj
 0001:0000f040       ??$_Pop_heap_0@PAPAVCPEDef@PS@@PAV12@P6A_NPBV12@0@Z@std@@YAXPAPAVCPEDef@PS@@0P6A_NPBV12@1@Z0@Z 10010040 f i PSLibrary.obj
 0001:0000f070       ??$_Move_backward@PAPAVCPEDef@PS@@PAPAV12@@std@@YAPAPAVCPEDef@PS@@PAPAV12@00U_Scalar_ptr_iterator_tag@0@@Z 10010070 f i PSLibrary.obj
 0001:0000f090       ??$_Push_heap@PAPAVCPGDef@PS@@HPAV12@P6A_NPBV12@0@Z@std@@YAXPAPAVCPGDef@PS@@HH$$QAPAV12@P6A_NPBV12@2@Z@Z 10010090 f i PSLibrary.obj
 0001:0000f100       ??$_Pop_heap_0@PAPAVCPGDef@PS@@PAV12@P6A_NPBV12@0@Z@std@@YAXPAPAVCPGDef@PS@@0P6A_NPBV12@1@Z0@Z 10010100 f i PSLibrary.obj
 0001:0000f130       ??$_Move_backward@PAPAVCPGDef@PS@@PAPAV12@@std@@YAPAPAVCPGDef@PS@@PAPAV12@00U_Scalar_ptr_iterator_tag@0@@Z 10010130 f i PSLibrary.obj
 0001:0000f150       ??$construct@PAVCPEDef@PS@@PAV12@@?$_Wrap_alloc@V?$xalloc@PAVCPEDef@PS@@@@@std@@QAEXPAPAVCPEDef@PS@@$$QAPAV23@@Z 10010150 f i PSLibrary.obj
 0001:0000f170       ??$destroy@PAVCPEDef@PS@@@?$_Wrap_alloc@V?$xalloc@PAVCPEDef@PS@@@@@std@@QAEXPAPAVCPEDef@PS@@@Z 10010170 f i PSLibrary.obj
 0001:0000f180       ??$construct@PAVCPGDef@PS@@PAV12@@?$_Wrap_alloc@V?$xalloc@PAVCPGDef@PS@@@@@std@@QAEXPAPAVCPGDef@PS@@$$QAPAV23@@Z 10010180 f i PSLibrary.obj
 0001:0000f1a0       ??$destroy@PAVCPGDef@PS@@@?$_Wrap_alloc@V?$xalloc@PAVCPGDef@PS@@@@@std@@QAEXPAPAVCPGDef@PS@@@Z 100101a0 f i PSLibrary.obj
 0001:0000f1b0       ??$_Pop_heap@PAPAVCPEDef@PS@@HPAV12@P6A_NPBV12@0@Z@std@@YAXPAPAVCPEDef@PS@@00$$QAPAV12@P6A_NPBV12@2@ZPAH@Z 100101b0 f i PSLibrary.obj
 0001:0000f1e0       ??$_Pop_heap@PAPAVCPGDef@PS@@HPAV12@P6A_NPBV12@0@Z@std@@YAXPAPAVCPGDef@PS@@00$$QAPAV12@P6A_NPBV12@2@ZPAH@Z 100101e0 f i PSLibrary.obj
 0001:0000f210       ??$forward@PAVCPEDef@PS@@@std@@YA$$QAPAVCPEDef@PS@@AAPAV12@@Z 10010210 f i PSLibrary.obj
 0001:0000f220       ??$construct@PAVCPEDef@PS@@PAV12@@?$allocator_traits@V?$xalloc@PAVCPEDef@PS@@@@@std@@SAXAAV?$xalloc@PAVCPEDef@PS@@@@PAPAVCPEDef@PS@@$$QAPAV34@@Z 10010220 f i PSLibrary.obj
 0001:0000f230       ??$destroy@PAVCPEDef@PS@@@?$allocator_traits@V?$xalloc@PAVCPEDef@PS@@@@@std@@SAXAAV?$xalloc@PAVCPEDef@PS@@@@PAPAVCPEDef@PS@@@Z 10010230 f i PSLibrary.obj
 0001:0000f240       ??$forward@PAVCPGDef@PS@@@std@@YA$$QAPAVCPGDef@PS@@AAPAV12@@Z 10010240 f i PSLibrary.obj
 0001:0000f250       ??$construct@PAVCPGDef@PS@@PAV12@@?$allocator_traits@V?$xalloc@PAVCPGDef@PS@@@@@std@@SAXAAV?$xalloc@PAVCPGDef@PS@@@@PAPAVCPGDef@PS@@$$QAPAV34@@Z 10010250 f i PSLibrary.obj
 0001:0000f260       ??$destroy@PAVCPGDef@PS@@@?$allocator_traits@V?$xalloc@PAVCPGDef@PS@@@@@std@@SAXAAV?$xalloc@PAVCPGDef@PS@@@@PAPAVCPGDef@PS@@@Z 10010260 f i PSLibrary.obj
 0001:0000f270       ??$_Fn@V?$xalloc@PAVCPEDef@PS@@@@PAVCPEDef@PS@@PAV23@@_Alloc_construct@std@@SAXHAAV?$xalloc@PAVCPEDef@PS@@@@PAPAVCPEDef@PS@@$$QAPAV34@@Z 10010270 f i PSLibrary.obj
 0001:0000f290       ??$_Fn@V?$xalloc@PAVCPEDef@PS@@@@PAVCPEDef@PS@@@_Alloc_destroy@std@@SAXHAAV?$xalloc@PAVCPEDef@PS@@@@PAPAVCPEDef@PS@@@Z 10010290 f i PSLibrary.obj
 0001:0000f2a0       ??$_Fn@V?$xalloc@PAVCPGDef@PS@@@@PAVCPGDef@PS@@PAV23@@_Alloc_construct@std@@SAXHAAV?$xalloc@PAVCPGDef@PS@@@@PAPAVCPGDef@PS@@$$QAPAV34@@Z 100102a0 f i PSLibrary.obj
 0001:0000f2c0       ??$_Fn@V?$xalloc@PAVCPGDef@PS@@@@PAVCPGDef@PS@@@_Alloc_destroy@std@@SAXHAAV?$xalloc@PAVCPGDef@PS@@@@PAPAVCPGDef@PS@@@Z 100102c0 f i PSLibrary.obj
 0001:0000f2d0       ?destroy@?$xalloc@PAVCPEDef@PS@@@@QAEXPAPAVCPEDef@PS@@@Z 100102d0 f i PSLibrary.obj
 0001:0000f2e0       ?destroy@?$xalloc@PAVCPGDef@PS@@@@QAEXPAPAVCPGDef@PS@@@Z 100102e0 f i PSLibrary.obj
 0001:0000f2f0       ??$_Destroy@PAVCPEDef@PS@@@std@@YAXPAPAVCPEDef@PS@@@Z 100102f0 f i PSLibrary.obj
 0001:0000f300       ??$_Destroy@PAVCPGDef@PS@@@std@@YAXPAPAVCPGDef@PS@@@Z 10010300 f i PSLibrary.obj
 0001:0000f310       ??$xr_free@PAVCPGDef@PS@@@@YAXAAPAPAVCPGDef@PS@@@Z 10010310 f i PSLibrary.obj
 0001:0000f330       ?deallocate@?$xalloc@PAVCPGDef@PS@@@@QBEXPAPAVCPGDef@PS@@I@Z 10010330 f i PSLibrary.obj
 0001:0000f350       ?deallocate@?$_Wrap_alloc@V?$xalloc@PAVCPGDef@PS@@@@@std@@QAEXPAPAVCPGDef@PS@@I@Z 10010350 f i PSLibrary.obj
 0001:0000f370       ??$xr_free@PAVCPEDef@PS@@@@YAXAAPAPAVCPEDef@PS@@@Z 10010370 f i PSLibrary.obj
 0001:0000f390       ?deallocate@?$xalloc@PAVCPEDef@PS@@@@QBEXPAPAVCPEDef@PS@@I@Z 10010390 f i PSLibrary.obj
 0001:0000f3b0       ?deallocate@?$_Wrap_alloc@V?$xalloc@PAVCPEDef@PS@@@@@std@@QAEXPAPAVCPEDef@PS@@I@Z 100103b0 f i PSLibrary.obj
 0001:0000f3d0       ??$_Destroy_range@U?$_Wrap_alloc@V?$xalloc@PAVCPGDef@PS@@@@@std@@@std@@YAXPAPAVCPGDef@PS@@0AAU?$_Wrap_alloc@V?$xalloc@PAVCPGDef@PS@@@@@0@U_Scalar_ptr_iterator_tag@0@@Z 100103d0 f i PSLibrary.obj
 0001:0000f3e0       ??$_Ptr_cat@PAVCPGDef@PS@@PAV12@@std@@YA?AU_Scalar_ptr_iterator_tag@0@PAPAVCPGDef@PS@@0@Z 100103e0 f i PSLibrary.obj
 0001:0000f3f0       ??$_Destroy_range@U?$_Wrap_alloc@V?$xalloc@PAVCPGDef@PS@@@@@std@@@std@@YAXPAPAVCPGDef@PS@@0AAU?$_Wrap_alloc@V?$xalloc@PAVCPGDef@PS@@@@@0@@Z 100103f0 f i PSLibrary.obj
 0001:0000f400       ?_Destroy@?$vector@PAVCPGDef@PS@@V?$xalloc@PAVCPGDef@PS@@@@@std@@IAEXPAPAVCPGDef@PS@@0@Z 10010400 f i PSLibrary.obj
 0001:0000f410       ??0?$xalloc@PAVCPGDef@PS@@@@QAE@XZ 10010410 f i PSLibrary.obj
 0001:0000f420       ??0?$_Wrap_alloc@V?$xalloc@PAVCPGDef@PS@@@@@std@@QAE@XZ 10010420 f i PSLibrary.obj
 0001:0000f430       ?_Getal@?$_Vector_alloc@$0A@U?$_Vec_base_types@PAVCPGDef@PS@@V?$xalloc@PAVCPGDef@PS@@@@@std@@@std@@QBE?AU?$_Wrap_alloc@V?$xalloc@PAVCPGDef@PS@@@@@2@XZ 10010430 f i PSLibrary.obj
 0001:0000f440       ??$_Destroy_range@U?$_Wrap_alloc@V?$xalloc@PAVCPEDef@PS@@@@@std@@@std@@YAXPAPAVCPEDef@PS@@0AAU?$_Wrap_alloc@V?$xalloc@PAVCPEDef@PS@@@@@0@U_Scalar_ptr_iterator_tag@0@@Z 10010440 f i PSLibrary.obj
 0001:0000f450       ??$_Ptr_cat@PAVCPEDef@PS@@PAV12@@std@@YA?AU_Scalar_ptr_iterator_tag@0@PAPAVCPEDef@PS@@0@Z 10010450 f i PSLibrary.obj
 0001:0000f460       ??$_Destroy_range@U?$_Wrap_alloc@V?$xalloc@PAVCPEDef@PS@@@@@std@@@std@@YAXPAPAVCPEDef@PS@@0AAU?$_Wrap_alloc@V?$xalloc@PAVCPEDef@PS@@@@@0@@Z 10010460 f i PSLibrary.obj
 0001:0000f470       ?_Destroy@?$vector@PAVCPEDef@PS@@V?$xalloc@PAVCPEDef@PS@@@@@std@@IAEXPAPAVCPEDef@PS@@0@Z 10010470 f i PSLibrary.obj
 0001:0000f480       ??0?$xalloc@PAVCPEDef@PS@@@@QAE@XZ 10010480 f i PSLibrary.obj
 0001:0000f490       ??0?$_Wrap_alloc@V?$xalloc@PAVCPEDef@PS@@@@@std@@QAE@XZ 10010490 f i PSLibrary.obj
 0001:0000f4a0       ?_Getal@?$_Vector_alloc@$0A@U?$_Vec_base_types@PAVCPEDef@PS@@V?$xalloc@PAVCPEDef@PS@@@@@std@@@std@@QBE?AU?$_Wrap_alloc@V?$xalloc@PAVCPEDef@PS@@@@@2@XZ 100104a0 f i PSLibrary.obj
 0001:0000f4b0       ?_set@shared_str@@QAEXPBD@Z 100104b0 f i PSLibrary.obj
 0001:0000f4f0       ??4shared_str@@QAEAAV0@PBD@Z 100104f0 f i PSLibrary.obj
 0001:0000f540       ?c_str@?$basic_string@DU?$char_traits@D@std@@V?$xalloc@D@@@std@@QBEPBDXZ 10010540 f i PSLibrary.obj
 0001:0000f550       ?end@?$vector@PAVCPGDef@PS@@V?$xalloc@PAVCPGDef@PS@@@@@std@@QAE?AV?$_Vector_iterator@V?$_Vector_val@U?$_Simple_types@PAVCPGDef@PS@@@std@@@std@@@2@XZ 10010550 f i PSLibrary.obj
 0001:0000f560       ??0?$_Vector_const_iterator@V?$_Vector_val@U?$_Simple_types@PAVCPGDef@PS@@@std@@@std@@@std@@QAE@PAPAVCPGDef@PS@@PBU_Container_base0@1@@Z 10010560 f i PSLibrary.obj
 0001:0000f570       ??0?$_Vector_iterator@V?$_Vector_val@U?$_Simple_types@PAVCPGDef@PS@@@std@@@std@@@std@@QAE@PAPAVCPGDef@PS@@PBU_Container_base0@1@@Z 10010570 f i PSLibrary.obj
 0001:0000f580       ?begin@?$vector@PAVCPGDef@PS@@V?$xalloc@PAVCPGDef@PS@@@@@std@@QAE?AV?$_Vector_iterator@V?$_Vector_val@U?$_Simple_types@PAVCPGDef@PS@@@std@@@std@@@2@XZ 10010580 f i PSLibrary.obj
 0001:0000f590       ?end@?$vector@PAVCPEDef@PS@@V?$xalloc@PAVCPEDef@PS@@@@@std@@QAE?AV?$_Vector_iterator@V?$_Vector_val@U?$_Simple_types@PAVCPEDef@PS@@@std@@@std@@@2@XZ 10010590 f i PSLibrary.obj
 0001:0000f5a0       ??0?$_Vector_const_iterator@V?$_Vector_val@U?$_Simple_types@PAVCPEDef@PS@@@std@@@std@@@std@@QAE@PAPAVCPEDef@PS@@PBU_Container_base0@1@@Z 100105a0 f i PSLibrary.obj
 0001:0000f5b0       ??0?$_Vector_iterator@V?$_Vector_val@U?$_Simple_types@PAVCPEDef@PS@@@std@@@std@@@std@@QAE@PAPAVCPEDef@PS@@PBU_Container_base0@1@@Z 100105b0 f i PSLibrary.obj
 0001:0000f5c0       ?begin@?$vector@PAVCPEDef@PS@@V?$xalloc@PAVCPEDef@PS@@@@@std@@QAE?AV?$_Vector_iterator@V?$_Vector_val@U?$_Simple_types@PAVCPEDef@PS@@@std@@@std@@@2@XZ 100105c0 f i PSLibrary.obj
 0001:0000f5d0       ?xr_strcmp@@YAHABVshared_str@@PBD@Z 100105d0 f i PSLibrary.obj
 0001:0000f610       ?equal@shared_str@@QBE_NABV1@@Z 10010610 f i PSLibrary.obj
 0001:0000f620       ?xr_strcmp@@YAHABVshared_str@@0@Z 10010620 f i PSLibrary.obj
 0001:0000f670       ??Dshared_str@@QBEPBDXZ    10010670 f i PSLibrary.obj
 0001:0000f680       ?Name@CPEDef@PS@@QBEPBDXZ  10010680 f i PSLibrary.obj
 0001:0000f690       ??0CGlow@@QAE@XZ           10010690 f i r2.obj
 0001:0000f6b0       ?set_active@CGlow@@UAEX_N@Z 100106b0 f i r2.obj
 0001:0000f6c0       ?get_active@CGlow@@UAE_NXZ 100106c0 f i r2.obj
 0001:0000f6d0       ?set_position@CGlow@@UAEXABU?$_vector3@M@@@Z 100106d0 f i r2.obj
 0001:0000f6e0       ?set_direction@CGlow@@UAEXABU?$_vector3@M@@@Z 100106e0 f i r2.obj
 0001:0000f6f0       ?set_radius@CGlow@@UAEXM@Z 100106f0 f i r2.obj
 0001:0000f700       ?set_texture@CGlow@@UAEXPBD@Z 10010700 f i r2.obj
 0001:0000f710       ?set_color@CGlow@@UAEXABU?$_color@M@@@Z 10010710 f i r2.obj
 0001:0000f720       ?set_color@CGlow@@UAEXMMM@Z 10010720 f i r2.obj
 0001:0000f730       ??_ECGlow@@UAEPAXI@Z       10010730 f i * CIL library *:* CIL module *
 0001:0000f730       ??_GCGlow@@UAEPAXI@Z       10010730 f i r2.obj
 0001:0000f760       ??1CGlow@@UAE@XZ           10010760 f i r2.obj
 0001:0000f770       ?rimp_select_sh_dynamic@CRender@@QAEPAUShaderElement@@PAVIRender_Visual@@M@Z 10010770 f   r2.obj
 0001:0000f7c0       ?rimp_select_sh_static@CRender@@QAEPAUShaderElement@@PAVIRender_Visual@@M@Z 100107c0 f   r2.obj
 0001:0000f810       ?setup@cl_parallax@@EAEXPAUR_constant@@@Z 10010810 f i r2.obj
 0001:0000f8c0       ??0cl_parallax@@QAE@XZ     100108c0 f i r2.obj
 0001:0000f8d0       ??1cl_parallax@@UAE@XZ     100108d0 f i r2.obj
 0001:0000f8e0       ??_Gcl_parallax@@UAEPAXI@Z 100108e0 f i r2.obj
 0001:0000f8e0       ??_Ecl_parallax@@UAEPAXI@Z 100108e0 f i * CIL library *:* CIL module *
 0001:0000f910       ?setup@cl_pos_decompress_params@@EAEXPAUR_constant@@@Z 10010910 f i r2.obj
 0001:0000fa40       ??0cl_pos_decompress_params@@QAE@XZ 10010a40 f i r2.obj
 0001:0000fa50       ??1cl_pos_decompress_params@@UAE@XZ 10010a50 f i r2.obj
 0001:0000fa60       ??_Gcl_pos_decompress_params@@UAEPAXI@Z 10010a60 f i r2.obj
 0001:0000fa60       ??_Ecl_pos_decompress_params@@UAEPAXI@Z 10010a60 f i * CIL library *:* CIL module *
 0001:0000fa90       ?setup@cl_pos_decompress_params2@@EAEXPAUR_constant@@@Z 10010a90 f i r2.obj
 0001:0000fb70       ??0cl_pos_decompress_params2@@QAE@XZ 10010b70 f i r2.obj
 0001:0000fb80       ??1cl_pos_decompress_params2@@UAE@XZ 10010b80 f i r2.obj
 0001:0000fb90       ??_Gcl_pos_decompress_params2@@UAEPAXI@Z 10010b90 f i r2.obj
 0001:0000fb90       ??_Ecl_pos_decompress_params2@@UAEPAXI@Z 10010b90 f i * CIL library *:* CIL module *
 0001:0000fbc0       ?setup@cl_water_intensity@@EAEXPAUR_constant@@@Z 10010bc0 f i r2.obj
 0001:0000fc60       ??0cl_water_intensity@@QAE@XZ 10010c60 f i r2.obj
 0001:0000fc70       ??1cl_water_intensity@@UAE@XZ 10010c70 f i r2.obj
 0001:0000fc80       ??_Gcl_water_intensity@@UAEPAXI@Z 10010c80 f i r2.obj
 0001:0000fc80       ??_Ecl_water_intensity@@UAEPAXI@Z 10010c80 f i * CIL library *:* CIL module *
 0001:0000fcb0       ?setup@cl_tree_amplitude_intensity@@EAEXPAUR_constant@@@Z 10010cb0 f i r2.obj
 0001:0000fd50       ??0cl_tree_amplitude_intensity@@QAE@XZ 10010d50 f i r2.obj
 0001:0000fd60       ??1cl_tree_amplitude_intensity@@UAE@XZ 10010d60 f i r2.obj
 0001:0000fd70       ??_Ecl_tree_amplitude_intensity@@UAEPAXI@Z 10010d70 f i * CIL library *:* CIL module *
 0001:0000fd70       ??_Gcl_tree_amplitude_intensity@@UAEPAXI@Z 10010d70 f i r2.obj
 0001:0000fda0       ?setup@cl_sun_shafts_intensity@@EAEXPAUR_constant@@@Z 10010da0 f i r2.obj
 0001:0000fe40       ??0cl_sun_shafts_intensity@@QAE@XZ 10010e40 f i r2.obj
 0001:0000fe50       ??1cl_sun_shafts_intensity@@UAE@XZ 10010e50 f i r2.obj
 0001:0000fe60       ??_Ecl_sun_shafts_intensity@@UAEPAXI@Z 10010e60 f i * CIL library *:* CIL module *
 0001:0000fe60       ??_Gcl_sun_shafts_intensity@@UAEPAXI@Z 10010e60 f i r2.obj
 0001:0000fe90       ?create@CRender@@UAEXXZ    10010e90 f   r2.obj
 0001:000108e0       ?destroy@CRender@@UAEXXZ   100118e0 f   r2.obj
 0001:000109f0       ?reset_begin@CRender@@UAEXXZ 100119f0 f   r2.obj
 0001:00010ba0       ?reset_end@CRender@@UAEXXZ 10011ba0 f   r2.obj
 0001:00010cd0       ?OnFrame@CRender@@UAEXXZ   10011cd0 f   r2.obj
 0001:00010d60       ?is_sun@CRender@@UAEHXZ    10011d60 f   r2.obj
 0001:00010de0       ?ros_create@CRender@@UAEPAVIRender_ObjectSpecific@@PAVIRenderable@@@Z 10011de0 f   r2.obj
 0001:00010e10       ?ros_destroy@CRender@@UAEXAAPAVIRender_ObjectSpecific@@@Z 10011e10 f   r2.obj
 0001:00010e50       ?model_Create@CRender@@UAEPAVIRender_Visual@@PBDPAVIReader@@@Z 10011e50 f   r2.obj
 0001:00010e60       ?model_CreateChild@CRender@@UAEPAVIRender_Visual@@PBDPAVIReader@@@Z 10011e60 f   r2.obj
 0001:00010e70       ?model_Duplicate@CRender@@UAEPAVIRender_Visual@@PAV2@@Z 10011e70 f   r2.obj
 0001:00010e80       ?model_Delete@CRender@@UAEXAAPAVIRender_Visual@@H@Z 10011e80 f   r2.obj
 0001:00010e90       ?model_CreateDM@CRender@@UAEPAVIRender_DetailModel@@PAVIReader@@@Z 10011e90 f   r2.obj
 0001:00010ee0       ?model_Delete@CRender@@UAEXAAPAVIRender_DetailModel@@@Z 10011ee0 f   r2.obj
 0001:00010f30       ?model_CreatePE@CRender@@QAEPAVIRender_Visual@@PBD@Z 10011f30 f   r2.obj
 0001:00010fb0       ?model_CreateParticles@CRender@@UAEPAVIRender_Visual@@PBD@Z 10011fb0 f   r2.obj
 0001:00011060       ?models_Prefetch@CRender@@UAEXXZ 10012060 f   r2.obj
 0001:00011070       ?models_Clear@CRender@@UAEXH@Z 10012070 f   r2.obj
 0001:00011080       ?getShader@CRender@@UAE?AV?$resptr_core@UShader@@Uresptrcode_shader@@@@H@Z 10012080 f   r2.obj
 0001:000110a0       ?getPortal@CRender@@QAEPAVIRender_Portal@@H@Z 100120a0 f   r2.obj
 0001:000110b0       ?getSector@CRender@@UAEPAVIRender_Sector@@H@Z 100120b0 f   r2.obj
 0001:000110c0       ?getSectorActive@CRender@@QAEPAVIRender_Sector@@XZ 100120c0 f   r2.obj
 0001:000110d0       ?getVisual@CRender@@UAEPAVIRender_Visual@@H@Z 100120d0 f   r2.obj
 0001:000110e0       ?getVB_Format@CRender@@QAEPAU_D3DVERTEXELEMENT9@@HH@Z 100120e0 f   r2.obj
 0001:00011110       ?getVB@CRender@@QAEPAUIDirect3DVertexBuffer9@@HH@Z 10012110 f   r2.obj
 0001:00011130       ?getIB@CRender@@QAEPAUIDirect3DIndexBuffer9@@HH@Z 10012130 f   r2.obj
 0001:00011150       ?getSWI@CRender@@QAEPAUFSlideWindowItem@@H@Z 10012150 f   r2.obj
 0001:00011170       ?getTarget@CRender@@UAEPAVIRender_Target@@XZ 10012170 f   r2.obj
 0001:00011180       ?light_create@CRender@@UAEPAVIRender_Light@@XZ 10012180 f   r2.obj
 0001:000111c0       ?glow_create@CRender@@UAEPAVIRender_Glow@@XZ 100121c0 f   r2.obj
 0001:000111f0       ?flush@CRender@@UAEXXZ     100121f0 f   r2.obj
 0001:00011200       ?occ_visible@CRender@@UAEHAAUvis_data@@@Z 10012200 f   r2.obj
 0001:00011270       ?occ_visible@CRender@@UAEHAAV?$svector@U?$_vector3@M@@$0DA@@@@Z 10012270 f   r2.obj
 0001:00011280       ?occ_visible@CRender@@UAEHAAV?$_box3@M@@@Z 10012280 f   r2.obj
 0001:00011300       ?add_Visual@CRender@@UAEXPAVIRender_Visual@@@Z 10012300 f   r2.obj
 0001:00011310       ?add_Geometry@CRender@@UAEXPAVIRender_Visual@@@Z 10012310 f   r2.obj
 0001:00011340       ?add_StaticWallmark@CRender@@UAEXAAV?$resptr_core@UShader@@Uresptrcode_shader@@@@ABU?$_vector3@M@@MPAVTRI@CDB@@PAU3@@Z 10012340 f   r2.obj
 0001:00011390       ?add_StaticWallmark@CRender@@UAEXPAVIWallMarkArray@@ABU?$_vector3@M@@MPAVTRI@CDB@@PAU3@@Z 10012390 f   r2.obj
 0001:000113f0       ?add_StaticWallmark@CRender@@UAEXABV?$FactoryPtr@VIUIShader@@@@ABU?$_vector3@M@@MPAVTRI@CDB@@PAU3@@Z 100123f0 f   r2.obj
 0001:00011420       ?clear_static_wallmarks@CRender@@UAEXXZ 10012420 f   r2.obj
 0001:00011430       ?add_SkeletonWallmark@CRender@@UAEXV?$intrusive_ptr@VCSkeletonWallmark@@Uintrusive_base@@@@@Z 10012430 f   r2.obj
 0001:00011470       ?add_SkeletonWallmark@CRender@@UAEXPBU?$_matrix@M@@PAVCKinematics@@AAV?$resptr_core@UShader@@Uresptrcode_shader@@@@ABU?$_vector3@M@@3M@Z 10012470 f   r2.obj
 0001:000114a0       ?add_SkeletonWallmark@CRender@@UAEXPBU?$_matrix@M@@PAVCKinematics@@PAVIWallMarkArray@@ABU?$_vector3@M@@3M@Z 100124a0 f   r2.obj
 0001:00011500       ?add_Occluder@CRender@@UAEXAAV?$_box2@M@@@Z 10012500 f   r2.obj
 0001:00011510       ?set_Object@CRender@@UAEXPAVIRenderable@@@Z 10012510 f   r2.obj
 0001:00011520       ?rmNear@CRender@@UAEXXZ    10012520 f   r2.obj
 0001:00011580       ?rmFar@CRender@@UAEXXZ     10012580 f   r2.obj
 0001:000115e0       ?rmNormal@CRender@@UAEXXZ  100125e0 f   r2.obj
 0001:00011640       ??0CRender@@QAE@XZ         10012640 f   r2.obj
 0001:00011830       ??_GCRender@@UAEPAXI@Z     10012830 f i r2.obj
 0001:00011830       ??_ECRender@@UAEPAXI@Z     10012830 f i * CIL library *:* CIL module *
 0001:00011860       ??1?$xr_vector@PAVIRender_Portal@@V?$xalloc@PAVIRender_Portal@@@@@@QAE@XZ 10012860 f i r2.obj
 0001:00011890       ??1?$xr_vector@PAVIRender_Sector@@V?$xalloc@PAVIRender_Sector@@@@@@QAE@XZ 10012890 f i r2.obj
 0001:000118c0       ??1?$xr_vector@UFSlideWindowItem@@V?$xalloc@UFSlideWindowItem@@@@@@QAE@XZ 100128c0 f i r2.obj
 0001:000118f0       ??1?$xr_vector@V?$svector@U_D3DVERTEXELEMENT9@@$0EB@@@V?$xalloc@V?$svector@U_D3DVERTEXELEMENT9@@$0EB@@@@@@@QAE@XZ 100128f0 f i r2.obj
 0001:00011920       ??1?$xr_vector@PAUIDirect3DVertexBuffer9@@V?$xalloc@PAUIDirect3DVertexBuffer9@@@@@@QAE@XZ 10012920 f i r2.obj
 0001:00011950       ??1?$xr_vector@PAUIDirect3DIndexBuffer9@@V?$xalloc@PAUIDirect3DIndexBuffer9@@@@@@QAE@XZ 10012950 f i r2.obj
 0001:00011980       ??1?$xr_vector@PAVIRender_Visual@@V?$xalloc@PAVIRender_Visual@@@@@@QAE@XZ 10012980 f i r2.obj
 0001:000119b0       ??1?$xr_vector@PAVlight@@V?$xalloc@PAVlight@@@@@@QAE@XZ 100129b0 f i r2.obj
 0001:000119e0       ??0SMAP_Allocator@@QAE@XZ  100129e0 f i r2.obj
 0001:00011a10       ??1SMAP_Allocator@@QAE@XZ  10012a10 f i r2.obj
 0001:00011a70       ??0light_Package@@QAE@XZ   10012a70 f i r2.obj
 0001:00011ac0       ??1light_Package@@QAE@XZ   10012ac0 f i r2.obj
 0001:00011b40       ??1?$xr_vector@V?$_box3@M@@V?$doug_lea_alloc@V?$_box3@M@@@@@@QAE@XZ 10012b40 f i r2.obj
 0001:00011b70       ??1?$xr_vector@Ucascade@sun@@V?$xalloc@Ucascade@sun@@@@@@QAE@XZ 10012b70 f i r2.obj
 0001:00011bc0       ??1?$xr_vector@USMAP_Rect@@V?$xalloc@USMAP_Rect@@@@@@QAE@XZ 10012bc0 f i r2.obj
 0001:00011bf0       ??1?$xr_vector@U?$_vector2@H@@V?$xalloc@U?$_vector2@H@@@@@@QAE@XZ 10012bf0 f i r2.obj
 0001:00011c20       ??1CRender@@UAE@XZ         10012c20 f   r2.obj
 0001:00011ff0       ?Statistics@CRender@@UAEXPAVCGameFont@@@Z 10012ff0 f   r2.obj
 0001:000123d0       ?Open@includer@@UAGJW4_D3DXINCLUDE_TYPE@@PBDPBXPAPBXPAI@Z 100133d0 f i r2.obj
 0001:000124c0       ?Close@includer@@UAGJPBX@Z 100134c0 f i r2.obj
 0001:000124e0       ?shader_compile@CRender@@UAEJPBDPBKI00KAAPAX@Z 100134e0 f   r2.obj
 0001:00013150       ??0includer@@QAE@XZ        10014150 f i r2.obj
 0001:00013160       ??0ID3DXInclude@@QAE@XZ    10014160 f i r2.obj
 0001:000132e0       ?begin@?$_Tree@V?$_Tset_traits@UFS_File@@U?$less@UFS_File@@@std@@V?$xalloc@UFS_File@@@@$0A@@std@@@std@@QBE?AV?$_Tree_const_iterator@V?$_Tree_val@U?$_Tree_simple_types@UFS_File@@@std@@@std@@@2@XZ 100142e0 f i r2.obj
 0001:000132f0       ?end@?$_Tree@V?$_Tset_traits@UFS_File@@U?$less@UFS_File@@@std@@V?$xalloc@UFS_File@@@@$0A@@std@@@std@@QBE?AV?$_Tree_const_iterator@V?$_Tree_val@U?$_Tree_simple_types@UFS_File@@@std@@@std@@@2@XZ 100142f0 f i r2.obj
 0001:00013300       ?size@?$xr_vector@U_REG_INFO@@V?$xalloc@U_REG_INFO@@@@@@QBEIXZ 10014300 f i r2.obj
 0001:00013320       ?_get@?$resptr_base@UShaderElement@@@@QBEPAUShaderElement@@XZ 10014320 f i r2.obj
 0001:00013330       ??0?$resptr_core@UShader@@Uresptrcode_shader@@@@QAE@PAUShader@@_N@Z 10014330 f i r2.obj
 0001:00013340       ?Add@?$CRegistrator@VpureFrame@@@@QAEXPAVpureFrame@@HI@Z 10014340 f i r2.obj
 0001:00013390       ?Remove@?$CRegistrator@VpureFrame@@@@QAEXPAVpureFrame@@@Z 10014390 f i r2.obj
 0001:00013410       ?insert@?$vector@V?$FastDelegate0@X@fastdelegate@@V?$xalloc@V?$FastDelegate0@X@fastdelegate@@@@@std@@QAE?AV?$_Vector_iterator@V?$_Vector_val@U?$_Simple_types@V?$FastDelegate0@X@fastdelegate@@@std@@@std@@@2@V?$_Vector_const_iterator@V?$_Vector_val@U?$_Simple_types@V?$FastDelegate0@X@fastdelegate@@@std@@@std@@@2@$$QAV?$FastDelegate0@X@fastdelegate@@@Z 10014410 f i r2.obj
 0001:00013430       ??0?$xr_vector@PAVIRender_Sector@@V?$xalloc@PAVIRender_Sector@@@@@@QAE@XZ 10014430 f i r2.obj
 0001:00013450       ??A?$xr_vector@PAVIRender_Sector@@V?$xalloc@PAVIRender_Sector@@@@@@QAEAAPAVIRender_Sector@@I@Z 10014450 f i r2.obj
 0001:00013460       ??1?$vector@PAVIRender_Sector@@V?$xalloc@PAVIRender_Sector@@@@@std@@QAE@XZ 10014460 f i r2.obj
 0001:00013490       ??0?$xr_vector@V?$_box3@M@@V?$doug_lea_alloc@V?$_box3@M@@@@@@QAE@XZ 10014490 f i r2.obj
 0001:000134b0       ??1?$vector@V?$_box3@M@@V?$doug_lea_alloc@V?$_box3@M@@@@@std@@QAE@XZ 100144b0 f i r2.obj
 0001:000134e0       ??0?$xr_vector@PAVIRender_Visual@@V?$xalloc@PAVIRender_Visual@@@@@@QAE@XZ 100144e0 f i r2.obj
 0001:00013500       ??A?$xr_vector@PAVIRender_Visual@@V?$xalloc@PAVIRender_Visual@@@@@@QAEAAPAVIRender_Visual@@I@Z 10014500 f i r2.obj
 0001:00013510       ??1?$vector@PAVIRender_Visual@@V?$xalloc@PAVIRender_Visual@@@@@std@@QAE@XZ 10014510 f i r2.obj
 0001:00013540       ??0?$xr_vector@USMAP_Rect@@V?$xalloc@USMAP_Rect@@@@@@QAE@XZ 10014540 f i r2.obj
 0001:00013560       ??1?$vector@USMAP_Rect@@V?$xalloc@USMAP_Rect@@@@@std@@QAE@XZ 10014560 f i r2.obj
 0001:00013590       ??0?$xr_vector@U?$_vector2@H@@V?$xalloc@U?$_vector2@H@@@@@@QAE@XZ 10014590 f i r2.obj
 0001:000135b0       ??1?$vector@U?$_vector2@H@@V?$xalloc@U?$_vector2@H@@@@@std@@QAE@XZ 100145b0 f i r2.obj
 0001:000135e0       ??0?$xr_vector@PAVlight@@V?$xalloc@PAVlight@@@@@@QAE@XZ 100145e0 f i r2.obj
 0001:00013600       ?size@?$xr_vector@PAVlight@@V?$xalloc@PAVlight@@@@@@QBEIXZ 10014600 f i r2.obj
 0001:00013610       ?clear@?$xr_vector@PAVlight@@V?$xalloc@PAVlight@@@@@@QAEXXZ 10014610 f i r2.obj
 0001:00013620       ??A?$xr_vector@PAVlight@@V?$xalloc@PAVlight@@@@@@QAEAAPAVlight@@I@Z 10014620 f i r2.obj
 0001:00013630       ??1?$vector@PAVlight@@V?$xalloc@PAVlight@@@@@std@@QAE@XZ 10014630 f i r2.obj
 0001:00013660       ??0?$xr_vector@PAVIRender_Portal@@V?$xalloc@PAVIRender_Portal@@@@@@QAE@XZ 10014660 f i r2.obj
 0001:00013680       ??A?$xr_vector@PAVIRender_Portal@@V?$xalloc@PAVIRender_Portal@@@@@@QAEAAPAVIRender_Portal@@I@Z 10014680 f i r2.obj
 0001:00013690       ??1?$vector@PAVIRender_Portal@@V?$xalloc@PAVIRender_Portal@@@@@std@@QAE@XZ 10014690 f i r2.obj
 0001:000136c0       ??0?$xr_vector@UFSlideWindowItem@@V?$xalloc@UFSlideWindowItem@@@@@@QAE@XZ 100146c0 f i r2.obj
 0001:000136e0       ??A?$xr_vector@UFSlideWindowItem@@V?$xalloc@UFSlideWindowItem@@@@@@QAEAAUFSlideWindowItem@@I@Z 100146e0 f i r2.obj
 0001:000136f0       ??1?$vector@UFSlideWindowItem@@V?$xalloc@UFSlideWindowItem@@@@@std@@QAE@XZ 100146f0 f i r2.obj
 0001:00013720       ??0?$xr_vector@V?$resptr_core@UShader@@Uresptrcode_shader@@@@V?$xalloc@V?$resptr_core@UShader@@Uresptrcode_shader@@@@@@@@QAE@XZ 10014720 f i r2.obj
 0001:00013740       ??0?$xr_vector@V?$svector@U_D3DVERTEXELEMENT9@@$0EB@@@V?$xalloc@V?$svector@U_D3DVERTEXELEMENT9@@$0EB@@@@@@@QAE@XZ 10014740 f i r2.obj
 0001:00013760       ??A?$xr_vector@V?$svector@U_D3DVERTEXELEMENT9@@$0EB@@@V?$xalloc@V?$svector@U_D3DVERTEXELEMENT9@@$0EB@@@@@@@QAEAAV?$svector@U_D3DVERTEXELEMENT9@@$0EB@@@I@Z 10014760 f i r2.obj
 0001:00013770       ??1?$vector@V?$svector@U_D3DVERTEXELEMENT9@@$0EB@@@V?$xalloc@V?$svector@U_D3DVERTEXELEMENT9@@$0EB@@@@@@std@@QAE@XZ 10014770 f i r2.obj
 0001:000137a0       ??0?$xr_vector@PAUIDirect3DVertexBuffer9@@V?$xalloc@PAUIDirect3DVertexBuffer9@@@@@@QAE@XZ 100147a0 f i r2.obj
 0001:000137c0       ??A?$xr_vector@PAUIDirect3DVertexBuffer9@@V?$xalloc@PAUIDirect3DVertexBuffer9@@@@@@QAEAAPAUIDirect3DVertexBuffer9@@I@Z 100147c0 f i r2.obj
 0001:000137d0       ??1?$vector@PAUIDirect3DVertexBuffer9@@V?$xalloc@PAUIDirect3DVertexBuffer9@@@@@std@@QAE@XZ 100147d0 f i r2.obj
 0001:00013800       ??0?$xr_vector@PAUIDirect3DIndexBuffer9@@V?$xalloc@PAUIDirect3DIndexBuffer9@@@@@@QAE@XZ 10014800 f i r2.obj
 0001:00013820       ??A?$xr_vector@PAUIDirect3DIndexBuffer9@@V?$xalloc@PAUIDirect3DIndexBuffer9@@@@@@QAEAAPAUIDirect3DIndexBuffer9@@I@Z 10014820 f i r2.obj
 0001:00013830       ??1?$vector@PAUIDirect3DIndexBuffer9@@V?$xalloc@PAUIDirect3DIndexBuffer9@@@@@std@@QAE@XZ 10014830 f i r2.obj
 0001:00013860       ??0?$xr_vector@Ucascade@sun@@V?$xalloc@Ucascade@sun@@@@@@QAE@XZ 10014860 f i r2.obj
 0001:00013880       ??1?$vector@Ucascade@sun@@V?$xalloc@Ucascade@sun@@@@@std@@QAE@XZ 10014880 f i r2.obj
 0001:000138d0       ??A?$xr_vector@U_REG_INFO@@V?$xalloc@U_REG_INFO@@@@@@QAEAAU_REG_INFO@@I@Z 100148d0 f i r2.obj
 0001:000138e0       ?size@?$vector@U_REG_INFO@@V?$xalloc@U_REG_INFO@@@@@std@@QBEIXZ 100148e0 f i r2.obj
 0001:00013900       ?push_back@?$vector@U_REG_INFO@@V?$xalloc@U_REG_INFO@@@@@std@@QAEXABU_REG_INFO@@@Z 10014900 f i r2.obj
 0001:00013990       ?Resort@?$CRegistrator@VpureFrame@@@@QAEXXZ 10014990 f i r2.obj
 0001:00013a60       ??0?$vector@PAVIRender_Sector@@V?$xalloc@PAVIRender_Sector@@@@@std@@QAE@XZ 10014a60 f i r2.obj
 0001:00013a80       ?begin@?$vector@PAVIRender_Sector@@V?$xalloc@PAVIRender_Sector@@@@@std@@QAE?AV?$_Vector_iterator@V?$_Vector_val@U?$_Simple_types@PAVIRender_Sector@@@std@@@std@@@2@XZ 10014a80 f i r2.obj
 0001:00013a90       ?_Tidy@?$vector@PAVIRender_Sector@@V?$xalloc@PAVIRender_Sector@@@@@std@@IAEXXZ 10014a90 f i r2.obj
 0001:00013ac0       ??0?$vector@V?$_box3@M@@V?$doug_lea_alloc@V?$_box3@M@@@@@std@@QAE@XZ 10014ac0 f i r2.obj
 0001:00013ae0       ?_Tidy@?$vector@V?$_box3@M@@V?$doug_lea_alloc@V?$_box3@M@@@@@std@@IAEXXZ 10014ae0 f i r2.obj
 0001:00013b10       ??0?$vector@PAVIRender_Visual@@V?$xalloc@PAVIRender_Visual@@@@@std@@QAE@XZ 10014b10 f i r2.obj
 0001:00013b30       ?_Tidy@?$vector@PAVIRender_Visual@@V?$xalloc@PAVIRender_Visual@@@@@std@@IAEXXZ 10014b30 f i r2.obj
 0001:00013b60       ??D?$_Vector_iterator@V?$_Vector_val@U?$_Simple_types@PAVIRender_Visual@@@std@@@std@@@std@@QBEAAPAVIRender_Visual@@XZ 10014b60 f i r2.obj
 0001:00013b70       ??0?$vector@USMAP_Rect@@V?$xalloc@USMAP_Rect@@@@@std@@QAE@XZ 10014b70 f i r2.obj
 0001:00013b90       ?_Tidy@?$vector@USMAP_Rect@@V?$xalloc@USMAP_Rect@@@@@std@@IAEXXZ 10014b90 f i r2.obj
 0001:00013bc0       ??0?$vector@U?$_vector2@H@@V?$xalloc@U?$_vector2@H@@@@@std@@QAE@XZ 10014bc0 f i r2.obj
 0001:00013be0       ?_Tidy@?$vector@U?$_vector2@H@@V?$xalloc@U?$_vector2@H@@@@@std@@IAEXXZ 10014be0 f i r2.obj
 0001:00013c10       ?clear_and_free@?$xr_vector@PAVlight@@V?$xalloc@PAVlight@@@@@@QAEXXZ 10014c10 f i r2.obj
 0001:00013c20       ??0?$vector@PAVlight@@V?$xalloc@PAVlight@@@@@std@@QAE@XZ 10014c20 f i r2.obj
 0001:00013c40       ?begin@?$vector@PAVlight@@V?$xalloc@PAVlight@@@@@std@@QAE?AV?$_Vector_iterator@V?$_Vector_val@U?$_Simple_types@PAVlight@@@std@@@std@@@2@XZ 10014c40 f i r2.obj
 0001:00013c50       ?size@?$vector@PAVlight@@V?$xalloc@PAVlight@@@@@std@@QBEIXZ 10014c50 f i r2.obj
 0001:00013c60       ?_Tidy@?$vector@PAVlight@@V?$xalloc@PAVlight@@@@@std@@IAEXXZ 10014c60 f i r2.obj
 0001:00013c90       ??0?$vector@PAVIRender_Portal@@V?$xalloc@PAVIRender_Portal@@@@@std@@QAE@XZ 10014c90 f i r2.obj
 0001:00013cb0       ?begin@?$vector@PAVIRender_Portal@@V?$xalloc@PAVIRender_Portal@@@@@std@@QAE?AV?$_Vector_iterator@V?$_Vector_val@U?$_Simple_types@PAVIRender_Portal@@@std@@@std@@@2@XZ 10014cb0 f i r2.obj
 0001:00013cc0       ?_Tidy@?$vector@PAVIRender_Portal@@V?$xalloc@PAVIRender_Portal@@@@@std@@IAEXXZ 10014cc0 f i r2.obj
 0001:00013cf0       ??0?$vector@UFSlideWindowItem@@V?$xalloc@UFSlideWindowItem@@@@@std@@QAE@XZ 10014cf0 f i r2.obj
 0001:00013d10       ?begin@?$vector@UFSlideWindowItem@@V?$xalloc@UFSlideWindowItem@@@@@std@@QAE?AV?$_Vector_iterator@V?$_Vector_val@U?$_Simple_types@UFSlideWindowItem@@@std@@@std@@@2@XZ 10014d10 f i r2.obj
 0001:00013d20       ?_Tidy@?$vector@UFSlideWindowItem@@V?$xalloc@UFSlideWindowItem@@@@@std@@IAEXXZ 10014d20 f i r2.obj
 0001:00013d50       ??0?$vector@V?$resptr_core@UShader@@Uresptrcode_shader@@@@V?$xalloc@V?$resptr_core@UShader@@Uresptrcode_shader@@@@@@@std@@QAE@XZ 10014d50 f i r2.obj
 0001:00013d70       ??0?$vector@V?$svector@U_D3DVERTEXELEMENT9@@$0EB@@@V?$xalloc@V?$svector@U_D3DVERTEXELEMENT9@@$0EB@@@@@@std@@QAE@XZ 10014d70 f i r2.obj
 0001:00013d90       ?begin@?$vector@V?$svector@U_D3DVERTEXELEMENT9@@$0EB@@@V?$xalloc@V?$svector@U_D3DVERTEXELEMENT9@@$0EB@@@@@@std@@QAE?AV?$_Vector_iterator@V?$_Vector_val@U?$_Simple_types@V?$svector@U_D3DVERTEXELEMENT9@@$0EB@@@@std@@@std@@@2@XZ 10014d90 f i r2.obj
 0001:00013da0       ?_Tidy@?$vector@V?$svector@U_D3DVERTEXELEMENT9@@$0EB@@@V?$xalloc@V?$svector@U_D3DVERTEXELEMENT9@@$0EB@@@@@@std@@IAEXXZ 10014da0 f i r2.obj
 0001:00013dd0       ??0?$vector@PAUIDirect3DVertexBuffer9@@V?$xalloc@PAUIDirect3DVertexBuffer9@@@@@std@@QAE@XZ 10014dd0 f i r2.obj
 0001:00013df0       ?begin@?$vector@PAUIDirect3DVertexBuffer9@@V?$xalloc@PAUIDirect3DVertexBuffer9@@@@@std@@QAE?AV?$_Vector_iterator@V?$_Vector_val@U?$_Simple_types@PAUIDirect3DVertexBuffer9@@@std@@@std@@@2@XZ 10014df0 f i r2.obj
 0001:00013e00       ?_Tidy@?$vector@PAUIDirect3DVertexBuffer9@@V?$xalloc@PAUIDirect3DVertexBuffer9@@@@@std@@IAEXXZ 10014e00 f i r2.obj
 0001:00013e30       ??0?$vector@PAUIDirect3DIndexBuffer9@@V?$xalloc@PAUIDirect3DIndexBuffer9@@@@@std@@QAE@XZ 10014e30 f i r2.obj
 0001:00013e50       ?begin@?$vector@PAUIDirect3DIndexBuffer9@@V?$xalloc@PAUIDirect3DIndexBuffer9@@@@@std@@QAE?AV?$_Vector_iterator@V?$_Vector_val@U?$_Simple_types@PAUIDirect3DIndexBuffer9@@@std@@@std@@@2@XZ 10014e50 f i r2.obj
 0001:00013e60       ?_Tidy@?$vector@PAUIDirect3DIndexBuffer9@@V?$xalloc@PAUIDirect3DIndexBuffer9@@@@@std@@IAEXXZ 10014e60 f i r2.obj
 0001:00013e90       ??0?$vector@Ucascade@sun@@V?$xalloc@Ucascade@sun@@@@@std@@QAE@XZ 10014e90 f i r2.obj
 0001:00013eb0       ?_Tidy@?$vector@Ucascade@sun@@V?$xalloc@Ucascade@sun@@@@@std@@IAEXXZ 10014eb0 f i r2.obj
 0001:00013f00       ??D?$_Vector_iterator@V?$_Vector_val@U?$_Simple_types@PAVIRender_Sector@@@std@@@std@@@std@@QBEAAPAVIRender_Sector@@XZ 10014f00 f i r2.obj
 0001:00013f10       ??H?$_Vector_iterator@V?$_Vector_val@U?$_Simple_types@PAVIRender_Sector@@@std@@@std@@@std@@QBE?AV01@H@Z 10014f10 f i r2.obj
 0001:00013f30       ??D?$_Vector_iterator@V?$_Vector_val@U?$_Simple_types@PAVlight@@@std@@@std@@@std@@QBEAAPAVlight@@XZ 10014f30 f i r2.obj
 0001:00013f40       ??H?$_Vector_iterator@V?$_Vector_val@U?$_Simple_types@PAVlight@@@std@@@std@@@std@@QBE?AV01@H@Z 10014f40 f i r2.obj
 0001:00013f60       ??D?$_Vector_iterator@V?$_Vector_val@U?$_Simple_types@PAVIRender_Portal@@@std@@@std@@@std@@QBEAAPAVIRender_Portal@@XZ 10014f60 f i r2.obj
 0001:00013f70       ??H?$_Vector_iterator@V?$_Vector_val@U?$_Simple_types@PAVIRender_Portal@@@std@@@std@@@std@@QBE?AV01@H@Z 10014f70 f i r2.obj
 0001:00013f90       ??D?$_Vector_iterator@V?$_Vector_val@U?$_Simple_types@UFSlideWindowItem@@@std@@@std@@@std@@QBEAAUFSlideWindowItem@@XZ 10014f90 f i r2.obj
 0001:00013fa0       ??H?$_Vector_iterator@V?$_Vector_val@U?$_Simple_types@UFSlideWindowItem@@@std@@@std@@@std@@QBE?AV01@H@Z 10014fa0 f i r2.obj
 0001:00013fc0       ??D?$_Vector_iterator@V?$_Vector_val@U?$_Simple_types@V?$svector@U_D3DVERTEXELEMENT9@@$0EB@@@@std@@@std@@@std@@QBEAAV?$svector@U_D3DVERTEXELEMENT9@@$0EB@@@XZ 10014fc0 f i r2.obj
 0001:00013fd0       ??H?$_Vector_iterator@V?$_Vector_val@U?$_Simple_types@V?$svector@U_D3DVERTEXELEMENT9@@$0EB@@@@std@@@std@@@std@@QBE?AV01@H@Z 10014fd0 f i r2.obj
 0001:00013ff0       ??D?$_Vector_iterator@V?$_Vector_val@U?$_Simple_types@PAUIDirect3DVertexBuffer9@@@std@@@std@@@std@@QBEAAPAUIDirect3DVertexBuffer9@@XZ 10014ff0 f i r2.obj
 0001:00014000       ??H?$_Vector_iterator@V?$_Vector_val@U?$_Simple_types@PAUIDirect3DVertexBuffer9@@@std@@@std@@@std@@QBE?AV01@H@Z 10015000 f i r2.obj
 0001:00014020       ??D?$_Vector_iterator@V?$_Vector_val@U?$_Simple_types@PAUIDirect3DIndexBuffer9@@@std@@@std@@@std@@QBEAAPAUIDirect3DIndexBuffer9@@XZ 10015020 f i r2.obj
 0001:00014030       ??H?$_Vector_iterator@V?$_Vector_val@U?$_Simple_types@PAUIDirect3DIndexBuffer9@@@std@@@std@@@std@@QBE?AV01@H@Z 10015030 f i r2.obj
 0001:00014050       ?clear@?$xr_vector@U_REG_INFO@@V?$xalloc@U_REG_INFO@@@@@@QAEXXZ 10015050 f i r2.obj
 0001:00014060       ?begin@?$vector@U_REG_INFO@@V?$xalloc@U_REG_INFO@@@@@std@@QAE?AV?$_Vector_iterator@V?$_Vector_val@U?$_Simple_types@U_REG_INFO@@@std@@@std@@@2@XZ 10015060 f i r2.obj
 0001:00014070       ?empty@?$vector@U_REG_INFO@@V?$xalloc@U_REG_INFO@@@@@std@@QBE_NXZ 10015070 f i r2.obj
 0001:00014080       ?pop_back@?$vector@U_REG_INFO@@V?$xalloc@U_REG_INFO@@@@@std@@QAEXXZ 10015080 f i r2.obj
 0001:00014090       ?_Inside@?$vector@U_REG_INFO@@V?$xalloc@U_REG_INFO@@@@@std@@IBE_NPBU_REG_INFO@@@Z 10015090 f i r2.obj
 0001:000140b0       ?_Reserve@?$vector@U_REG_INFO@@V?$xalloc@U_REG_INFO@@@@@std@@IAEXI@Z 100150b0 f i r2.obj
 0001:00014150       ?_Orphan_range@?$vector@U_REG_INFO@@V?$xalloc@U_REG_INFO@@@@@std@@IBEXPAU_REG_INFO@@0@Z 10015150 f i r2.obj
 0001:00014160       ?_Destroy@?$vector@PAVIRender_Sector@@V?$xalloc@PAVIRender_Sector@@@@@std@@IAEXPAPAVIRender_Sector@@0@Z 10015160 f i r2.obj
 0001:00014170       ??0?$xalloc@PAVIRender_Sector@@@@QAE@XZ 10015170 f i r2.obj
 0001:00014180       ??0?$_Vector_alloc@$0A@U?$_Vec_base_types@PAVIRender_Sector@@V?$xalloc@PAVIRender_Sector@@@@@std@@@std@@QAE@ABV?$xalloc@PAVIRender_Sector@@@@@Z 10015180 f i r2.obj
 0001:000141a0       ?_Getal@?$_Vector_alloc@$0A@U?$_Vec_base_types@PAVIRender_Sector@@V?$xalloc@PAVIRender_Sector@@@@@std@@@std@@QBE?AU?$_Wrap_alloc@V?$xalloc@PAVIRender_Sector@@@@@2@XZ 100151a0 f i r2.obj
 0001:000141b0       ?deallocate@?$_Wrap_alloc@V?$xalloc@PAVIRender_Sector@@@@@std@@QAEXPAPAVIRender_Sector@@I@Z 100151b0 f i r2.obj
 0001:000141d0       ??0?$_Vector_alloc@$0A@U?$_Vec_base_types@V?$_box3@M@@V?$doug_lea_alloc@V?$_box3@M@@@@@std@@@std@@QAE@ABV?$doug_lea_alloc@V?$_box3@M@@@@@Z 100151d0 f i r2.obj
 0001:000141f0       ?deallocate@?$_Wrap_alloc@V?$doug_lea_alloc@V?$_box3@M@@@@@std@@QAEXPAV?$_box3@M@@I@Z 100151f0 f i r2.obj
 0001:00014200       ??0?$_Vector_alloc@$0A@U?$_Vec_base_types@PAVIRender_Visual@@V?$xalloc@PAVIRender_Visual@@@@@std@@@std@@QAE@ABV?$xalloc@PAVIRender_Visual@@@@@Z 10015200 f i r2.obj
 0001:00014220       ??D?$_Vector_const_iterator@V?$_Vector_val@U?$_Simple_types@PAVIRender_Visual@@@std@@@std@@@std@@QBEABQAVIRender_Visual@@XZ 10015220 f i r2.obj
 0001:00014230       ??0?$_Vector_alloc@$0A@U?$_Vec_base_types@USMAP_Rect@@V?$xalloc@USMAP_Rect@@@@@std@@@std@@QAE@ABV?$xalloc@USMAP_Rect@@@@@Z 10015230 f i r2.obj
 0001:00014250       ??0?$_Vector_alloc@$0A@U?$_Vec_base_types@U?$_vector2@H@@V?$xalloc@U?$_vector2@H@@@@@std@@@std@@QAE@ABV?$xalloc@U?$_vector2@H@@@@@Z 10015250 f i r2.obj
 0001:00014270       ?clear@?$vector@PAVlight@@V?$xalloc@PAVlight@@@@@std@@QAEXXZ 10015270 f i r2.obj
 0001:00014280       ?_Destroy@?$vector@PAVlight@@V?$xalloc@PAVlight@@@@@std@@IAEXPAPAVlight@@0@Z 10015280 f i r2.obj
 0001:00014290       ??0?$xalloc@PAVlight@@@@QAE@XZ 10015290 f i r2.obj
 0001:000142a0       ??0?$_Vector_alloc@$0A@U?$_Vec_base_types@PAVlight@@V?$xalloc@PAVlight@@@@@std@@@std@@QAE@ABV?$xalloc@PAVlight@@@@@Z 100152a0 f i r2.obj
 0001:000142c0       ?_Getal@?$_Vector_alloc@$0A@U?$_Vec_base_types@PAVlight@@V?$xalloc@PAVlight@@@@@std@@@std@@QBE?AU?$_Wrap_alloc@V?$xalloc@PAVlight@@@@@2@XZ 100152c0 f i r2.obj
 0001:000142d0       ?deallocate@?$_Wrap_alloc@V?$xalloc@PAVlight@@@@@std@@QAEXPAPAVlight@@I@Z 100152d0 f i r2.obj
 0001:000142f0       ?_Destroy@?$vector@PAVIRender_Portal@@V?$xalloc@PAVIRender_Portal@@@@@std@@IAEXPAPAVIRender_Portal@@0@Z 100152f0 f i r2.obj
 0001:00014300       ??0?$xalloc@PAVIRender_Portal@@@@QAE@XZ 10015300 f i r2.obj
 0001:00014310       ??0?$_Vector_alloc@$0A@U?$_Vec_base_types@PAVIRender_Portal@@V?$xalloc@PAVIRender_Portal@@@@@std@@@std@@QAE@ABV?$xalloc@PAVIRender_Portal@@@@@Z 10015310 f i r2.obj
 0001:00014330       ?_Getal@?$_Vector_alloc@$0A@U?$_Vec_base_types@PAVIRender_Portal@@V?$xalloc@PAVIRender_Portal@@@@@std@@@std@@QBE?AU?$_Wrap_alloc@V?$xalloc@PAVIRender_Portal@@@@@2@XZ 10015330 f i r2.obj
 0001:00014340       ?deallocate@?$_Wrap_alloc@V?$xalloc@PAVIRender_Portal@@@@@std@@QAEXPAPAVIRender_Portal@@I@Z 10015340 f i r2.obj
 0001:00014360       ?_Destroy@?$vector@UFSlideWindowItem@@V?$xalloc@UFSlideWindowItem@@@@@std@@IAEXPAUFSlideWindowItem@@0@Z 10015360 f i r2.obj
 0001:00014370       ??0?$xalloc@UFSlideWindowItem@@@@QAE@XZ 10015370 f i r2.obj
 0001:00014380       ??0?$_Vector_alloc@$0A@U?$_Vec_base_types@UFSlideWindowItem@@V?$xalloc@UFSlideWindowItem@@@@@std@@@std@@QAE@ABV?$xalloc@UFSlideWindowItem@@@@@Z 10015380 f i r2.obj
 0001:000143a0       ?_Getal@?$_Vector_alloc@$0A@U?$_Vec_base_types@UFSlideWindowItem@@V?$xalloc@UFSlideWindowItem@@@@@std@@@std@@QBE?AU?$_Wrap_alloc@V?$xalloc@UFSlideWindowItem@@@@@2@XZ 100153a0 f i r2.obj
 0001:000143b0       ?deallocate@?$_Wrap_alloc@V?$xalloc@UFSlideWindowItem@@@@@std@@QAEXPAUFSlideWindowItem@@I@Z 100153b0 f i r2.obj
 0001:000143d0       ??0?$_Vector_alloc@$0A@U?$_Vec_base_types@V?$resptr_core@UShader@@Uresptrcode_shader@@@@V?$xalloc@V?$resptr_core@UShader@@Uresptrcode_shader@@@@@@@std@@@std@@QAE@ABV?$xalloc@V?$resptr_core@UShader@@Uresptrcode_shader@@@@@@@Z 100153d0 f i r2.obj
 0001:000143f0       ?_Destroy@?$vector@V?$svector@U_D3DVERTEXELEMENT9@@$0EB@@@V?$xalloc@V?$svector@U_D3DVERTEXELEMENT9@@$0EB@@@@@@std@@IAEXPAV?$svector@U_D3DVERTEXELEMENT9@@$0EB@@@0@Z 100153f0 f i r2.obj
 0001:00014400       ??0?$xalloc@V?$svector@U_D3DVERTEXELEMENT9@@$0EB@@@@@QAE@XZ 10015400 f i r2.obj
 0001:00014410       ??0?$_Vector_alloc@$0A@U?$_Vec_base_types@V?$svector@U_D3DVERTEXELEMENT9@@$0EB@@@V?$xalloc@V?$svector@U_D3DVERTEXELEMENT9@@$0EB@@@@@@std@@@std@@QAE@ABV?$xalloc@V?$svector@U_D3DVERTEXELEMENT9@@$0EB@@@@@@Z 10015410 f i r2.obj
 0001:00014430       ?_Getal@?$_Vector_alloc@$0A@U?$_Vec_base_types@V?$svector@U_D3DVERTEXELEMENT9@@$0EB@@@V?$xalloc@V?$svector@U_D3DVERTEXELEMENT9@@$0EB@@@@@@std@@@std@@QBE?AU?$_Wrap_alloc@V?$xalloc@V?$svector@U_D3DVERTEXELEMENT9@@$0EB@@@@@@2@XZ 10015430 f i r2.obj
 0001:00014440       ?deallocate@?$_Wrap_alloc@V?$xalloc@V?$svector@U_D3DVERTEXELEMENT9@@$0EB@@@@@@std@@QAEXPAV?$svector@U_D3DVERTEXELEMENT9@@$0EB@@@I@Z 10015440 f i r2.obj
 0001:00014460       ?_Destroy@?$vector@PAUIDirect3DVertexBuffer9@@V?$xalloc@PAUIDirect3DVertexBuffer9@@@@@std@@IAEXPAPAUIDirect3DVertexBuffer9@@0@Z 10015460 f i r2.obj
 0001:00014470       ??0?$xalloc@PAUIDirect3DVertexBuffer9@@@@QAE@XZ 10015470 f i r2.obj
 0001:00014480       ??0?$_Vector_alloc@$0A@U?$_Vec_base_types@PAUIDirect3DVertexBuffer9@@V?$xalloc@PAUIDirect3DVertexBuffer9@@@@@std@@@std@@QAE@ABV?$xalloc@PAUIDirect3DVertexBuffer9@@@@@Z 10015480 f i r2.obj
 0001:000144a0       ?_Getal@?$_Vector_alloc@$0A@U?$_Vec_base_types@PAUIDirect3DVertexBuffer9@@V?$xalloc@PAUIDirect3DVertexBuffer9@@@@@std@@@std@@QBE?AU?$_Wrap_alloc@V?$xalloc@PAUIDirect3DVertexBuffer9@@@@@2@XZ 100154a0 f i r2.obj
 0001:000144b0       ?deallocate@?$_Wrap_alloc@V?$xalloc@PAUIDirect3DVertexBuffer9@@@@@std@@QAEXPAPAUIDirect3DVertexBuffer9@@I@Z 100154b0 f i r2.obj
 0001:000144d0       ?_Destroy@?$vector@PAUIDirect3DIndexBuffer9@@V?$xalloc@PAUIDirect3DIndexBuffer9@@@@@std@@IAEXPAPAUIDirect3DIndexBuffer9@@0@Z 100154d0 f i r2.obj
 0001:000144e0       ??0?$xalloc@PAUIDirect3DIndexBuffer9@@@@QAE@XZ 100154e0 f i r2.obj
 0001:000144f0       ??0?$_Vector_alloc@$0A@U?$_Vec_base_types@PAUIDirect3DIndexBuffer9@@V?$xalloc@PAUIDirect3DIndexBuffer9@@@@@std@@@std@@QAE@ABV?$xalloc@PAUIDirect3DIndexBuffer9@@@@@Z 100154f0 f i r2.obj
 0001:00014510       ?_Getal@?$_Vector_alloc@$0A@U?$_Vec_base_types@PAUIDirect3DIndexBuffer9@@V?$xalloc@PAUIDirect3DIndexBuffer9@@@@@std@@@std@@QBE?AU?$_Wrap_alloc@V?$xalloc@PAUIDirect3DIndexBuffer9@@@@@2@XZ 10015510 f i r2.obj
 0001:00014520       ?deallocate@?$_Wrap_alloc@V?$xalloc@PAUIDirect3DIndexBuffer9@@@@@std@@QAEXPAPAUIDirect3DIndexBuffer9@@I@Z 10015520 f i r2.obj
 0001:00014540       ?_Destroy@?$vector@Ucascade@sun@@V?$xalloc@Ucascade@sun@@@@@std@@IAEXPAUcascade@sun@@0@Z 10015540 f i r2.obj
 0001:00014560       ??0?$xalloc@Ucascade@sun@@@@QAE@XZ 10015560 f i r2.obj
 0001:00014570       ??0?$_Vector_alloc@$0A@U?$_Vec_base_types@Ucascade@sun@@V?$xalloc@Ucascade@sun@@@@@std@@@std@@QAE@ABV?$xalloc@Ucascade@sun@@@@@Z 10015570 f i r2.obj
 0001:00014590       ?_Getal@?$_Vector_alloc@$0A@U?$_Vec_base_types@Ucascade@sun@@V?$xalloc@Ucascade@sun@@@@@std@@@std@@QBE?AU?$_Wrap_alloc@V?$xalloc@Ucascade@sun@@@@@2@XZ 10015590 f i r2.obj
 0001:000145a0       ?deallocate@?$_Wrap_alloc@V?$xalloc@Ucascade@sun@@@@@std@@QAEXPAUcascade@sun@@I@Z 100155a0 f i r2.obj
 0001:000145c0       ??0?$_Vector_iterator@V?$_Vector_val@U?$_Simple_types@PAVIRender_Sector@@@std@@@std@@@std@@QAE@PAPAVIRender_Sector@@PBU_Container_base0@1@@Z 100155c0 f i r2.obj
 0001:000145d0       ??Y?$_Vector_iterator@V?$_Vector_val@U?$_Simple_types@PAVIRender_Sector@@@std@@@std@@@std@@QAEAAV01@H@Z 100155d0 f i r2.obj
 0001:000145e0       ??D?$_Vector_const_iterator@V?$_Vector_val@U?$_Simple_types@PAVIRender_Sector@@@std@@@std@@@std@@QBEABQAVIRender_Sector@@XZ 100155e0 f i r2.obj
 0001:000145f0       ??0?$_Vector_iterator@V?$_Vector_val@U?$_Simple_types@PAVlight@@@std@@@std@@@std@@QAE@PAPAVlight@@PBU_Container_base0@1@@Z 100155f0 f i r2.obj
 0001:00014600       ??Y?$_Vector_iterator@V?$_Vector_val@U?$_Simple_types@PAVlight@@@std@@@std@@@std@@QAEAAV01@H@Z 10015600 f i r2.obj
 0001:00014610       ??D?$_Vector_const_iterator@V?$_Vector_val@U?$_Simple_types@PAVlight@@@std@@@std@@@std@@QBEABQAVlight@@XZ 10015610 f i r2.obj
 0001:00014620       ??0?$_Vector_iterator@V?$_Vector_val@U?$_Simple_types@PAVIRender_Portal@@@std@@@std@@@std@@QAE@PAPAVIRender_Portal@@PBU_Container_base0@1@@Z 10015620 f i r2.obj
 0001:00014630       ??Y?$_Vector_iterator@V?$_Vector_val@U?$_Simple_types@PAVIRender_Portal@@@std@@@std@@@std@@QAEAAV01@H@Z 10015630 f i r2.obj
 0001:00014640       ??D?$_Vector_const_iterator@V?$_Vector_val@U?$_Simple_types@PAVIRender_Portal@@@std@@@std@@@std@@QBEABQAVIRender_Portal@@XZ 10015640 f i r2.obj
 0001:00014650       ??0?$_Vector_iterator@V?$_Vector_val@U?$_Simple_types@UFSlideWindowItem@@@std@@@std@@@std@@QAE@PAUFSlideWindowItem@@PBU_Container_base0@1@@Z 10015650 f i r2.obj
 0001:00014660       ??Y?$_Vector_iterator@V?$_Vector_val@U?$_Simple_types@UFSlideWindowItem@@@std@@@std@@@std@@QAEAAV01@H@Z 10015660 f i r2.obj
 0001:00014680       ??D?$_Vector_const_iterator@V?$_Vector_val@U?$_Simple_types@UFSlideWindowItem@@@std@@@std@@@std@@QBEABUFSlideWindowItem@@XZ 10015680 f i r2.obj
 0001:00014690       ??0?$_Vector_iterator@V?$_Vector_val@U?$_Simple_types@V?$svector@U_D3DVERTEXELEMENT9@@$0EB@@@@std@@@std@@@std@@QAE@PAV?$svector@U_D3DVERTEXELEMENT9@@$0EB@@@PBU_Container_base0@1@@Z 10015690 f i r2.obj
 0001:000146a0       ??Y?$_Vector_iterator@V?$_Vector_val@U?$_Simple_types@V?$svector@U_D3DVERTEXELEMENT9@@$0EB@@@@std@@@std@@@std@@QAEAAV01@H@Z 100156a0 f i r2.obj
 0001:000146b0       ??D?$_Vector_const_iterator@V?$_Vector_val@U?$_Simple_types@V?$svector@U_D3DVERTEXELEMENT9@@$0EB@@@@std@@@std@@@std@@QBEABV?$svector@U_D3DVERTEXELEMENT9@@$0EB@@@XZ 100156b0 f i r2.obj
 0001:000146c0       ??0?$_Vector_iterator@V?$_Vector_val@U?$_Simple_types@PAUIDirect3DVertexBuffer9@@@std@@@std@@@std@@QAE@PAPAUIDirect3DVertexBuffer9@@PBU_Container_base0@1@@Z 100156c0 f i r2.obj
 0001:000146d0       ??Y?$_Vector_iterator@V?$_Vector_val@U?$_Simple_types@PAUIDirect3DVertexBuffer9@@@std@@@std@@@std@@QAEAAV01@H@Z 100156d0 f i r2.obj
 0001:000146e0       ??D?$_Vector_const_iterator@V?$_Vector_val@U?$_Simple_types@PAUIDirect3DVertexBuffer9@@@std@@@std@@@std@@QBEABQAUIDirect3DVertexBuffer9@@XZ 100156e0 f i r2.obj
 0001:000146f0       ??0?$_Vector_iterator@V?$_Vector_val@U?$_Simple_types@PAUIDirect3DIndexBuffer9@@@std@@@std@@@std@@QAE@PAPAUIDirect3DIndexBuffer9@@PBU_Container_base0@1@@Z 100156f0 f i r2.obj
 0001:00014700       ??Y?$_Vector_iterator@V?$_Vector_val@U?$_Simple_types@PAUIDirect3DIndexBuffer9@@@std@@@std@@@std@@QAEAAV01@H@Z 10015700 f i r2.obj
 0001:00014710       ??D?$_Vector_const_iterator@V?$_Vector_val@U?$_Simple_types@PAUIDirect3DIndexBuffer9@@@std@@@std@@@std@@QBEABQAUIDirect3DIndexBuffer9@@XZ 10015710 f i r2.obj
 0001:00014720       ??D?$_Vector_iterator@V?$_Vector_val@U?$_Simple_types@U_REG_INFO@@@std@@@std@@@std@@QBEAAU_REG_INFO@@XZ 10015720 f i r2.obj
 0001:00014730       ??H?$_Vector_iterator@V?$_Vector_val@U?$_Simple_types@U_REG_INFO@@@std@@@std@@@std@@QBE?AV01@H@Z 10015730 f i r2.obj
 0001:00014750       ?clear_and_free@?$xr_vector@U_REG_INFO@@V?$xalloc@U_REG_INFO@@@@@@QAEXXZ 10015750 f i r2.obj
 0001:00014760       ?_Unused_capacity@?$vector@U_REG_INFO@@V?$xalloc@U_REG_INFO@@@@@std@@QBEIXZ 10015760 f i r2.obj
 0001:00014780       ?max_size@?$vector@U_REG_INFO@@V?$xalloc@U_REG_INFO@@@@@std@@QBEIXZ 10015780 f i r2.obj
 0001:00014790       ?_Grow_to@?$vector@U_REG_INFO@@V?$xalloc@U_REG_INFO@@@@@std@@IBEII@Z 10015790 f i r2.obj
 0001:000147e0       ?_Reallocate@?$vector@U_REG_INFO@@V?$xalloc@U_REG_INFO@@@@@std@@IAEXI@Z 100157e0 f i r2.obj
 0001:000148b0       ?_Xlen@?$vector@U_REG_INFO@@V?$xalloc@U_REG_INFO@@@@@std@@IBEXXZ 100158b0 f i r2.obj
 0001:000148c0       ?deallocate@?$xalloc@PAVIRender_Sector@@@@QBEXPAPAVIRender_Sector@@I@Z 100158c0 f i r2.obj
 0001:000148e0       ??0?$_Wrap_alloc@V?$xalloc@PAVIRender_Sector@@@@@std@@QAE@XZ 100158e0 f i r2.obj
 0001:000148f0       ??0?$_Vector_val@U?$_Simple_types@PAVIRender_Sector@@@std@@@std@@QAE@XZ 100158f0 f i r2.obj
 0001:00014910       ?deallocate@?$doug_lea_alloc@V?$_box3@M@@@@QBEXPAV?$_box3@M@@I@Z 10015910 f i r2.obj
 0001:00014920       ??0?$_Vector_val@U?$_Simple_types@V?$_box3@M@@@std@@@std@@QAE@XZ 10015920 f i r2.obj
 0001:00014940       ??0?$_Vector_val@U?$_Simple_types@USMAP_Rect@@@std@@@std@@QAE@XZ 10015940 f i r2.obj
 0001:00014960       ??0?$_Vector_val@U?$_Simple_types@U?$_vector2@H@@@std@@@std@@QAE@XZ 10015960 f i r2.obj
 0001:00014980       ?deallocate@?$xalloc@PAVlight@@@@QBEXPAPAVlight@@I@Z 10015980 f i r2.obj
 0001:000149a0       ??0?$_Wrap_alloc@V?$xalloc@PAVlight@@@@@std@@QAE@XZ 100159a0 f i r2.obj
 0001:000149b0       ??0?$_Vector_val@U?$_Simple_types@PAVlight@@@std@@@std@@QAE@XZ 100159b0 f i r2.obj
 0001:000149d0       ?deallocate@?$xalloc@PAVIRender_Portal@@@@QBEXPAPAVIRender_Portal@@I@Z 100159d0 f i r2.obj
 0001:000149f0       ??0?$_Wrap_alloc@V?$xalloc@PAVIRender_Portal@@@@@std@@QAE@XZ 100159f0 f i r2.obj
 0001:00014a00       ??0?$_Vector_val@U?$_Simple_types@PAVIRender_Portal@@@std@@@std@@QAE@XZ 10015a00 f i r2.obj
 0001:00014a20       ?deallocate@?$xalloc@UFSlideWindowItem@@@@QBEXPAUFSlideWindowItem@@I@Z 10015a20 f i r2.obj
 0001:00014a40       ??0?$_Wrap_alloc@V?$xalloc@UFSlideWindowItem@@@@@std@@QAE@XZ 10015a40 f i r2.obj
 0001:00014a50       ??0?$_Vector_val@U?$_Simple_types@UFSlideWindowItem@@@std@@@std@@QAE@XZ 10015a50 f i r2.obj
 0001:00014a70       ??0?$_Vector_val@U?$_Simple_types@V?$resptr_core@UShader@@Uresptrcode_shader@@@@@std@@@std@@QAE@XZ 10015a70 f i r2.obj
 0001:00014a90       ?deallocate@?$xalloc@V?$svector@U_D3DVERTEXELEMENT9@@$0EB@@@@@QBEXPAV?$svector@U_D3DVERTEXELEMENT9@@$0EB@@@I@Z 10015a90 f i r2.obj
 0001:00014ab0       ??0?$_Wrap_alloc@V?$xalloc@V?$svector@U_D3DVERTEXELEMENT9@@$0EB@@@@@@std@@QAE@XZ 10015ab0 f i r2.obj
 0001:00014ac0       ??0?$_Vector_val@U?$_Simple_types@V?$svector@U_D3DVERTEXELEMENT9@@$0EB@@@@std@@@std@@QAE@XZ 10015ac0 f i r2.obj
 0001:00014ae0       ?deallocate@?$xalloc@PAUIDirect3DVertexBuffer9@@@@QBEXPAPAUIDirect3DVertexBuffer9@@I@Z 10015ae0 f i r2.obj
 0001:00014b00       ??0?$_Wrap_alloc@V?$xalloc@PAUIDirect3DVertexBuffer9@@@@@std@@QAE@XZ 10015b00 f i r2.obj
 0001:00014b10       ??0?$_Vector_val@U?$_Simple_types@PAUIDirect3DVertexBuffer9@@@std@@@std@@QAE@XZ 10015b10 f i r2.obj
 0001:00014b30       ?deallocate@?$xalloc@PAUIDirect3DIndexBuffer9@@@@QBEXPAPAUIDirect3DIndexBuffer9@@I@Z 10015b30 f i r2.obj
 0001:00014b50       ??0?$_Wrap_alloc@V?$xalloc@PAUIDirect3DIndexBuffer9@@@@@std@@QAE@XZ 10015b50 f i r2.obj
 0001:00014b60       ??0?$_Vector_val@U?$_Simple_types@PAUIDirect3DIndexBuffer9@@@std@@@std@@QAE@XZ 10015b60 f i r2.obj
 0001:00014b80       ?deallocate@?$xalloc@Ucascade@sun@@@@QBEXPAUcascade@sun@@I@Z 10015b80 f i r2.obj
 0001:00014ba0       ??0?$_Wrap_alloc@V?$xalloc@Ucascade@sun@@@@@std@@QAE@XZ 10015ba0 f i r2.obj
 0001:00014bb0       ??0?$_Vector_val@U?$_Simple_types@Ucascade@sun@@@std@@@std@@QAE@XZ 10015bb0 f i r2.obj
 0001:00014bd0       ??0?$_Vector_const_iterator@V?$_Vector_val@U?$_Simple_types@PAVIRender_Sector@@@std@@@std@@@std@@QAE@PAPAVIRender_Sector@@PBU_Container_base0@1@@Z 10015bd0 f i r2.obj
 0001:00014be0       ??Y?$_Vector_const_iterator@V?$_Vector_val@U?$_Simple_types@PAVIRender_Sector@@@std@@@std@@@std@@QAEAAV01@H@Z 10015be0 f i r2.obj
 0001:00014bf0       ??0?$_Vector_const_iterator@V?$_Vector_val@U?$_Simple_types@PAVlight@@@std@@@std@@@std@@QAE@PAPAVlight@@PBU_Container_base0@1@@Z 10015bf0 f i r2.obj
 0001:00014c00       ??Y?$_Vector_const_iterator@V?$_Vector_val@U?$_Simple_types@PAVlight@@@std@@@std@@@std@@QAEAAV01@H@Z 10015c00 f i r2.obj
 0001:00014c10       ??0?$_Vector_const_iterator@V?$_Vector_val@U?$_Simple_types@PAVIRender_Portal@@@std@@@std@@@std@@QAE@PAPAVIRender_Portal@@PBU_Container_base0@1@@Z 10015c10 f i r2.obj
 0001:00014c20       ??Y?$_Vector_const_iterator@V?$_Vector_val@U?$_Simple_types@PAVIRender_Portal@@@std@@@std@@@std@@QAEAAV01@H@Z 10015c20 f i r2.obj
 0001:00014c30       ??0?$_Vector_const_iterator@V?$_Vector_val@U?$_Simple_types@UFSlideWindowItem@@@std@@@std@@@std@@QAE@PAUFSlideWindowItem@@PBU_Container_base0@1@@Z 10015c30 f i r2.obj
 0001:00014c40       ??Y?$_Vector_const_iterator@V?$_Vector_val@U?$_Simple_types@UFSlideWindowItem@@@std@@@std@@@std@@QAEAAV01@H@Z 10015c40 f i r2.obj
 0001:00014c60       ??0?$_Vector_const_iterator@V?$_Vector_val@U?$_Simple_types@V?$svector@U_D3DVERTEXELEMENT9@@$0EB@@@@std@@@std@@@std@@QAE@PAV?$svector@U_D3DVERTEXELEMENT9@@$0EB@@@PBU_Container_base0@1@@Z 10015c60 f i r2.obj
 0001:00014c70       ??Y?$_Vector_const_iterator@V?$_Vector_val@U?$_Simple_types@V?$svector@U_D3DVERTEXELEMENT9@@$0EB@@@@std@@@std@@@std@@QAEAAV01@H@Z 10015c70 f i r2.obj
 0001:00014c80       ??0?$_Vector_const_iterator@V?$_Vector_val@U?$_Simple_types@PAUIDirect3DVertexBuffer9@@@std@@@std@@@std@@QAE@PAPAUIDirect3DVertexBuffer9@@PBU_Container_base0@1@@Z 10015c80 f i r2.obj
 0001:00014c90       ??Y?$_Vector_const_iterator@V?$_Vector_val@U?$_Simple_types@PAUIDirect3DVertexBuffer9@@@std@@@std@@@std@@QAEAAV01@H@Z 10015c90 f i r2.obj
 0001:00014ca0       ??0?$_Vector_const_iterator@V?$_Vector_val@U?$_Simple_types@PAUIDirect3DIndexBuffer9@@@std@@@std@@@std@@QAE@PAPAUIDirect3DIndexBuffer9@@PBU_Container_base0@1@@Z 10015ca0 f i r2.obj
 0001:00014cb0       ??Y?$_Vector_const_iterator@V?$_Vector_val@U?$_Simple_types@PAUIDirect3DIndexBuffer9@@@std@@@std@@@std@@QAEAAV01@H@Z 10015cb0 f i r2.obj
 0001:00014cc0       ??0?$_Vector_iterator@V?$_Vector_val@U?$_Simple_types@U_REG_INFO@@@std@@@std@@@std@@QAE@PAU_REG_INFO@@PBU_Container_base0@1@@Z 10015cc0 f i r2.obj
 0001:00014cd0       ??Y?$_Vector_iterator@V?$_Vector_val@U?$_Simple_types@U_REG_INFO@@@std@@@std@@@std@@QAEAAV01@H@Z 10015cd0 f i r2.obj
 0001:00014cf0       ??D?$_Vector_const_iterator@V?$_Vector_val@U?$_Simple_types@U_REG_INFO@@@std@@@std@@@std@@QBEABU_REG_INFO@@XZ 10015cf0 f i r2.obj
 0001:00014d00       ?capacity@?$vector@U_REG_INFO@@V?$xalloc@U_REG_INFO@@@@@std@@QBEIXZ 10015d00 f i r2.obj
 0001:00014d20       ?clear@?$vector@U_REG_INFO@@V?$xalloc@U_REG_INFO@@@@@std@@QAEXXZ 10015d20 f i r2.obj
 0001:00014d30       ?allocate@?$_Wrap_alloc@V?$xalloc@U_REG_INFO@@@@@std@@QAEPAU_REG_INFO@@I@Z 10015d30 f i r2.obj
 0001:00014d50       ?max_size@?$_Wrap_alloc@V?$xalloc@U_REG_INFO@@@@@std@@QBEIXZ 10015d50 f i r2.obj
 0001:00014d60       ??0?$_Vector_const_iterator@V?$_Vector_val@U?$_Simple_types@U_REG_INFO@@@std@@@std@@@std@@QAE@PAU_REG_INFO@@PBU_Container_base0@1@@Z 10015d60 f i r2.obj
 0001:00014d70       ??Y?$_Vector_const_iterator@V?$_Vector_val@U?$_Simple_types@U_REG_INFO@@@std@@@std@@@std@@QAEAAV01@H@Z 10015d70 f i r2.obj
 0001:00014d90       ?allocate@?$xalloc@U_REG_INFO@@@@QBEPAU_REG_INFO@@IPBX@Z 10015d90 f i r2.obj
 0001:00014db0       ?max_size@?$allocator_traits@V?$xalloc@U_REG_INFO@@@@@std@@SAIABV?$xalloc@U_REG_INFO@@@@@Z 10015db0 f i r2.obj
 0001:00014dc0       ??$xr_new@VCRenderTarget@@@@YAPAVCRenderTarget@@XZ 10015dc0 f i r2.obj
 0001:00014de0       ??$xr_new@VCModelPool@@@@YAPAVCModelPool@@XZ 10015de0 f i r2.obj
 0001:00014e00       ??$xr_delete@VCModelPool@@@@YAXAAPAVCModelPool@@@Z 10015e00 f i r2.obj
 0001:00014e40       ??$xr_delete@VCRenderTarget@@@@YAXAAPAVCRenderTarget@@@Z 10015e40 f i r2.obj
 0001:00014e80       ??$xr_delete@VCDetailManager@@@@YAXAAPAVCDetailManager@@@Z 10015e80 f i r2.obj
 0001:00014ec0       ??$xr_new@VCDetailManager@@@@YAPAVCDetailManager@@XZ 10015ec0 f i r2.obj
 0001:00014ee0       ??$?0VCDetailManager@@V0@@?$FastDelegate0@X@fastdelegate@@QAE@PAVCDetailManager@@P82@AGXXZ@Z 10015ee0 f i r2.obj
 0001:00014f00       ??$?0VCHOM@@V0@@?$FastDelegate0@X@fastdelegate@@QAE@PAVCHOM@@P82@AGXXZ@Z 10015f00 f i r2.obj
 0001:00014f20       ??$xr_new@VCROS_impl@@@@YAPAVCROS_impl@@XZ 10015f20 f i r2.obj
 0001:00014f40       ??$xr_delete@VIRender_ObjectSpecific@@@@YAXAAPAVIRender_ObjectSpecific@@@Z 10015f40 f i r2.obj
 0001:00014f80       ??$xr_new@VCDetail@@@@YAPAVCDetail@@XZ 10015f80 f i r2.obj
 0001:00014fb0       ??$xr_delete@VCDetail@@@@YAXAAPAVCDetail@@@Z 10015fb0 f i r2.obj
 0001:00014ff0       ??$xr_new@VCGlow@@@@YAPAVCGlow@@XZ 10015ff0 f i r2.obj
 0001:00015020       ??0?$intrusive_ptr@VCSkeletonWallmark@@Uintrusive_base@@@@QAE@ABV0@@Z 10016020 f i r2.obj
 0001:00015040       ??1?$intrusive_ptr@VCSkeletonWallmark@@Uintrusive_base@@@@QAE@XZ 10016040 f i r2.obj
 0001:00015060       ??$xr_alloc@E@@YAPAEI@Z    10016060 f i r2.obj
 0001:00015070       ??$xr_free@$$CBX@@YAXAAPBX@Z 10016070 f i r2.obj
 0001:00015090       ??$sprintf_s@$0CA@@@YAHAAY0CA@DPBDZZ 10016090 f i r2.obj
 0001:000150b0       ??$strcat_s@$0BAE@@@YAHAAY0BAE@DPBD@Z 100160b0 f i r2.obj
 0001:000150d0       ??$strcat_s@$0CAI@@@YAHAAY0CAI@DPBD@Z 100160d0 f i r2.obj
 0001:000150f0       ??$strncpy_s@$02@@YAHAAY02DPBDI@Z 100160f0 f i r2.obj
 0001:00015100       ??0?$crc_optimal@$0CA@$0EMBBNLH@$0PPPPPPPP@$0PPPPPPPP@$00$00@boost@@QAE@I@Z 10016100 f i r2.obj
 0001:00015140       ?process_block@?$crc_optimal@$0CA@$0EMBBNLH@$0PPPPPPPP@$0PPPPPPPP@$00$00@boost@@QAEXPBX0@Z 10016140 f i r2.obj
 0001:00015190       ?checksum@?$crc_optimal@$0CA@$0EMBBNLH@$0PPPPPPPP@$0PPPPPPPP@$00$00@boost@@QBEIXZ 10016190 f i r2.obj
 0001:000151a0       ??$emplace@V?$FastDelegate0@X@fastdelegate@@@?$vector@V?$FastDelegate0@X@fastdelegate@@V?$xalloc@V?$FastDelegate0@X@fastdelegate@@@@@std@@QAE?AV?$_Vector_iterator@V?$_Vector_val@U?$_Simple_types@V?$FastDelegate0@X@fastdelegate@@@std@@@std@@@1@V?$_Vector_const_iterator@V?$_Vector_val@U?$_Simple_types@V?$FastDelegate0@X@fastdelegate@@@std@@@std@@@1@$$QAV?$FastDelegate0@X@fastdelegate@@@Z 100161a0 f i r2.obj
 0001:00015210       ??$addressof@$$CBU_REG_INFO@@@std@@YAPBU_REG_INFO@@ABU1@@Z 10016210 f i r2.obj
 0001:00015220       ??$construct@U_REG_INFO@@AAU1@@?$_Wrap_alloc@V?$xalloc@U_REG_INFO@@@@@std@@QAEXPAU_REG_INFO@@AAU2@@Z 10016220 f i r2.obj
 0001:00015240       ??$construct@U_REG_INFO@@ABU1@@?$_Wrap_alloc@V?$xalloc@U_REG_INFO@@@@@std@@QAEXPAU_REG_INFO@@ABU2@@Z 10016240 f i r2.obj
 0001:00015260       ??$_Destroy_range@U?$_Wrap_alloc@V?$xalloc@PAVIRender_Sector@@@@@std@@@std@@YAXPAPAVIRender_Sector@@0AAU?$_Wrap_alloc@V?$xalloc@PAVIRender_Sector@@@@@0@@Z 10016260 f i r2.obj
 0001:00015270       ??$_Destroy_range@U?$_Wrap_alloc@V?$xalloc@PAVlight@@@@@std@@@std@@YAXPAPAVlight@@0AAU?$_Wrap_alloc@V?$xalloc@PAVlight@@@@@0@@Z 10016270 f i r2.obj
 0001:00015280       ??$_Destroy_range@U?$_Wrap_alloc@V?$xalloc@PAVIRender_Portal@@@@@std@@@std@@YAXPAPAVIRender_Portal@@0AAU?$_Wrap_alloc@V?$xalloc@PAVIRender_Portal@@@@@0@@Z 10016280 f i r2.obj
 0001:00015290       ??$_Destroy_range@U?$_Wrap_alloc@V?$xalloc@UFSlideWindowItem@@@@@std@@@std@@YAXPAUFSlideWindowItem@@0AAU?$_Wrap_alloc@V?$xalloc@UFSlideWindowItem@@@@@0@@Z 10016290 f i r2.obj
 0001:000152a0       ??$_Destroy_range@U?$_Wrap_alloc@V?$xalloc@V?$svector@U_D3DVERTEXELEMENT9@@$0EB@@@@@@std@@@std@@YAXPAV?$svector@U_D3DVERTEXELEMENT9@@$0EB@@@0AAU?$_Wrap_alloc@V?$xalloc@V?$svector@U_D3DVERTEXELEMENT9@@$0EB@@@@@@0@@Z 100162a0 f i r2.obj
 0001:000152b0       ??$_Destroy_range@U?$_Wrap_alloc@V?$xalloc@PAUIDirect3DVertexBuffer9@@@@@std@@@std@@YAXPAPAUIDirect3DVertexBuffer9@@0AAU?$_Wrap_alloc@V?$xalloc@PAUIDirect3DVertexBuffer9@@@@@0@@Z 100162b0 f i r2.obj
 0001:000152c0       ??$_Destroy_range@U?$_Wrap_alloc@V?$xalloc@PAUIDirect3DIndexBuffer9@@@@@std@@@std@@YAXPAPAUIDirect3DIndexBuffer9@@0AAU?$_Wrap_alloc@V?$xalloc@PAUIDirect3DIndexBuffer9@@@@@0@@Z 100162c0 f i r2.obj
 0001:000152d0       ??$_Destroy_range@U?$_Wrap_alloc@V?$xalloc@Ucascade@sun@@@@@std@@@std@@YAXPAUcascade@sun@@0AAU?$_Wrap_alloc@V?$xalloc@Ucascade@sun@@@@@0@@Z 100162d0 f i r2.obj
 0001:000152e0       ??$_Umove@PAU_REG_INFO@@@?$vector@U_REG_INFO@@V?$xalloc@U_REG_INFO@@@@@std@@IAEPAU_REG_INFO@@PAU2@00@Z 100162e0 f i r2.obj
 0001:00015300       ??$xr_free@PAVIRender_Sector@@@@YAXAAPAPAVIRender_Sector@@@Z 10016300 f i r2.obj
 0001:00015320       ??$xr_free@PAVlight@@@@YAXAAPAPAVlight@@@Z 10016320 f i r2.obj
 0001:00015340       ??$xr_free@PAVIRender_Portal@@@@YAXAAPAPAVIRender_Portal@@@Z 10016340 f i r2.obj
 0001:00015360       ??$xr_free@UFSlideWindowItem@@@@YAXAAPAUFSlideWindowItem@@@Z 10016360 f i r2.obj
 0001:00015380       ??$xr_free@V?$svector@U_D3DVERTEXELEMENT9@@$0EB@@@@@YAXAAPAV?$svector@U_D3DVERTEXELEMENT9@@$0EB@@@@Z 10016380 f i r2.obj
 0001:000153a0       ??$xr_free@PAUIDirect3DVertexBuffer9@@@@YAXAAPAPAUIDirect3DVertexBuffer9@@@Z 100163a0 f i r2.obj
 0001:000153c0       ??$xr_free@PAUIDirect3DIndexBuffer9@@@@YAXAAPAPAUIDirect3DIndexBuffer9@@@Z 100163c0 f i r2.obj
 0001:000153e0       ??$xr_free@Ucascade@sun@@@@YAXAAPAUcascade@sun@@@Z 100163e0 f i r2.obj
 0001:00015400       ??$xr_alloc@U_REG_INFO@@@@YAPAU_REG_INFO@@I@Z 10016400 f i r2.obj
 0001:00015420       ??$_Fn@V?$xalloc@U_REG_INFO@@@@@_Alloc_max_size@std@@SAIHABV?$xalloc@U_REG_INFO@@@@@Z 10016420 f i r2.obj
 0001:00015430       ??0CDetail@@QAE@XZ         10016430 f i r2.obj
 0001:00015450       ??_ECDetail@@UAEPAXI@Z     10016450 f i * CIL library *:* CIL module *
 0001:00015450       ??_GCDetail@@UAEPAXI@Z     10016450 f i r2.obj
 0001:00015480       ?max_size@?$xalloc@U_REG_INFO@@@@QBEIXZ 10016480 f i r2.obj
 0001:00015490       ??H?$_Vector_iterator@V?$_Vector_val@U?$_Simple_types@V?$FastDelegate0@X@fastdelegate@@@std@@@std@@@std@@QBE?AV01@H@Z 10016490 f i r2.obj
 0001:000154b0       ??G?$_Vector_iterator@V?$_Vector_val@U?$_Simple_types@V?$FastDelegate0@X@fastdelegate@@@std@@@std@@@std@@QBE?AV01@H@Z 100164b0 f i r2.obj
 0001:000154c0       ??R?$xr_special_free@$00VCModelPool@@@@QAEXAAPAVCModelPool@@@Z 100164c0 f i r2.obj
 0001:000154f0       ??R?$xr_special_free@$00VCRenderTarget@@@@QAEXAAPAVCRenderTarget@@@Z 100164f0 f i r2.obj
 0001:00015520       ??R?$xr_special_free@$00VCDetailManager@@@@QAEXAAPAVCDetailManager@@@Z 10016520 f i r2.obj
 0001:00015550       ??R?$xr_special_free@$00VIRender_ObjectSpecific@@@@QAEXAAPAVIRender_ObjectSpecific@@@Z 10016550 f i r2.obj
 0001:00015580       ??R?$xr_special_free@$00VCDetail@@@@QAEXAAPAVCDetail@@@Z 10016580 f i r2.obj
 0001:000155b0       ?reflect@?$crc_helper@$0CA@$00@detail@boost@@SAII@Z 100165b0 f i r2.obj
 0001:000155e0       ?index@?$crc_helper@$0CA@$00@detail@boost@@SAEIE@Z 100165e0 f i r2.obj
 0001:000155f0       ?shift@?$crc_helper@$0CA@$00@detail@boost@@SAII@Z 100165f0 f i r2.obj
 0001:00015600       ?reflect@?$crc_helper@$0CA@$0A@@detail@boost@@SAII@Z 10016600 f i r2.obj
 0001:00015610       ??Y?$_Vector_iterator@V?$_Vector_val@U?$_Simple_types@V?$FastDelegate0@X@fastdelegate@@@std@@@std@@@std@@QAEAAV01@H@Z 10016610 f i r2.obj
 0001:00015620       ??Z?$_Vector_iterator@V?$_Vector_val@U?$_Simple_types@V?$FastDelegate0@X@fastdelegate@@@std@@@std@@@std@@QAEAAV01@H@Z 10016620 f i r2.obj
 0001:00015630       ??Y?$_Vector_const_iterator@V?$_Vector_val@U?$_Simple_types@V?$FastDelegate0@X@fastdelegate@@@std@@@std@@@std@@QAEAAV01@H@Z 10016630 f i r2.obj
 0001:00015640       ??$implicit_cast@PAVCDetailManager@@PAV1@@detail@fastdelegate@@YAPAVCDetailManager@@PAV2@@Z 10016640 f i r2.obj
 0001:00015650       ??$bindmemfunc@VCDetailManager@@P81@AGXXZ@?$ClosurePtr@P8GenericClass@detail@fastdelegate@@AGXXZP6AXXZP6AXXZ@detail@fastdelegate@@QAEXPAVCDetailManager@@P83@AGXXZ@Z 10016650 f i r2.obj
 0001:00015660       ??$implicit_cast@PAVCHOM@@PAV1@@detail@fastdelegate@@YAPAVCHOM@@PAV2@@Z 10016660 f i r2.obj
 0001:00015670       ??$bindmemfunc@VCHOM@@P81@AGXXZ@?$ClosurePtr@P8GenericClass@detail@fastdelegate@@AGXXZP6AXXZP6AXXZ@detail@fastdelegate@@QAEXPAVCHOM@@P83@AGXXZ@Z 10016670 f i r2.obj
 0001:00015680       ?dec@?$intrusive_ptr@VCSkeletonWallmark@@Uintrusive_base@@@@IAEXXZ 10016680 f i r2.obj
 0001:000156a0       ?set@?$intrusive_ptr@VCSkeletonWallmark@@Uintrusive_base@@@@QAEXABV1@@Z 100166a0 f i r2.obj
 0001:000156d0       ?get_final_xor_value@?$crc_optimal@$0CA@$0EMBBNLH@$0PPPPPPPP@$0PPPPPPPP@$00$00@boost@@QBEIXZ 100166d0 f i r2.obj
 0001:000156e0       ?init_table@?$crc_table_t@$0CA@$0EMBBNLH@$00@detail@boost@@SAXXZ 100166e0 f i r2.obj
 0001:000157b0       ??$forward@V?$FastDelegate0@X@fastdelegate@@@std@@YA$$QAV?$FastDelegate0@X@fastdelegate@@AAV12@@Z 100167b0 f i r2.obj
 0001:000157c0       ??$emplace_back@V?$FastDelegate0@X@fastdelegate@@@?$vector@V?$FastDelegate0@X@fastdelegate@@V?$xalloc@V?$FastDelegate0@X@fastdelegate@@@@@std@@QAEX$$QAV?$FastDelegate0@X@fastdelegate@@@Z 100167c0 f i r2.obj
 0001:00015800       ??$rotate@V?$_Vector_iterator@V?$_Vector_val@U?$_Simple_types@V?$FastDelegate0@X@fastdelegate@@@std@@@std@@@std@@@std@@YA?AV?$_Vector_iterator@V?$_Vector_val@U?$_Simple_types@V?$FastDelegate0@X@fastdelegate@@@std@@@std@@@0@V10@00@Z 10016800 f i r2.obj
 0001:00015840       ??$forward@AAU_REG_INFO@@@std@@YAAAU_REG_INFO@@AAU1@@Z 10016840 f i r2.obj
 0001:00015850       ??$construct@U_REG_INFO@@AAU1@@?$allocator_traits@V?$xalloc@U_REG_INFO@@@@@std@@SAXAAV?$xalloc@U_REG_INFO@@@@PAU_REG_INFO@@AAU3@@Z 10016850 f i r2.obj
 0001:00015870       ??$forward@ABU_REG_INFO@@@std@@YAABU_REG_INFO@@ABU1@@Z 10016870 f i r2.obj
 0001:00015880       ??$construct@U_REG_INFO@@ABU1@@?$allocator_traits@V?$xalloc@U_REG_INFO@@@@@std@@SAXAAV?$xalloc@U_REG_INFO@@@@PAU_REG_INFO@@ABU3@@Z 10016880 f i r2.obj
 0001:000158a0       ??$_Ptr_cat@PAVIRender_Sector@@PAV1@@std@@YA?AU_Scalar_ptr_iterator_tag@0@PAPAVIRender_Sector@@0@Z 100168a0 f i r2.obj
 0001:000158b0       ??$_Destroy_range@U?$_Wrap_alloc@V?$xalloc@PAVIRender_Sector@@@@@std@@@std@@YAXPAPAVIRender_Sector@@0AAU?$_Wrap_alloc@V?$xalloc@PAVIRender_Sector@@@@@0@U_Scalar_ptr_iterator_tag@0@@Z 100168b0 f i r2.obj
 0001:000158c0       ??$_Ptr_cat@PAVlight@@PAV1@@std@@YA?AU_Scalar_ptr_iterator_tag@0@PAPAVlight@@0@Z 100168c0 f i r2.obj
 0001:000158d0       ??$_Destroy_range@U?$_Wrap_alloc@V?$xalloc@PAVlight@@@@@std@@@std@@YAXPAPAVlight@@0AAU?$_Wrap_alloc@V?$xalloc@PAVlight@@@@@0@U_Scalar_ptr_iterator_tag@0@@Z 100168d0 f i r2.obj
 0001:000158e0       ??$_Ptr_cat@PAVIRender_Portal@@PAV1@@std@@YA?AU_Scalar_ptr_iterator_tag@0@PAPAVIRender_Portal@@0@Z 100168e0 f i r2.obj
 0001:000158f0       ??$_Destroy_range@U?$_Wrap_alloc@V?$xalloc@PAVIRender_Portal@@@@@std@@@std@@YAXPAPAVIRender_Portal@@0AAU?$_Wrap_alloc@V?$xalloc@PAVIRender_Portal@@@@@0@U_Scalar_ptr_iterator_tag@0@@Z 100168f0 f i r2.obj
 0001:00015900       ??$_Ptr_cat@UFSlideWindowItem@@U1@@std@@YA?AU_Nonscalar_ptr_iterator_tag@0@PAUFSlideWindowItem@@0@Z 10016900 f i r2.obj
 0001:00015910       ??$_Destroy_range@U?$_Wrap_alloc@V?$xalloc@UFSlideWindowItem@@@@@std@@@std@@YAXPAUFSlideWindowItem@@0AAU?$_Wrap_alloc@V?$xalloc@UFSlideWindowItem@@@@@0@U_Nonscalar_ptr_iterator_tag@0@@Z 10016910 f i r2.obj
 0001:00015920       ??$_Ptr_cat@V?$svector@U_D3DVERTEXELEMENT9@@$0EB@@@V1@@std@@YA?AU_Nonscalar_ptr_iterator_tag@0@PAV?$svector@U_D3DVERTEXELEMENT9@@$0EB@@@0@Z 10016920 f i r2.obj
 0001:00015930       ??$_Destroy_range@U?$_Wrap_alloc@V?$xalloc@V?$svector@U_D3DVERTEXELEMENT9@@$0EB@@@@@@std@@@std@@YAXPAV?$svector@U_D3DVERTEXELEMENT9@@$0EB@@@0AAU?$_Wrap_alloc@V?$xalloc@V?$svector@U_D3DVERTEXELEMENT9@@$0EB@@@@@@0@U_Nonscalar_ptr_iterator_tag@0@@Z 10016930 f i r2.obj
 0001:00015940       ??$_Ptr_cat@PAUIDirect3DVertexBuffer9@@PAU1@@std@@YA?AU_Scalar_ptr_iterator_tag@0@PAPAUIDirect3DVertexBuffer9@@0@Z 10016940 f i r2.obj
 0001:00015950       ??$_Destroy_range@U?$_Wrap_alloc@V?$xalloc@PAUIDirect3DVertexBuffer9@@@@@std@@@std@@YAXPAPAUIDirect3DVertexBuffer9@@0AAU?$_Wrap_alloc@V?$xalloc@PAUIDirect3DVertexBuffer9@@@@@0@U_Scalar_ptr_iterator_tag@0@@Z 10016950 f i r2.obj
 0001:00015960       ??$_Ptr_cat@PAUIDirect3DIndexBuffer9@@PAU1@@std@@YA?AU_Scalar_ptr_iterator_tag@0@PAPAUIDirect3DIndexBuffer9@@0@Z 10016960 f i r2.obj
 0001:00015970       ??$_Destroy_range@U?$_Wrap_alloc@V?$xalloc@PAUIDirect3DIndexBuffer9@@@@@std@@@std@@YAXPAPAUIDirect3DIndexBuffer9@@0AAU?$_Wrap_alloc@V?$xalloc@PAUIDirect3DIndexBuffer9@@@@@0@U_Scalar_ptr_iterator_tag@0@@Z 10016970 f i r2.obj
 0001:00015980       ??$_Ptr_cat@Ucascade@sun@@U12@@std@@YA?AU_Nonscalar_ptr_iterator_tag@0@PAUcascade@sun@@0@Z 10016980 f i r2.obj
 0001:00015990       ??$_Destroy_range@U?$_Wrap_alloc@V?$xalloc@Ucascade@sun@@@@@std@@@std@@YAXPAUcascade@sun@@0AAU?$_Wrap_alloc@V?$xalloc@Ucascade@sun@@@@@0@U_Nonscalar_ptr_iterator_tag@0@@Z 10016990 f i r2.obj
 0001:000159e0       ??$_Uninitialized_move@PAU_REG_INFO@@PAU1@U?$_Wrap_alloc@V?$xalloc@U_REG_INFO@@@@@std@@@std@@YAPAU_REG_INFO@@PAU1@00AAU?$_Wrap_alloc@V?$xalloc@U_REG_INFO@@@@@0@@Z 100169e0 f i r2.obj
 0001:00015a00       ?reflect@?$reflector@$0CA@@detail@boost@@SAII@Z 10016a00 f i r2.obj
 0001:00015a30       ?_Reserve@?$vector@V?$FastDelegate0@X@fastdelegate@@V?$xalloc@V?$FastDelegate0@X@fastdelegate@@@@@std@@IAEXI@Z 10016a30 f i r2.obj
 0001:00015aa0       ?_Orphan_range@?$vector@V?$FastDelegate0@X@fastdelegate@@V?$xalloc@V?$FastDelegate0@X@fastdelegate@@@@@std@@IBEXPAV?$FastDelegate0@X@fastdelegate@@0@Z 10016aa0 f i r2.obj
 0001:00015ab0       ?reflect@?$crc_helper@$07$00@detail@boost@@SAEE@Z 10016ab0 f i r2.obj
 0001:00015b00       ?_Unused_capacity@?$vector@V?$FastDelegate0@X@fastdelegate@@V?$xalloc@V?$FastDelegate0@X@fastdelegate@@@@@std@@QBEIXZ 10016b00 f i r2.obj
 0001:00015b10       ?size@?$vector@V?$FastDelegate0@X@fastdelegate@@V?$xalloc@V?$FastDelegate0@X@fastdelegate@@@@@std@@QBEIXZ 10016b10 f i r2.obj
 0001:00015b20       ?max_size@?$vector@V?$FastDelegate0@X@fastdelegate@@V?$xalloc@V?$FastDelegate0@X@fastdelegate@@@@@std@@QBEIXZ 10016b20 f i r2.obj
 0001:00015b30       ?_Grow_to@?$vector@V?$FastDelegate0@X@fastdelegate@@V?$xalloc@V?$FastDelegate0@X@fastdelegate@@@@@std@@IBEII@Z 10016b30 f i r2.obj
 0001:00015b70       ?_Reallocate@?$vector@V?$FastDelegate0@X@fastdelegate@@V?$xalloc@V?$FastDelegate0@X@fastdelegate@@@@@std@@IAEXI@Z 10016b70 f i r2.obj
 0001:00015c30       ?_Xlen@?$vector@V?$FastDelegate0@X@fastdelegate@@V?$xalloc@V?$FastDelegate0@X@fastdelegate@@@@@std@@IBEXXZ 10016c30 f i r2.obj
 0001:00015c40       ?capacity@?$vector@V?$FastDelegate0@X@fastdelegate@@V?$xalloc@V?$FastDelegate0@X@fastdelegate@@@@@std@@QBEIXZ 10016c40 f i r2.obj
 0001:00015c50       ?allocate@?$_Wrap_alloc@V?$xalloc@V?$FastDelegate0@X@fastdelegate@@@@@std@@QAEPAV?$FastDelegate0@X@fastdelegate@@I@Z 10016c50 f i r2.obj
 0001:00015c70       ?max_size@?$_Wrap_alloc@V?$xalloc@V?$FastDelegate0@X@fastdelegate@@@@@std@@QBEIXZ 10016c70 f i r2.obj
 0001:00015c80       ?allocate@?$xalloc@V?$FastDelegate0@X@fastdelegate@@@@QBEPAV?$FastDelegate0@X@fastdelegate@@IPBX@Z 10016c80 f i r2.obj
 0001:00015ca0       ?max_size@?$allocator_traits@V?$xalloc@V?$FastDelegate0@X@fastdelegate@@@@@std@@SAIABV?$xalloc@V?$FastDelegate0@X@fastdelegate@@@@@Z 10016ca0 f i r2.obj
 0001:00015cb0       ??$Convert@VCDetailManager@@P81@AGXXZP8GenericClass@detail@fastdelegate@@AEXXZ@?$SimplifyMemFunc@$03@detail@fastdelegate@@SAPAVGenericClass@12@PAVCDetailManager@@P84@AGXXZAAP8312@AEXXZ@Z 10016cb0 f i r2.obj
 0001:00015cc0       ??$Convert@VCHOM@@P81@AGXXZP8GenericClass@detail@fastdelegate@@AEXXZ@?$SimplifyMemFunc@$03@detail@fastdelegate@@SAPAVGenericClass@12@PAVCHOM@@P84@AGXXZAAP8312@AEXXZ@Z 10016cc0 f i r2.obj
 0001:00015cd0       ??$_release@VCSkeletonWallmark@@@intrusive_base@@QAEXPAVCSkeletonWallmark@@@Z 10016cd0 f i r2.obj
 0001:00015d20       ??$construct@V?$FastDelegate0@X@fastdelegate@@V12@@?$_Wrap_alloc@V?$xalloc@V?$FastDelegate0@X@fastdelegate@@@@@std@@QAEXPAV?$FastDelegate0@X@fastdelegate@@$$QAV23@@Z 10016d20 f i r2.obj
 0001:00015d50       ??$_Iter_cat@V?$_Vector_iterator@V?$_Vector_val@U?$_Simple_types@V?$FastDelegate0@X@fastdelegate@@@std@@@std@@@std@@@std@@YA?AUrandom_access_iterator_tag@0@ABV?$_Vector_iterator@V?$_Vector_val@U?$_Simple_types@V?$FastDelegate0@X@fastdelegate@@@std@@@std@@@0@@Z 10016d50 f i r2.obj
 0001:00015d60       ??$_Rotate@PAV?$FastDelegate0@X@fastdelegate@@@std@@YAXPAV?$FastDelegate0@X@fastdelegate@@00Urandom_access_iterator_tag@0@@Z 10016d60 f i r2.obj
 0001:00015d80       ??$distance@V?$_Vector_iterator@V?$_Vector_val@U?$_Simple_types@V?$FastDelegate0@X@fastdelegate@@@std@@@std@@@std@@@std@@YAHV?$_Vector_iterator@V?$_Vector_val@U?$_Simple_types@V?$FastDelegate0@X@fastdelegate@@@std@@@std@@@0@0@Z 10016d80 f i r2.obj
 0001:00015d90       ??$advance@V?$_Vector_iterator@V?$_Vector_val@U?$_Simple_types@V?$FastDelegate0@X@fastdelegate@@@std@@@std@@@std@@H@std@@YAXAAV?$_Vector_iterator@V?$_Vector_val@U?$_Simple_types@V?$FastDelegate0@X@fastdelegate@@@std@@@std@@@0@H@Z 10016d90 f i r2.obj
 0001:00015da0       ??$_Fn@V?$xalloc@U_REG_INFO@@@@U_REG_INFO@@AAU2@@_Alloc_construct@std@@SAXHAAV?$xalloc@U_REG_INFO@@@@PAU_REG_INFO@@AAU3@@Z 10016da0 f i r2.obj
 0001:00015dc0       ??$_Fn@V?$xalloc@U_REG_INFO@@@@U_REG_INFO@@ABU2@@_Alloc_construct@std@@SAXHAAV?$xalloc@U_REG_INFO@@@@PAU_REG_INFO@@ABU3@@Z 10016dc0 f i r2.obj
 0001:00015de0       ??$destroy@UFSlideWindowItem@@@?$_Wrap_alloc@V?$xalloc@UFSlideWindowItem@@@@@std@@QAEXPAUFSlideWindowItem@@@Z 10016de0 f i r2.obj
 0001:00015df0       ??$destroy@V?$svector@U_D3DVERTEXELEMENT9@@$0EB@@@@?$_Wrap_alloc@V?$xalloc@V?$svector@U_D3DVERTEXELEMENT9@@$0EB@@@@@@std@@QAEXPAV?$svector@U_D3DVERTEXELEMENT9@@$0EB@@@@Z 10016df0 f i r2.obj
 0001:00015e00       ??$destroy@Ucascade@sun@@@?$_Wrap_alloc@V?$xalloc@Ucascade@sun@@@@@std@@QAEXPAUcascade@sun@@@Z 10016e00 f i r2.obj
 0001:00015e40       ??$_Unchecked@PAU_REG_INFO@@@std@@YAPAU_REG_INFO@@PAU1@@Z 10016e40 f i r2.obj
 0001:00015e50       ??$_Uninit_move@PAU_REG_INFO@@PAU1@U?$_Wrap_alloc@V?$xalloc@U_REG_INFO@@@@@std@@@std@@YAPAU_REG_INFO@@PAU1@00AAU?$_Wrap_alloc@V?$xalloc@U_REG_INFO@@@@@0@@Z 10016e50 f i r2.obj
 0001:00015e70       ??$_Rechecked@PAU_REG_INFO@@PAU1@@std@@YAAAPAU_REG_INFO@@AAPAU1@PAU1@@Z 10016e70 f i r2.obj
 0001:00015e80       ?reflect@?$reflector@$07@detail@boost@@SAEE@Z 10016e80 f i r2.obj
 0001:00015ed0       ??$_Umove@PAV?$FastDelegate0@X@fastdelegate@@@?$vector@V?$FastDelegate0@X@fastdelegate@@V?$xalloc@V?$FastDelegate0@X@fastdelegate@@@@@std@@IAEPAV?$FastDelegate0@X@fastdelegate@@PAV23@00@Z 10016ed0 f i r2.obj
 0001:00015ef0       ??$xr_alloc@V?$FastDelegate0@X@fastdelegate@@@@YAPAV?$FastDelegate0@X@fastdelegate@@I@Z 10016ef0 f i r2.obj
 0001:00015f10       ??$_Fn@V?$xalloc@V?$FastDelegate0@X@fastdelegate@@@@@_Alloc_max_size@std@@SAIHABV?$xalloc@V?$FastDelegate0@X@fastdelegate@@@@@Z 10016f10 f i r2.obj
 0001:00015f20       ?construct@?$xalloc@U_REG_INFO@@@@QAEXPAU_REG_INFO@@ABU2@@Z 10016f20 f i r2.obj
 0001:00015f40       ?max_size@?$xalloc@V?$FastDelegate0@X@fastdelegate@@@@QBEIXZ 10016f40 f i r2.obj
 0001:00015f50       ??$xr_delete@VCSkeletonWallmark@@@@YAXAAPAVCSkeletonWallmark@@@Z 10016f50 f i r2.obj
 0001:00015f80       ??$construct@V?$FastDelegate0@X@fastdelegate@@V12@@?$allocator_traits@V?$xalloc@V?$FastDelegate0@X@fastdelegate@@@@@std@@SAXAAV?$xalloc@V?$FastDelegate0@X@fastdelegate@@@@PAV?$FastDelegate0@X@fastdelegate@@$$QAV34@@Z 10016f80 f i r2.obj
 0001:00015fa0       ??$_Dist_type@PAV?$FastDelegate0@X@fastdelegate@@@std@@YAPAHPAV?$FastDelegate0@X@fastdelegate@@@Z 10016fa0 f i r2.obj
 0001:00015fb0       ??$_Val_type@PAV?$FastDelegate0@X@fastdelegate@@@std@@YAPAV?$FastDelegate0@X@fastdelegate@@PAV12@@Z 10016fb0 f i r2.obj
 0001:00015fc0       ??$_Rotate@PAV?$FastDelegate0@X@fastdelegate@@HV12@@std@@YAXPAV?$FastDelegate0@X@fastdelegate@@00PAH0@Z 10016fc0 f i r2.obj
 0001:00016080       ??$_Distance2@V?$_Vector_iterator@V?$_Vector_val@U?$_Simple_types@V?$FastDelegate0@X@fastdelegate@@@std@@@std@@@std@@H@std@@YAXV?$_Vector_iterator@V?$_Vector_val@U?$_Simple_types@V?$FastDelegate0@X@fastdelegate@@@std@@@std@@@0@0AAHUrandom_access_iterator_tag@0@@Z 10017080 f i r2.obj
 0001:00016090       ??$_Advance@V?$_Vector_iterator@V?$_Vector_val@U?$_Simple_types@V?$FastDelegate0@X@fastdelegate@@@std@@@std@@@std@@H@std@@YAXAAV?$_Vector_iterator@V?$_Vector_val@U?$_Simple_types@V?$FastDelegate0@X@fastdelegate@@@std@@@std@@@0@HUrandom_access_iterator_tag@0@@Z 10017090 f i r2.obj
 0001:000160a0       ??$destroy@UFSlideWindowItem@@@?$allocator_traits@V?$xalloc@UFSlideWindowItem@@@@@std@@SAXAAV?$xalloc@UFSlideWindowItem@@@@PAUFSlideWindowItem@@@Z 100170a0 f i r2.obj
 0001:000160b0       ??$destroy@V?$svector@U_D3DVERTEXELEMENT9@@$0EB@@@@?$allocator_traits@V?$xalloc@V?$svector@U_D3DVERTEXELEMENT9@@$0EB@@@@@@std@@SAXAAV?$xalloc@V?$svector@U_D3DVERTEXELEMENT9@@$0EB@@@@@PAV?$svector@U_D3DVERTEXELEMENT9@@$0EB@@@@Z 100170b0 f i r2.obj
 0001:000160c0       ??$destroy@Ucascade@sun@@@?$allocator_traits@V?$xalloc@Ucascade@sun@@@@@std@@SAXAAV?$xalloc@Ucascade@sun@@@@PAUcascade@sun@@@Z 100170c0 f i r2.obj
 0001:000160f0       ??$_Val_type@PAU_REG_INFO@@@std@@YAPAU_REG_INFO@@PAU1@@Z 100170f0 f i r2.obj
 0001:00016100       ??$_Uninit_move@PAU_REG_INFO@@PAU1@V?$xalloc@U_REG_INFO@@@@U1@@std@@YAPAU_REG_INFO@@PAU1@00AAU?$_Wrap_alloc@V?$xalloc@U_REG_INFO@@@@@0@0U_Nonscalar_ptr_iterator_tag@0@@Z 10017100 f i r2.obj
 0001:00016170       ??$_Uninitialized_move@PAV?$FastDelegate0@X@fastdelegate@@PAV12@U?$_Wrap_alloc@V?$xalloc@V?$FastDelegate0@X@fastdelegate@@@@@std@@@std@@YAPAV?$FastDelegate0@X@fastdelegate@@PAV12@00AAU?$_Wrap_alloc@V?$xalloc@V?$FastDelegate0@X@fastdelegate@@@@@0@@Z 10017170 f i r2.obj
 0001:00016190       ??$_Construct@U_REG_INFO@@ABU1@@std@@YAXPAU_REG_INFO@@ABU1@@Z 10017190 f i r2.obj
 0001:000161b0       ??G?$_Vector_iterator@V?$_Vector_val@U?$_Simple_types@V?$FastDelegate0@X@fastdelegate@@@std@@@std@@@std@@QBEHABV?$_Vector_const_iterator@V?$_Vector_val@U?$_Simple_types@V?$FastDelegate0@X@fastdelegate@@@std@@@std@@@1@@Z 100171b0 f i r2.obj
 0001:000161c0       ??R?$xr_special_free@$0A@VCSkeletonWallmark@@@@QAEXAAPAVCSkeletonWallmark@@@Z 100171c0 f i r2.obj
 0001:000161e0       ??_GCSkeletonWallmark@@QAEPAXI@Z 100171e0 f i r2.obj
 0001:000161f0       ??G?$_Vector_const_iterator@V?$_Vector_val@U?$_Simple_types@V?$FastDelegate0@X@fastdelegate@@@std@@@std@@@std@@QBEHABV01@@Z 100171f0 f i r2.obj
 0001:00016200       ??$_Fn@V?$xalloc@V?$FastDelegate0@X@fastdelegate@@@@V?$FastDelegate0@X@fastdelegate@@V23@@_Alloc_construct@std@@SAXHAAV?$xalloc@V?$FastDelegate0@X@fastdelegate@@@@PAV?$FastDelegate0@X@fastdelegate@@$$QAV34@@Z 10017200 f i r2.obj
 0001:00016230       ??$iter_swap@PAV?$FastDelegate0@X@fastdelegate@@PAV12@@std@@YAXPAV?$FastDelegate0@X@fastdelegate@@0@Z 10017230 f i r2.obj
 0001:00016250       ??$_Fn@V?$xalloc@UFSlideWindowItem@@@@UFSlideWindowItem@@@_Alloc_destroy@std@@SAXHAAV?$xalloc@UFSlideWindowItem@@@@PAUFSlideWindowItem@@@Z 10017250 f i r2.obj
 0001:00016260       ??$_Fn@V?$xalloc@V?$svector@U_D3DVERTEXELEMENT9@@$0EB@@@@@V?$svector@U_D3DVERTEXELEMENT9@@$0EB@@@@_Alloc_destroy@std@@SAXHAAV?$xalloc@V?$svector@U_D3DVERTEXELEMENT9@@$0EB@@@@@PAV?$svector@U_D3DVERTEXELEMENT9@@$0EB@@@@Z 10017260 f i r2.obj
 0001:00016270       ??$_Fn@V?$xalloc@Ucascade@sun@@@@Ucascade@sun@@@_Alloc_destroy@std@@SAXHAAV?$xalloc@Ucascade@sun@@@@PAUcascade@sun@@@Z 10017270 f i r2.obj
 0001:000162a0       ??$construct@U_REG_INFO@@U1@@?$_Wrap_alloc@V?$xalloc@U_REG_INFO@@@@@std@@QAEXPAU_REG_INFO@@$$QAU2@@Z 100172a0 f i r2.obj
 0001:000162c0       ??$_Unchecked@PAV?$FastDelegate0@X@fastdelegate@@@std@@YAPAV?$FastDelegate0@X@fastdelegate@@PAV12@@Z 100172c0 f i r2.obj
 0001:000162d0       ??$_Uninit_move@PAV?$FastDelegate0@X@fastdelegate@@PAV12@U?$_Wrap_alloc@V?$xalloc@V?$FastDelegate0@X@fastdelegate@@@@@std@@@std@@YAPAV?$FastDelegate0@X@fastdelegate@@PAV12@00AAU?$_Wrap_alloc@V?$xalloc@V?$FastDelegate0@X@fastdelegate@@@@@0@@Z 100172d0 f i r2.obj
 0001:000162f0       ??$_Rechecked@PAV?$FastDelegate0@X@fastdelegate@@PAV12@@std@@YAAAPAV?$FastDelegate0@X@fastdelegate@@AAPAV12@PAV12@@Z 100172f0 f i r2.obj
 0001:00016300       ?construct@?$xalloc@V?$FastDelegate0@X@fastdelegate@@@@QAEXPAV?$FastDelegate0@X@fastdelegate@@ABV23@@Z 10017300 f i r2.obj
 0001:00016330       ?destroy@?$xalloc@UFSlideWindowItem@@@@QAEXPAUFSlideWindowItem@@@Z 10017330 f i r2.obj
 0001:00016340       ?destroy@?$xalloc@V?$svector@U_D3DVERTEXELEMENT9@@$0EB@@@@@QAEXPAV?$svector@U_D3DVERTEXELEMENT9@@$0EB@@@@Z 10017340 f i r2.obj
 0001:00016350       ?destroy@?$xalloc@Ucascade@sun@@@@QAEXPAUcascade@sun@@@Z 10017350 f i r2.obj
 0001:00016390       ??$swap@V?$FastDelegate0@X@fastdelegate@@@std@@YAXAAV?$FastDelegate0@X@fastdelegate@@0@Z 10017390 f i r2.obj
 0001:000163b0       ??$forward@U_REG_INFO@@@std@@YA$$QAU_REG_INFO@@AAU1@@Z 100173b0 f i r2.obj
 0001:000163c0       ??$construct@U_REG_INFO@@U1@@?$allocator_traits@V?$xalloc@U_REG_INFO@@@@@std@@SAXAAV?$xalloc@U_REG_INFO@@@@PAU_REG_INFO@@$$QAU3@@Z 100173c0 f i r2.obj
 0001:000163e0       ??$_Uninit_move@PAV?$FastDelegate0@X@fastdelegate@@PAV12@V?$xalloc@V?$FastDelegate0@X@fastdelegate@@@@V12@@std@@YAPAV?$FastDelegate0@X@fastdelegate@@PAV12@00AAU?$_Wrap_alloc@V?$xalloc@V?$FastDelegate0@X@fastdelegate@@@@@0@0U_Nonscalar_ptr_iterator_tag@0@@Z 100173e0 f i r2.obj
 0001:00016450       ??$_Construct@V?$FastDelegate0@X@fastdelegate@@ABV12@@std@@YAXPAV?$FastDelegate0@X@fastdelegate@@ABV12@@Z 10017450 f i r2.obj
 0001:00016470       ??$_Destroy@UFSlideWindowItem@@@std@@YAXPAUFSlideWindowItem@@@Z 10017470 f i r2.obj
 0001:00016480       ??$_Destroy@V?$svector@U_D3DVERTEXELEMENT9@@$0EB@@@@std@@YAXPAV?$svector@U_D3DVERTEXELEMENT9@@$0EB@@@@Z 10017480 f i r2.obj
 0001:00016490       ??$_Destroy@Ucascade@sun@@@std@@YAXPAUcascade@sun@@@Z 10017490 f i r2.obj
 0001:000164c0       ??_Gcascade@sun@@QAEPAXI@Z 100174c0 f i r2.obj
 0001:00016500       ??1cascade@sun@@QAE@XZ     10017500 f i r2.obj
 0001:00016530       ??0?$FastDelegate0@X@fastdelegate@@QAE@ABV01@@Z 10017530 f i r2.obj
 0001:00016550       ??$_Move@AAV?$FastDelegate0@X@fastdelegate@@@std@@YA$$QAV?$FastDelegate0@X@fastdelegate@@AAV12@@Z 10017550 f i r2.obj
 0001:00016560       ??$_Fn@V?$xalloc@U_REG_INFO@@@@U_REG_INFO@@U2@@_Alloc_construct@std@@SAXHAAV?$xalloc@U_REG_INFO@@@@PAU_REG_INFO@@$$QAU3@@Z 10017560 f i r2.obj
 0001:00016580       ??$forward@ABV?$FastDelegate0@X@fastdelegate@@@std@@YAABV?$FastDelegate0@X@fastdelegate@@ABV12@@Z 10017580 f i r2.obj
 0001:00016590       ?active_phase@CRender@@UAEIXZ 10017590 f i r2.obj
 0001:000165a0       ?Logging@CModelPool@@QAEXH@Z 100175a0 f i r2.obj
 0001:000165b0       ?model_Logging@CRender@@UAEXH@Z 100175b0 f i r2.obj
 0001:000165c0       ?phase_wet_rain@CRender@@UAEXXZ 100175c0 f i r2.obj
 0001:000165d0       ?getShaderPath@CRender@@UAEPBDXZ 100175d0 f i r2.obj
 0001:000165e0       ?get_dx_level@CRender@@UAEKXZ 100175e0 f i r2.obj
 0001:000165f0       ?is_sun_static@CRender@@UAE_NXZ 100175f0 f i r2.obj
 0001:00016600       ?get_generation@CRender@@UAE?AW4GenerationLevel@IRender_interface@@XZ 10017600 f i r2.obj
 0001:00016610       ??$_Destroy@Uray@sun@@@std@@YAXPAUray@sun@@@Z 10017610 f i r2.obj
 0001:00016620       ?destroy@?$xalloc@Uray@sun@@@@QAEXPAUray@sun@@@Z 10017620 f i r2.obj
 0001:00016630       ??$_Fn@V?$xalloc@Uray@sun@@@@Uray@sun@@@_Alloc_destroy@std@@SAXHAAV?$xalloc@Uray@sun@@@@PAUray@sun@@@Z 10017630 f i r2.obj
 0001:00016640       ??$destroy@Uray@sun@@@?$allocator_traits@V?$xalloc@Uray@sun@@@@@std@@SAXAAV?$xalloc@Uray@sun@@@@PAUray@sun@@@Z 10017640 f i r2.obj
 0001:00016650       ??$destroy@Uray@sun@@@?$_Wrap_alloc@V?$xalloc@Uray@sun@@@@@std@@QAEXPAUray@sun@@@Z 10017650 f i r2.obj
 0001:00016660       ??$_Destroy_range@U?$_Wrap_alloc@V?$xalloc@Uray@sun@@@@@std@@@std@@YAXPAUray@sun@@0AAU?$_Wrap_alloc@V?$xalloc@Uray@sun@@@@@0@U_Nonscalar_ptr_iterator_tag@0@@Z 10017660 f i r2.obj
 0001:00016670       ??$_Ptr_cat@Uray@sun@@U12@@std@@YA?AU_Nonscalar_ptr_iterator_tag@0@PAUray@sun@@0@Z 10017670 f i r2.obj
 0001:00016680       ??$_Destroy_range@U?$_Wrap_alloc@V?$xalloc@Uray@sun@@@@@std@@@std@@YAXPAUray@sun@@0AAU?$_Wrap_alloc@V?$xalloc@Uray@sun@@@@@0@@Z 10017680 f i r2.obj
 0001:00016690       ?_Destroy@?$vector@Uray@sun@@V?$xalloc@Uray@sun@@@@@std@@IAEXPAUray@sun@@0@Z 10017690 f i r2.obj
 0001:000166a0       ??$xr_free@Uray@sun@@@@YAXAAPAUray@sun@@@Z 100176a0 f i r2.obj
 0001:000166c0       ?deallocate@?$xalloc@Uray@sun@@@@QBEXPAUray@sun@@I@Z 100176c0 f i r2.obj
 0001:000166e0       ?deallocate@?$_Wrap_alloc@V?$xalloc@Uray@sun@@@@@std@@QAEXPAUray@sun@@I@Z 100176e0 f i r2.obj
 0001:00016700       ??0?$xalloc@Uray@sun@@@@QAE@XZ 10017700 f i r2.obj
 0001:00016710       ??0?$_Wrap_alloc@V?$xalloc@Uray@sun@@@@@std@@QAE@XZ 10017710 f i r2.obj
 0001:00016720       ?_Getal@?$_Vector_alloc@$0A@U?$_Vec_base_types@Uray@sun@@V?$xalloc@Uray@sun@@@@@std@@@std@@QBE?AU?$_Wrap_alloc@V?$xalloc@Uray@sun@@@@@2@XZ 10017720 f i r2.obj
 0001:00016730       ?_Tidy@?$vector@Uray@sun@@V?$xalloc@Uray@sun@@@@@std@@IAEXXZ 10017730 f i r2.obj
 0001:00016760       ??1?$vector@Uray@sun@@V?$xalloc@Uray@sun@@@@@std@@QAE@XZ 10017760 f i r2.obj
 0001:00016790       ??1?$xr_vector@Uray@sun@@V?$xalloc@Uray@sun@@@@@@QAE@XZ 10017790 f i r2.obj
 0001:000167c0       ?SetMementoFrom@DelegateMemento@fastdelegate@@IAEXABV12@@Z 100177c0 f i r2.obj
 0001:000167e0       ??$CopyFrom@V?$FastDelegate0@X@fastdelegate@@@?$ClosurePtr@P8GenericClass@detail@fastdelegate@@AGXXZP6AXXZP6AXXZ@detail@fastdelegate@@QAEXPAV?$FastDelegate0@X@2@ABVDelegateMemento@2@@Z 100177e0 f i r2.obj
 0001:00016800       ??4?$FastDelegate0@X@fastdelegate@@QAEXABV01@@Z 10017800 f i r2.obj
 0001:00016820       ??$_Destroy@V?$FastDelegate0@X@fastdelegate@@@std@@YAXPAV?$FastDelegate0@X@fastdelegate@@@Z 10017820 f i r2.obj
 0001:00016830       ?destroy@?$xalloc@V?$FastDelegate0@X@fastdelegate@@@@QAEXPAV?$FastDelegate0@X@fastdelegate@@@Z 10017830 f i r2.obj
 0001:00016840       ??$_Fn@V?$xalloc@V?$FastDelegate0@X@fastdelegate@@@@V?$FastDelegate0@X@fastdelegate@@@_Alloc_destroy@std@@SAXHAAV?$xalloc@V?$FastDelegate0@X@fastdelegate@@@@PAV?$FastDelegate0@X@fastdelegate@@@Z 10017840 f i r2.obj
 0001:00016850       ??$destroy@V?$FastDelegate0@X@fastdelegate@@@?$allocator_traits@V?$xalloc@V?$FastDelegate0@X@fastdelegate@@@@@std@@SAXAAV?$xalloc@V?$FastDelegate0@X@fastdelegate@@@@PAV?$FastDelegate0@X@fastdelegate@@@Z 10017850 f i r2.obj
 0001:00016860       ??$destroy@V?$FastDelegate0@X@fastdelegate@@@?$_Wrap_alloc@V?$xalloc@V?$FastDelegate0@X@fastdelegate@@@@@std@@QAEXPAV?$FastDelegate0@X@fastdelegate@@@Z 10017860 f i r2.obj
 0001:00016870       ??$_Destroy_range@U?$_Wrap_alloc@V?$xalloc@V?$FastDelegate0@X@fastdelegate@@@@@std@@@std@@YAXPAV?$FastDelegate0@X@fastdelegate@@0AAU?$_Wrap_alloc@V?$xalloc@V?$FastDelegate0@X@fastdelegate@@@@@0@U_Nonscalar_ptr_iterator_tag@0@@Z 10017870 f i r2.obj
 0001:00016880       ??$_Ptr_cat@V?$FastDelegate0@X@fastdelegate@@V12@@std@@YA?AU_Nonscalar_ptr_iterator_tag@0@PAV?$FastDelegate0@X@fastdelegate@@0@Z 10017880 f i r2.obj
 0001:00016890       ??$_Destroy_range@U?$_Wrap_alloc@V?$xalloc@V?$FastDelegate0@X@fastdelegate@@@@@std@@@std@@YAXPAV?$FastDelegate0@X@fastdelegate@@0AAU?$_Wrap_alloc@V?$xalloc@V?$FastDelegate0@X@fastdelegate@@@@@0@@Z 10017890 f i r2.obj
 0001:000168a0       ?_Destroy@?$vector@V?$FastDelegate0@X@fastdelegate@@V?$xalloc@V?$FastDelegate0@X@fastdelegate@@@@@std@@IAEXPAV?$FastDelegate0@X@fastdelegate@@0@Z 100178a0 f i r2.obj
 0001:000168b0       ??$xr_free@V?$FastDelegate0@X@fastdelegate@@@@YAXAAPAV?$FastDelegate0@X@fastdelegate@@@Z 100178b0 f i r2.obj
 0001:000168d0       ?deallocate@?$xalloc@V?$FastDelegate0@X@fastdelegate@@@@QBEXPAV?$FastDelegate0@X@fastdelegate@@I@Z 100178d0 f i r2.obj
 0001:000168f0       ?deallocate@?$_Wrap_alloc@V?$xalloc@V?$FastDelegate0@X@fastdelegate@@@@@std@@QAEXPAV?$FastDelegate0@X@fastdelegate@@I@Z 100178f0 f i r2.obj
 0001:00016910       ?_Unchecked@?$_Vector_iterator@V?$_Vector_val@U?$_Simple_types@V?$FastDelegate0@X@fastdelegate@@@std@@@std@@@std@@QBEPAV?$FastDelegate0@X@fastdelegate@@XZ 10017910 f i r2.obj
 0001:00016920       ??$_Unchecked@V?$_Vector_val@U?$_Simple_types@V?$FastDelegate0@X@fastdelegate@@@std@@@std@@@std@@YAPAV?$FastDelegate0@X@fastdelegate@@V?$_Vector_iterator@V?$_Vector_val@U?$_Simple_types@V?$FastDelegate0@X@fastdelegate@@@std@@@std@@@0@@Z 10017920 f i r2.obj
 0001:00016930       ?_Compat@?$_Vector_const_iterator@V?$_Vector_val@U?$_Simple_types@V?$FastDelegate0@X@fastdelegate@@@std@@@std@@@std@@QBEXABV12@@Z 10017930 f i r2.obj
 0001:00016940       ??8?$_Vector_const_iterator@V?$_Vector_val@U?$_Simple_types@V?$FastDelegate0@X@fastdelegate@@@std@@@std@@@std@@QBE_NABV01@@Z 10017940 f i r2.obj
 0001:00016950       ??9?$_Vector_const_iterator@V?$_Vector_val@U?$_Simple_types@V?$FastDelegate0@X@fastdelegate@@@std@@@std@@@std@@QBE_NABV01@@Z 10017950 f i r2.obj
 0001:00016960       ??0?$xalloc@V?$FastDelegate0@X@fastdelegate@@@@QAE@XZ 10017960 f i r2.obj
 0001:00016970       ??0?$_Wrap_alloc@V?$xalloc@V?$FastDelegate0@X@fastdelegate@@@@@std@@QAE@XZ 10017970 f i r2.obj
 0001:00016980       ?_Getal@?$_Vector_alloc@$0A@U?$_Vec_base_types@V?$FastDelegate0@X@fastdelegate@@V?$xalloc@V?$FastDelegate0@X@fastdelegate@@@@@std@@@std@@QBE?AU?$_Wrap_alloc@V?$xalloc@V?$FastDelegate0@X@fastdelegate@@@@@2@XZ 10017980 f i r2.obj
 0001:00016990       ?end@?$vector@V?$FastDelegate0@X@fastdelegate@@V?$xalloc@V?$FastDelegate0@X@fastdelegate@@@@@std@@QAE?AV?$_Vector_iterator@V?$_Vector_val@U?$_Simple_types@V?$FastDelegate0@X@fastdelegate@@@std@@@std@@@2@XZ 10017990 f i r2.obj
 0001:000169a0       ??0DelegateMemento@fastdelegate@@QAE@XZ 100179a0 f i r2.obj
 0001:000169b0       ??0?$ClosurePtr@P8GenericClass@detail@fastdelegate@@AGXXZP6AXXZP6AXXZ@detail@fastdelegate@@QAE@XZ 100179b0 f i r2.obj
 0001:000169c0       ??$_Destroy_range@U?$_Wrap_alloc@V?$xalloc@U_REG_INFO@@@@@std@@@std@@YAXPAU_REG_INFO@@0AAU?$_Wrap_alloc@V?$xalloc@U_REG_INFO@@@@@0@U_Nonscalar_ptr_iterator_tag@0@@Z 100179c0 f i r2.obj
 0001:000169d0       ??$_Ptr_cat@U_REG_INFO@@U1@@std@@YA?AU_Nonscalar_ptr_iterator_tag@0@PAU_REG_INFO@@0@Z 100179d0 f i r2.obj
 0001:000169e0       ??$_Destroy_range@U?$_Wrap_alloc@V?$xalloc@U_REG_INFO@@@@@std@@@std@@YAXPAU_REG_INFO@@0AAU?$_Wrap_alloc@V?$xalloc@U_REG_INFO@@@@@0@@Z 100179e0 f i r2.obj
 0001:000169f0       ?_Destroy@?$vector@U_REG_INFO@@V?$xalloc@U_REG_INFO@@@@@std@@IAEXPAU_REG_INFO@@0@Z 100179f0 f i r2.obj
 0001:00016a00       ??$xr_free@U_REG_INFO@@@@YAXAAPAU_REG_INFO@@@Z 10017a00 f i r2.obj
 0001:00016a20       ?deallocate@?$xalloc@U_REG_INFO@@@@QBEXPAU_REG_INFO@@I@Z 10017a20 f i r2.obj
 0001:00016a40       ?deallocate@?$_Wrap_alloc@V?$xalloc@U_REG_INFO@@@@@std@@QAEXPAU_REG_INFO@@I@Z 10017a40 f i r2.obj
 0001:00016a60       ??$_Destroy@U_REG_INFO@@@std@@YAXPAU_REG_INFO@@@Z 10017a60 f i r2.obj
 0001:00016a70       ?destroy@?$xalloc@U_REG_INFO@@@@QAEXPAU_REG_INFO@@@Z 10017a70 f i r2.obj
 0001:00016a80       ??$_Fn@V?$xalloc@U_REG_INFO@@@@U_REG_INFO@@@_Alloc_destroy@std@@SAXHAAV?$xalloc@U_REG_INFO@@@@PAU_REG_INFO@@@Z 10017a80 f i r2.obj
 0001:00016a90       ??$destroy@U_REG_INFO@@@?$allocator_traits@V?$xalloc@U_REG_INFO@@@@@std@@SAXAAV?$xalloc@U_REG_INFO@@@@PAU_REG_INFO@@@Z 10017a90 f i r2.obj
 0001:00016aa0       ??$destroy@U_REG_INFO@@@?$_Wrap_alloc@V?$xalloc@U_REG_INFO@@@@@std@@QAEXPAU_REG_INFO@@@Z 10017aa0 f i r2.obj
 0001:00016ab0       ??$xr_free@U?$_vector2@H@@@@YAXAAPAU?$_vector2@H@@@Z 10017ab0 f i r2.obj
 0001:00016ad0       ?deallocate@?$xalloc@U?$_vector2@H@@@@QBEXPAU?$_vector2@H@@I@Z 10017ad0 f i r2.obj
 0001:00016af0       ?deallocate@?$_Wrap_alloc@V?$xalloc@U?$_vector2@H@@@@@std@@QAEXPAU?$_vector2@H@@I@Z 10017af0 f i r2.obj
 0001:00016b10       ??0?$_Wrap_alloc@V?$xalloc@U?$_vector2@H@@@@@std@@QAE@XZ 10017b10 f i r2.obj
 0001:00016b20       ?_Getal@?$_Vector_alloc@$0A@U?$_Vec_base_types@U?$_vector2@H@@V?$xalloc@U?$_vector2@H@@@@@std@@@std@@QBE?AU?$_Wrap_alloc@V?$xalloc@U?$_vector2@H@@@@@2@XZ 10017b20 f i r2.obj
 0001:00016b30       ??$_Destroy@U?$_vector2@H@@@std@@YAXPAU?$_vector2@H@@@Z 10017b30 f i r2.obj
 0001:00016b40       ?destroy@?$xalloc@U?$_vector2@H@@@@QAEXPAU?$_vector2@H@@@Z 10017b40 f i r2.obj
 0001:00016b50       ??$_Fn@V?$xalloc@U?$_vector2@H@@@@U?$_vector2@H@@@_Alloc_destroy@std@@SAXHAAV?$xalloc@U?$_vector2@H@@@@PAU?$_vector2@H@@@Z 10017b50 f i r2.obj
 0001:00016b60       ??$destroy@U?$_vector2@H@@@?$allocator_traits@V?$xalloc@U?$_vector2@H@@@@@std@@SAXAAV?$xalloc@U?$_vector2@H@@@@PAU?$_vector2@H@@@Z 10017b60 f i r2.obj
 0001:00016b70       ??$destroy@U?$_vector2@H@@@?$_Wrap_alloc@V?$xalloc@U?$_vector2@H@@@@@std@@QAEXPAU?$_vector2@H@@@Z 10017b70 f i r2.obj
 0001:00016b80       ??$_Destroy_range@U?$_Wrap_alloc@V?$xalloc@U?$_vector2@H@@@@@std@@@std@@YAXPAU?$_vector2@H@@0AAU?$_Wrap_alloc@V?$xalloc@U?$_vector2@H@@@@@0@U_Nonscalar_ptr_iterator_tag@0@@Z 10017b80 f i r2.obj
 0001:00016b90       ??$_Ptr_cat@U?$_vector2@H@@U1@@std@@YA?AU_Nonscalar_ptr_iterator_tag@0@PAU?$_vector2@H@@0@Z 10017b90 f i r2.obj
 0001:00016ba0       ??$_Destroy_range@U?$_Wrap_alloc@V?$xalloc@U?$_vector2@H@@@@@std@@@std@@YAXPAU?$_vector2@H@@0AAU?$_Wrap_alloc@V?$xalloc@U?$_vector2@H@@@@@0@@Z 10017ba0 f i r2.obj
 0001:00016bb0       ?_Destroy@?$vector@U?$_vector2@H@@V?$xalloc@U?$_vector2@H@@@@@std@@IAEXPAU?$_vector2@H@@0@Z 10017bb0 f i r2.obj
 0001:00016bc0       ??0?$xalloc@U?$_vector2@H@@@@QAE@XZ 10017bc0 f i r2.obj
 0001:00016bd0       ??$xr_free@USMAP_Rect@@@@YAXAAPAUSMAP_Rect@@@Z 10017bd0 f i r2.obj
 0001:00016bf0       ?deallocate@?$xalloc@USMAP_Rect@@@@QBEXPAUSMAP_Rect@@I@Z 10017bf0 f i r2.obj
 0001:00016c10       ?deallocate@?$_Wrap_alloc@V?$xalloc@USMAP_Rect@@@@@std@@QAEXPAUSMAP_Rect@@I@Z 10017c10 f i r2.obj
 0001:00016c30       ??0?$_Wrap_alloc@V?$xalloc@USMAP_Rect@@@@@std@@QAE@XZ 10017c30 f i r2.obj
 0001:00016c40       ?_Getal@?$_Vector_alloc@$0A@U?$_Vec_base_types@USMAP_Rect@@V?$xalloc@USMAP_Rect@@@@@std@@@std@@QBE?AU?$_Wrap_alloc@V?$xalloc@USMAP_Rect@@@@@2@XZ 10017c40 f i r2.obj
 0001:00016c50       ??$_Destroy@USMAP_Rect@@@std@@YAXPAUSMAP_Rect@@@Z 10017c50 f i r2.obj
 0001:00016c60       ?destroy@?$xalloc@USMAP_Rect@@@@QAEXPAUSMAP_Rect@@@Z 10017c60 f i r2.obj
 0001:00016c70       ??$_Fn@V?$xalloc@USMAP_Rect@@@@USMAP_Rect@@@_Alloc_destroy@std@@SAXHAAV?$xalloc@USMAP_Rect@@@@PAUSMAP_Rect@@@Z 10017c70 f i r2.obj
 0001:00016c80       ??$destroy@USMAP_Rect@@@?$allocator_traits@V?$xalloc@USMAP_Rect@@@@@std@@SAXAAV?$xalloc@USMAP_Rect@@@@PAUSMAP_Rect@@@Z 10017c80 f i r2.obj
 0001:00016c90       ??$destroy@USMAP_Rect@@@?$_Wrap_alloc@V?$xalloc@USMAP_Rect@@@@@std@@QAEXPAUSMAP_Rect@@@Z 10017c90 f i r2.obj
 0001:00016ca0       ??$_Destroy_range@U?$_Wrap_alloc@V?$xalloc@USMAP_Rect@@@@@std@@@std@@YAXPAUSMAP_Rect@@0AAU?$_Wrap_alloc@V?$xalloc@USMAP_Rect@@@@@0@U_Nonscalar_ptr_iterator_tag@0@@Z 10017ca0 f i r2.obj
 0001:00016cb0       ??$_Ptr_cat@USMAP_Rect@@U1@@std@@YA?AU_Nonscalar_ptr_iterator_tag@0@PAUSMAP_Rect@@0@Z 10017cb0 f i r2.obj
 0001:00016cc0       ??$_Destroy_range@U?$_Wrap_alloc@V?$xalloc@USMAP_Rect@@@@@std@@@std@@YAXPAUSMAP_Rect@@0AAU?$_Wrap_alloc@V?$xalloc@USMAP_Rect@@@@@0@@Z 10017cc0 f i r2.obj
 0001:00016cd0       ?_Destroy@?$vector@USMAP_Rect@@V?$xalloc@USMAP_Rect@@@@@std@@IAEXPAUSMAP_Rect@@0@Z 10017cd0 f i r2.obj
 0001:00016ce0       ??0?$xalloc@USMAP_Rect@@@@QAE@XZ 10017ce0 f i r2.obj
 0001:00016cf0       ??$xr_free@PAVIRender_Visual@@@@YAXAAPAPAVIRender_Visual@@@Z 10017cf0 f i r2.obj
 0001:00016d10       ?deallocate@?$xalloc@PAVIRender_Visual@@@@QBEXPAPAVIRender_Visual@@I@Z 10017d10 f i r2.obj
 0001:00016d30       ?deallocate@?$_Wrap_alloc@V?$xalloc@PAVIRender_Visual@@@@@std@@QAEXPAPAVIRender_Visual@@I@Z 10017d30 f i r2.obj
 0001:00016d50       ??0?$_Wrap_alloc@V?$xalloc@PAVIRender_Visual@@@@@std@@QAE@XZ 10017d50 f i r2.obj
 0001:00016d60       ?_Getal@?$_Vector_alloc@$0A@U?$_Vec_base_types@PAVIRender_Visual@@V?$xalloc@PAVIRender_Visual@@@@@std@@@std@@QBE?AU?$_Wrap_alloc@V?$xalloc@PAVIRender_Visual@@@@@2@XZ 10017d60 f i r2.obj
 0001:00016d70       ??$_Destroy_range@U?$_Wrap_alloc@V?$xalloc@PAVIRender_Visual@@@@@std@@@std@@YAXPAPAVIRender_Visual@@0AAU?$_Wrap_alloc@V?$xalloc@PAVIRender_Visual@@@@@0@U_Scalar_ptr_iterator_tag@0@@Z 10017d70 f i r2.obj
 0001:00016d80       ??$_Destroy_range@U?$_Wrap_alloc@V?$xalloc@PAVIRender_Visual@@@@@std@@@std@@YAXPAPAVIRender_Visual@@0AAU?$_Wrap_alloc@V?$xalloc@PAVIRender_Visual@@@@@0@@Z 10017d80 f i r2.obj
 0001:00016d90       ?_Destroy@?$vector@PAVIRender_Visual@@V?$xalloc@PAVIRender_Visual@@@@@std@@IAEXPAPAVIRender_Visual@@0@Z 10017d90 f i r2.obj
 0001:00016da0       ??0?$xalloc@PAVIRender_Visual@@@@QAE@XZ 10017da0 f i r2.obj
 0001:00016db0       ??0?$_Wrap_alloc@V?$doug_lea_alloc@V?$_box3@M@@@@@std@@QAE@XZ 10017db0 f i r2.obj
 0001:00016dc0       ?_Getal@?$_Vector_alloc@$0A@U?$_Vec_base_types@V?$_box3@M@@V?$doug_lea_alloc@V?$_box3@M@@@@@std@@@std@@QBE?AU?$_Wrap_alloc@V?$doug_lea_alloc@V?$_box3@M@@@@@2@XZ 10017dc0 f i r2.obj
 0001:00016dd0       ??$_Destroy@V?$_box3@M@@@std@@YAXPAV?$_box3@M@@@Z 10017dd0 f i r2.obj
 0001:00016de0       ?destroy@?$doug_lea_alloc@V?$_box3@M@@@@QAEXPAV?$_box3@M@@@Z 10017de0 f i r2.obj
 0001:00016df0       ??$_Fn@V?$doug_lea_alloc@V?$_box3@M@@@@V?$_box3@M@@@_Alloc_destroy@std@@SAXHAAV?$doug_lea_alloc@V?$_box3@M@@@@PAV?$_box3@M@@@Z 10017df0 f i r2.obj
 0001:00016e00       ??$destroy@V?$_box3@M@@@?$allocator_traits@V?$doug_lea_alloc@V?$_box3@M@@@@@std@@SAXAAV?$doug_lea_alloc@V?$_box3@M@@@@PAV?$_box3@M@@@Z 10017e00 f i r2.obj
 0001:00016e10       ??$destroy@V?$_box3@M@@@?$_Wrap_alloc@V?$doug_lea_alloc@V?$_box3@M@@@@@std@@QAEXPAV?$_box3@M@@@Z 10017e10 f i r2.obj
 0001:00016e20       ??$_Destroy_range@U?$_Wrap_alloc@V?$doug_lea_alloc@V?$_box3@M@@@@@std@@@std@@YAXPAV?$_box3@M@@0AAU?$_Wrap_alloc@V?$doug_lea_alloc@V?$_box3@M@@@@@0@U_Nonscalar_ptr_iterator_tag@0@@Z 10017e20 f i r2.obj
 0001:00016e30       ??$_Ptr_cat@V?$_box3@M@@V1@@std@@YA?AU_Nonscalar_ptr_iterator_tag@0@PAV?$_box3@M@@0@Z 10017e30 f i r2.obj
 0001:00016e40       ??$_Destroy_range@U?$_Wrap_alloc@V?$doug_lea_alloc@V?$_box3@M@@@@@std@@@std@@YAXPAV?$_box3@M@@0AAU?$_Wrap_alloc@V?$doug_lea_alloc@V?$_box3@M@@@@@0@@Z 10017e40 f i r2.obj
 0001:00016e50       ?_Destroy@?$vector@V?$_box3@M@@V?$doug_lea_alloc@V?$_box3@M@@@@@std@@IAEXPAV?$_box3@M@@0@Z 10017e50 f i r2.obj
 0001:00016e60       ??0?$doug_lea_alloc@V?$_box3@M@@@@QAE@XZ 10017e60 f i r2.obj
 0001:00016e70       ??0?$xalloc@U_REG_INFO@@@@QAE@XZ 10017e70 f i r2.obj
 0001:00016e80       ??0?$_Wrap_alloc@V?$xalloc@U_REG_INFO@@@@@std@@QAE@XZ 10017e80 f i r2.obj
 0001:00016e90       ?_Getal@?$_Vector_alloc@$0A@U?$_Vec_base_types@U_REG_INFO@@V?$xalloc@U_REG_INFO@@@@@std@@@std@@QBE?AU?$_Wrap_alloc@V?$xalloc@U_REG_INFO@@@@@2@XZ 10017e90 f i r2.obj
 0001:00016ea0       ??0?$_Vector_const_iterator@V?$_Vector_val@U?$_Simple_types@PAVIRender_Visual@@@std@@@std@@@std@@QAE@PAPAVIRender_Visual@@PBU_Container_base0@1@@Z 10017ea0 f i r2.obj
 0001:00016eb0       ??0?$_Vector_iterator@V?$_Vector_val@U?$_Simple_types@PAVIRender_Visual@@@std@@@std@@@std@@QAE@PAPAVIRender_Visual@@PBU_Container_base0@1@@Z 10017eb0 f i r2.obj
 0001:00016ec0       ?begin@?$vector@PAVIRender_Visual@@V?$xalloc@PAVIRender_Visual@@@@@std@@QAE?AV?$_Vector_iterator@V?$_Vector_val@U?$_Simple_types@PAVIRender_Visual@@@std@@@std@@@2@XZ 10017ec0 f i r2.obj
 0001:00016ed0       ??Y?$_Vector_const_iterator@V?$_Vector_val@U?$_Simple_types@PAVIRender_Visual@@@std@@@std@@@std@@QAEAAV01@H@Z 10017ed0 f i r2.obj
 0001:00016ee0       ??Y?$_Vector_iterator@V?$_Vector_val@U?$_Simple_types@PAVIRender_Visual@@@std@@@std@@@std@@QAEAAV01@H@Z 10017ee0 f i r2.obj
 0001:00016ef0       ??H?$_Vector_iterator@V?$_Vector_val@U?$_Simple_types@PAVIRender_Visual@@@std@@@std@@@std@@QBE?AV01@H@Z 10017ef0 f i r2.obj
 0001:00016f10       ??$move@AAV?$FastDelegate0@X@fastdelegate@@@std@@YA$$QAV?$FastDelegate0@X@fastdelegate@@AAV12@@Z 10017f10 f i r2.obj
 0001:00016f20       ?size@?$basic_string@DU?$char_traits@D@std@@V?$xalloc@D@@@std@@QBEIXZ 10017f20 f i r2.obj
 0001:00016f30       ?make_string@@YA?AV?$basic_string@DU?$char_traits@D@std@@V?$allocator@D@2@@std@@PBDZZ 10017f30 f i r2.obj
 0001:00016fb0       ??1CPSLibrary@@QAE@XZ      10017fb0 f i r2.obj
 0001:00017010       ??0library_interface@particles_systems@@QAE@XZ 10018010 f i r2.obj
 0001:00017020       ??0?$_Vector_val@U?$_Simple_types@PAVCPEDef@PS@@@std@@@std@@QAE@XZ 10018020 f i r2.obj
 0001:00017040       ??0?$_Vector_alloc@$0A@U?$_Vec_base_types@PAVCPEDef@PS@@V?$xalloc@PAVCPEDef@PS@@@@@std@@@std@@QAE@ABV?$xalloc@PAVCPEDef@PS@@@@@Z 10018040 f i r2.obj
 0001:00017060       ??0?$vector@PAVCPEDef@PS@@V?$xalloc@PAVCPEDef@PS@@@@@std@@QAE@XZ 10018060 f i r2.obj
 0001:00017080       ??0?$xr_vector@PAVCPEDef@PS@@V?$xalloc@PAVCPEDef@PS@@@@@@QAE@XZ 10018080 f i r2.obj
 0001:000170a0       ?_Tidy@?$vector@PAVCPEDef@PS@@V?$xalloc@PAVCPEDef@PS@@@@@std@@IAEXXZ 100180a0 f i r2.obj
 0001:000170d0       ??1?$vector@PAVCPEDef@PS@@V?$xalloc@PAVCPEDef@PS@@@@@std@@QAE@XZ 100180d0 f i r2.obj
 0001:00017100       ??1?$xr_vector@PAVCPEDef@PS@@V?$xalloc@PAVCPEDef@PS@@@@@@QAE@XZ 10018100 f i r2.obj
 0001:00017130       ??0?$_Vector_val@U?$_Simple_types@PAVCPGDef@PS@@@std@@@std@@QAE@XZ 10018130 f i r2.obj
 0001:00017150       ??0?$_Vector_alloc@$0A@U?$_Vec_base_types@PAVCPGDef@PS@@V?$xalloc@PAVCPGDef@PS@@@@@std@@@std@@QAE@ABV?$xalloc@PAVCPGDef@PS@@@@@Z 10018150 f i r2.obj
 0001:00017170       ??0?$vector@PAVCPGDef@PS@@V?$xalloc@PAVCPGDef@PS@@@@@std@@QAE@XZ 10018170 f i r2.obj
 0001:00017190       ??0?$xr_vector@PAVCPGDef@PS@@V?$xalloc@PAVCPGDef@PS@@@@@@QAE@XZ 10018190 f i r2.obj
 0001:000171b0       ?_Tidy@?$vector@PAVCPGDef@PS@@V?$xalloc@PAVCPGDef@PS@@@@@std@@IAEXXZ 100181b0 f i r2.obj
 0001:000171e0       ??1?$vector@PAVCPGDef@PS@@V?$xalloc@PAVCPGDef@PS@@@@@std@@QAE@XZ 100181e0 f i r2.obj
 0001:00017210       ??1?$xr_vector@PAVCPGDef@PS@@V?$xalloc@PAVCPGDef@PS@@@@@@QAE@XZ 10018210 f i r2.obj
 0001:00017240       ??0CPSLibrary@@QAE@XZ      10018240 f i r2.obj
 0001:00017280       ??1R_dsgraph_structure@@UAE@XZ 10018280 f i r2.obj
 0001:00017980       ?set_Transform@R_dsgraph_structure@@UAEXPAU?$_matrix@M@@@Z 10018980 f i r2.obj
 0001:00017990       ?set_HUD@R_dsgraph_structure@@UAEXH@Z 10018990 f i r2.obj
 0001:000179a0       ?get_HUD@R_dsgraph_structure@@UAEHXZ 100189a0 f i r2.obj
 0001:000179b0       ?set_Invisible@R_dsgraph_structure@@UAEXH@Z 100189b0 f i r2.obj
 0001:000179c0       ?memory_usage@R_dsgraph_structure@@UAEIXZ 100189c0 f i r2.obj
 0001:00017a00       ??_ER_dsgraph_structure@@UAEPAXI@Z 10018a00 f i * CIL library *:* CIL module *
 0001:00017a00       ??_GR_dsgraph_structure@@UAEPAXI@Z 10018a00 f i r2.obj
 0001:00017a30       ??0?$FixedMAP@PAUIDirect3DVertexShader9@@UmapNormalPS@R_dsgraph@@Udoug_lea_allocator@@@@QAE@XZ 10018a30 f i r2.obj
 0001:00017a50       ??0mapNormalVS@R_dsgraph@@QAE@XZ 10018a50 f i r2.obj
 0001:00017a70       ??1?$FixedMAP@PAUIDirect3DVertexShader9@@UmapNormalPS@R_dsgraph@@Udoug_lea_allocator@@@@QAE@XZ 10018a70 f i r2.obj
 0001:00017a80       ??1mapNormalVS@R_dsgraph@@QAE@XZ 10018a80 f i r2.obj
 0001:00017a90       ??0?$FixedMAP@PAUIDirect3DVertexShader9@@UmapMatrixPS@R_dsgraph@@Udoug_lea_allocator@@@@QAE@XZ 10018a90 f i r2.obj
 0001:00017ab0       ??0mapMatrixVS@R_dsgraph@@QAE@XZ 10018ab0 f i r2.obj
 0001:00017ad0       ??1?$FixedMAP@PAUIDirect3DVertexShader9@@UmapMatrixPS@R_dsgraph@@Udoug_lea_allocator@@@@QAE@XZ 10018ad0 f i r2.obj
 0001:00017ae0       ??1mapMatrixVS@R_dsgraph@@QAE@XZ 10018ae0 f i r2.obj
 0001:00017af0       ??0?$FixedMAP@MU_LodItem@R_dsgraph@@Udoug_lea_allocator@@@@QAE@XZ 10018af0 f i r2.obj
 0001:00017b10       ??1?$FixedMAP@MU_LodItem@R_dsgraph@@Udoug_lea_allocator@@@@QAE@XZ 10018b10 f i r2.obj
 0001:00017b30       ??0?$FixedMAP@MU_MatrixItemS@R_dsgraph@@Udoug_lea_allocator@@@@QAE@XZ 10018b30 f i r2.obj
 0001:00017b50       ??1?$FixedMAP@MU_MatrixItemS@R_dsgraph@@Udoug_lea_allocator@@@@QAE@XZ 10018b50 f i r2.obj
 0001:00017b70       ??0?$_Vector_val@U?$_Simple_types@PAUTNode@?$FixedMAP@PAUIDirect3DVertexShader9@@UmapNormalPS@R_dsgraph@@Udoug_lea_allocator@@@@@std@@@std@@QAE@XZ 10018b70 f i r2.obj
 0001:00017b90       ??0?$_Vector_alloc@$0A@U?$_Vec_base_types@PAUTNode@?$FixedMAP@PAUIDirect3DVertexShader9@@UmapNormalPS@R_dsgraph@@Udoug_lea_allocator@@@@V?$doug_lea_alloc@PAUTNode@?$FixedMAP@PAUIDirect3DVertexShader9@@UmapNormalPS@R_dsgraph@@Udoug_lea_allocator@@@@@@@std@@@std@@QAE@ABV?$doug_lea_alloc@PAUTNode@?$FixedMAP@PAUIDirect3DVertexShader9@@UmapNormalPS@R_dsgraph@@Udoug_lea_allocator@@@@@@@Z 10018b90 f i r2.obj
 0001:00017bb0       ??0?$vector@PAUTNode@?$FixedMAP@PAUIDirect3DVertexShader9@@UmapNormalPS@R_dsgraph@@Udoug_lea_allocator@@@@V?$doug_lea_alloc@PAUTNode@?$FixedMAP@PAUIDirect3DVertexShader9@@UmapNormalPS@R_dsgraph@@Udoug_lea_allocator@@@@@@@std@@QAE@XZ 10018bb0 f i r2.obj
 0001:00017bd0       ??0?$xr_vector@PAUTNode@?$FixedMAP@PAUIDirect3DVertexShader9@@UmapNormalPS@R_dsgraph@@Udoug_lea_allocator@@@@V?$doug_lea_alloc@PAUTNode@?$FixedMAP@PAUIDirect3DVertexShader9@@UmapNormalPS@R_dsgraph@@Udoug_lea_allocator@@@@@@@@QAE@XZ 10018bd0 f i r2.obj
 0001:00017bf0       ?deallocate@?$doug_lea_alloc@PAUTNode@?$FixedMAP@PAUIDirect3DVertexShader9@@UmapNormalPS@R_dsgraph@@Udoug_lea_allocator@@@@@@QBEXPAPAUTNode@?$FixedMAP@PAUIDirect3DVertexShader9@@UmapNormalPS@R_dsgraph@@Udoug_lea_allocator@@@@I@Z 10018bf0 f i r2.obj
 0001:00017c00       ?deallocate@?$_Wrap_alloc@V?$doug_lea_alloc@PAUTNode@?$FixedMAP@PAUIDirect3DVertexShader9@@UmapNormalPS@R_dsgraph@@Udoug_lea_allocator@@@@@@@std@@QAEXPAPAUTNode@?$FixedMAP@PAUIDirect3DVertexShader9@@UmapNormalPS@R_dsgraph@@Udoug_lea_allocator@@@@I@Z 10018c00 f i r2.obj
 0001:00017c10       ?_Tidy@?$vector@PAUTNode@?$FixedMAP@PAUIDirect3DVertexShader9@@UmapNormalPS@R_dsgraph@@Udoug_lea_allocator@@@@V?$doug_lea_alloc@PAUTNode@?$FixedMAP@PAUIDirect3DVertexShader9@@UmapNormalPS@R_dsgraph@@Udoug_lea_allocator@@@@@@@std@@IAEXXZ 10018c10 f i r2.obj
 0001:00017c40       ??1?$vector@PAUTNode@?$FixedMAP@PAUIDirect3DVertexShader9@@UmapNormalPS@R_dsgraph@@Udoug_lea_allocator@@@@V?$doug_lea_alloc@PAUTNode@?$FixedMAP@PAUIDirect3DVertexShader9@@UmapNormalPS@R_dsgraph@@Udoug_lea_allocator@@@@@@@std@@QAE@XZ 10018c40 f i r2.obj
 0001:00017c70       ??1?$xr_vector@PAUTNode@?$FixedMAP@PAUIDirect3DVertexShader9@@UmapNormalPS@R_dsgraph@@Udoug_lea_allocator@@@@V?$doug_lea_alloc@PAUTNode@?$FixedMAP@PAUIDirect3DVertexShader9@@UmapNormalPS@R_dsgraph@@Udoug_lea_allocator@@@@@@@@QAE@XZ 10018c70 f i r2.obj
 0001:00017ca0       ??0?$_Vector_val@U?$_Simple_types@PAUTNode@?$FixedMAP@PAUIDirect3DPixelShader9@@UmapNormalCS@R_dsgraph@@Udoug_lea_allocator@@@@@std@@@std@@QAE@XZ 10018ca0 f i r2.obj
 0001:00017cc0       ??0?$_Vector_alloc@$0A@U?$_Vec_base_types@PAUTNode@?$FixedMAP@PAUIDirect3DPixelShader9@@UmapNormalCS@R_dsgraph@@Udoug_lea_allocator@@@@V?$doug_lea_alloc@PAUTNode@?$FixedMAP@PAUIDirect3DPixelShader9@@UmapNormalCS@R_dsgraph@@Udoug_lea_allocator@@@@@@@std@@@std@@QAE@ABV?$doug_lea_alloc@PAUTNode@?$FixedMAP@PAUIDirect3DPixelShader9@@UmapNormalCS@R_dsgraph@@Udoug_lea_allocator@@@@@@@Z 10018cc0 f i r2.obj
 0001:00017ce0       ??0?$vector@PAUTNode@?$FixedMAP@PAUIDirect3DPixelShader9@@UmapNormalCS@R_dsgraph@@Udoug_lea_allocator@@@@V?$doug_lea_alloc@PAUTNode@?$FixedMAP@PAUIDirect3DPixelShader9@@UmapNormalCS@R_dsgraph@@Udoug_lea_allocator@@@@@@@std@@QAE@XZ 10018ce0 f i r2.obj
 0001:00017d00       ??0?$xr_vector@PAUTNode@?$FixedMAP@PAUIDirect3DPixelShader9@@UmapNormalCS@R_dsgraph@@Udoug_lea_allocator@@@@V?$doug_lea_alloc@PAUTNode@?$FixedMAP@PAUIDirect3DPixelShader9@@UmapNormalCS@R_dsgraph@@Udoug_lea_allocator@@@@@@@@QAE@XZ 10018d00 f i r2.obj
 0001:00017d20       ?deallocate@?$doug_lea_alloc@PAUTNode@?$FixedMAP@PAUIDirect3DPixelShader9@@UmapNormalCS@R_dsgraph@@Udoug_lea_allocator@@@@@@QBEXPAPAUTNode@?$FixedMAP@PAUIDirect3DPixelShader9@@UmapNormalCS@R_dsgraph@@Udoug_lea_allocator@@@@I@Z 10018d20 f i r2.obj
 0001:00017d30       ?deallocate@?$_Wrap_alloc@V?$doug_lea_alloc@PAUTNode@?$FixedMAP@PAUIDirect3DPixelShader9@@UmapNormalCS@R_dsgraph@@Udoug_lea_allocator@@@@@@@std@@QAEXPAPAUTNode@?$FixedMAP@PAUIDirect3DPixelShader9@@UmapNormalCS@R_dsgraph@@Udoug_lea_allocator@@@@I@Z 10018d30 f i r2.obj
 0001:00017d40       ?_Tidy@?$vector@PAUTNode@?$FixedMAP@PAUIDirect3DPixelShader9@@UmapNormalCS@R_dsgraph@@Udoug_lea_allocator@@@@V?$doug_lea_alloc@PAUTNode@?$FixedMAP@PAUIDirect3DPixelShader9@@UmapNormalCS@R_dsgraph@@Udoug_lea_allocator@@@@@@@std@@IAEXXZ 10018d40 f i r2.obj
 0001:00017d70       ??1?$vector@PAUTNode@?$FixedMAP@PAUIDirect3DPixelShader9@@UmapNormalCS@R_dsgraph@@Udoug_lea_allocator@@@@V?$doug_lea_alloc@PAUTNode@?$FixedMAP@PAUIDirect3DPixelShader9@@UmapNormalCS@R_dsgraph@@Udoug_lea_allocator@@@@@@@std@@QAE@XZ 10018d70 f i r2.obj
 0001:00017da0       ??1?$xr_vector@PAUTNode@?$FixedMAP@PAUIDirect3DPixelShader9@@UmapNormalCS@R_dsgraph@@Udoug_lea_allocator@@@@V?$doug_lea_alloc@PAUTNode@?$FixedMAP@PAUIDirect3DPixelShader9@@UmapNormalCS@R_dsgraph@@Udoug_lea_allocator@@@@@@@@QAE@XZ 10018da0 f i r2.obj
 0001:00017dd0       ??0?$_Vector_val@U?$_Simple_types@PAUTNode@?$FixedMAP@PAVR_constant_table@@UmapNormalStates@R_dsgraph@@Udoug_lea_allocator@@@@@std@@@std@@QAE@XZ 10018dd0 f i r2.obj
 0001:00017df0       ??0?$_Vector_alloc@$0A@U?$_Vec_base_types@PAUTNode@?$FixedMAP@PAVR_constant_table@@UmapNormalStates@R_dsgraph@@Udoug_lea_allocator@@@@V?$doug_lea_alloc@PAUTNode@?$FixedMAP@PAVR_constant_table@@UmapNormalStates@R_dsgraph@@Udoug_lea_allocator@@@@@@@std@@@std@@QAE@ABV?$doug_lea_alloc@PAUTNode@?$FixedMAP@PAVR_constant_table@@UmapNormalStates@R_dsgraph@@Udoug_lea_allocator@@@@@@@Z 10018df0 f i r2.obj
 0001:00017e10       ??0?$vector@PAUTNode@?$FixedMAP@PAVR_constant_table@@UmapNormalStates@R_dsgraph@@Udoug_lea_allocator@@@@V?$doug_lea_alloc@PAUTNode@?$FixedMAP@PAVR_constant_table@@UmapNormalStates@R_dsgraph@@Udoug_lea_allocator@@@@@@@std@@QAE@XZ 10018e10 f i r2.obj
 0001:00017e30       ??0?$xr_vector@PAUTNode@?$FixedMAP@PAVR_constant_table@@UmapNormalStates@R_dsgraph@@Udoug_lea_allocator@@@@V?$doug_lea_alloc@PAUTNode@?$FixedMAP@PAVR_constant_table@@UmapNormalStates@R_dsgraph@@Udoug_lea_allocator@@@@@@@@QAE@XZ 10018e30 f i r2.obj
 0001:00017e50       ?deallocate@?$doug_lea_alloc@PAUTNode@?$FixedMAP@PAVR_constant_table@@UmapNormalStates@R_dsgraph@@Udoug_lea_allocator@@@@@@QBEXPAPAUTNode@?$FixedMAP@PAVR_constant_table@@UmapNormalStates@R_dsgraph@@Udoug_lea_allocator@@@@I@Z 10018e50 f i r2.obj
 0001:00017e60       ?deallocate@?$_Wrap_alloc@V?$doug_lea_alloc@PAUTNode@?$FixedMAP@PAVR_constant_table@@UmapNormalStates@R_dsgraph@@Udoug_lea_allocator@@@@@@@std@@QAEXPAPAUTNode@?$FixedMAP@PAVR_constant_table@@UmapNormalStates@R_dsgraph@@Udoug_lea_allocator@@@@I@Z 10018e60 f i r2.obj
 0001:00017e70       ?_Tidy@?$vector@PAUTNode@?$FixedMAP@PAVR_constant_table@@UmapNormalStates@R_dsgraph@@Udoug_lea_allocator@@@@V?$doug_lea_alloc@PAUTNode@?$FixedMAP@PAVR_constant_table@@UmapNormalStates@R_dsgraph@@Udoug_lea_allocator@@@@@@@std@@IAEXXZ 10018e70 f i r2.obj
 0001:00017ea0       ??1?$vector@PAUTNode@?$FixedMAP@PAVR_constant_table@@UmapNormalStates@R_dsgraph@@Udoug_lea_allocator@@@@V?$doug_lea_alloc@PAUTNode@?$FixedMAP@PAVR_constant_table@@UmapNormalStates@R_dsgraph@@Udoug_lea_allocator@@@@@@@std@@QAE@XZ 10018ea0 f i r2.obj
 0001:00017ed0       ??1?$xr_vector@PAUTNode@?$FixedMAP@PAVR_constant_table@@UmapNormalStates@R_dsgraph@@Udoug_lea_allocator@@@@V?$doug_lea_alloc@PAUTNode@?$FixedMAP@PAVR_constant_table@@UmapNormalStates@R_dsgraph@@Udoug_lea_allocator@@@@@@@@QAE@XZ 10018ed0 f i r2.obj
 0001:00017f00       ??0?$_Vector_val@U?$_Simple_types@PAUTNode@?$FixedMAP@PAUIDirect3DStateBlock9@@UmapNormalTextures@R_dsgraph@@Udoug_lea_allocator@@@@@std@@@std@@QAE@XZ 10018f00 f i r2.obj
 0001:00017f20       ??0?$_Vector_alloc@$0A@U?$_Vec_base_types@PAUTNode@?$FixedMAP@PAUIDirect3DStateBlock9@@UmapNormalTextures@R_dsgraph@@Udoug_lea_allocator@@@@V?$doug_lea_alloc@PAUTNode@?$FixedMAP@PAUIDirect3DStateBlock9@@UmapNormalTextures@R_dsgraph@@Udoug_lea_allocator@@@@@@@std@@@std@@QAE@ABV?$doug_lea_alloc@PAUTNode@?$FixedMAP@PAUIDirect3DStateBlock9@@UmapNormalTextures@R_dsgraph@@Udoug_lea_allocator@@@@@@@Z 10018f20 f i r2.obj
 0001:00017f40       ??0?$vector@PAUTNode@?$FixedMAP@PAUIDirect3DStateBlock9@@UmapNormalTextures@R_dsgraph@@Udoug_lea_allocator@@@@V?$doug_lea_alloc@PAUTNode@?$FixedMAP@PAUIDirect3DStateBlock9@@UmapNormalTextures@R_dsgraph@@Udoug_lea_allocator@@@@@@@std@@QAE@XZ 10018f40 f i r2.obj
 0001:00017f60       ??0?$xr_vector@PAUTNode@?$FixedMAP@PAUIDirect3DStateBlock9@@UmapNormalTextures@R_dsgraph@@Udoug_lea_allocator@@@@V?$doug_lea_alloc@PAUTNode@?$FixedMAP@PAUIDirect3DStateBlock9@@UmapNormalTextures@R_dsgraph@@Udoug_lea_allocator@@@@@@@@QAE@XZ 10018f60 f i r2.obj
 0001:00017f80       ?deallocate@?$doug_lea_alloc@PAUTNode@?$FixedMAP@PAUIDirect3DStateBlock9@@UmapNormalTextures@R_dsgraph@@Udoug_lea_allocator@@@@@@QBEXPAPAUTNode@?$FixedMAP@PAUIDirect3DStateBlock9@@UmapNormalTextures@R_dsgraph@@Udoug_lea_allocator@@@@I@Z 10018f80 f i r2.obj
 0001:00017f90       ?deallocate@?$_Wrap_alloc@V?$doug_lea_alloc@PAUTNode@?$FixedMAP@PAUIDirect3DStateBlock9@@UmapNormalTextures@R_dsgraph@@Udoug_lea_allocator@@@@@@@std@@QAEXPAPAUTNode@?$FixedMAP@PAUIDirect3DStateBlock9@@UmapNormalTextures@R_dsgraph@@Udoug_lea_allocator@@@@I@Z 10018f90 f i r2.obj
 0001:00017fa0       ?_Tidy@?$vector@PAUTNode@?$FixedMAP@PAUIDirect3DStateBlock9@@UmapNormalTextures@R_dsgraph@@Udoug_lea_allocator@@@@V?$doug_lea_alloc@PAUTNode@?$FixedMAP@PAUIDirect3DStateBlock9@@UmapNormalTextures@R_dsgraph@@Udoug_lea_allocator@@@@@@@std@@IAEXXZ 10018fa0 f i r2.obj
 0001:00017fd0       ??1?$vector@PAUTNode@?$FixedMAP@PAUIDirect3DStateBlock9@@UmapNormalTextures@R_dsgraph@@Udoug_lea_allocator@@@@V?$doug_lea_alloc@PAUTNode@?$FixedMAP@PAUIDirect3DStateBlock9@@UmapNormalTextures@R_dsgraph@@Udoug_lea_allocator@@@@@@@std@@QAE@XZ 10018fd0 f i r2.obj
 0001:00018000       ??1?$xr_vector@PAUTNode@?$FixedMAP@PAUIDirect3DStateBlock9@@UmapNormalTextures@R_dsgraph@@Udoug_lea_allocator@@@@V?$doug_lea_alloc@PAUTNode@?$FixedMAP@PAUIDirect3DStateBlock9@@UmapNormalTextures@R_dsgraph@@Udoug_lea_allocator@@@@@@@@QAE@XZ 10019000 f i r2.obj
 0001:00018030       ??0?$_Vector_val@U?$_Simple_types@PAUTNode@?$FixedMAP@PAUSTextureList@@UmapNormalItems@R_dsgraph@@Udoug_lea_allocator@@@@@std@@@std@@QAE@XZ 10019030 f i r2.obj
 0001:00018050       ??0?$_Vector_alloc@$0A@U?$_Vec_base_types@PAUTNode@?$FixedMAP@PAUSTextureList@@UmapNormalItems@R_dsgraph@@Udoug_lea_allocator@@@@V?$doug_lea_alloc@PAUTNode@?$FixedMAP@PAUSTextureList@@UmapNormalItems@R_dsgraph@@Udoug_lea_allocator@@@@@@@std@@@std@@QAE@ABV?$doug_lea_alloc@PAUTNode@?$FixedMAP@PAUSTextureList@@UmapNormalItems@R_dsgraph@@Udoug_lea_allocator@@@@@@@Z 10019050 f i r2.obj
 0001:00018070       ??0?$vector@PAUTNode@?$FixedMAP@PAUSTextureList@@UmapNormalItems@R_dsgraph@@Udoug_lea_allocator@@@@V?$doug_lea_alloc@PAUTNode@?$FixedMAP@PAUSTextureList@@UmapNormalItems@R_dsgraph@@Udoug_lea_allocator@@@@@@@std@@QAE@XZ 10019070 f i r2.obj
 0001:00018090       ??0?$xr_vector@PAUTNode@?$FixedMAP@PAUSTextureList@@UmapNormalItems@R_dsgraph@@Udoug_lea_allocator@@@@V?$doug_lea_alloc@PAUTNode@?$FixedMAP@PAUSTextureList@@UmapNormalItems@R_dsgraph@@Udoug_lea_allocator@@@@@@@@QAE@XZ 10019090 f i r2.obj
 0001:000180b0       ?deallocate@?$doug_lea_alloc@PAUTNode@?$FixedMAP@PAUSTextureList@@UmapNormalItems@R_dsgraph@@Udoug_lea_allocator@@@@@@QBEXPAPAUTNode@?$FixedMAP@PAUSTextureList@@UmapNormalItems@R_dsgraph@@Udoug_lea_allocator@@@@I@Z 100190b0 f i r2.obj
 0001:000180c0       ?deallocate@?$_Wrap_alloc@V?$doug_lea_alloc@PAUTNode@?$FixedMAP@PAUSTextureList@@UmapNormalItems@R_dsgraph@@Udoug_lea_allocator@@@@@@@std@@QAEXPAPAUTNode@?$FixedMAP@PAUSTextureList@@UmapNormalItems@R_dsgraph@@Udoug_lea_allocator@@@@I@Z 100190c0 f i r2.obj
 0001:000180d0       ?_Tidy@?$vector@PAUTNode@?$FixedMAP@PAUSTextureList@@UmapNormalItems@R_dsgraph@@Udoug_lea_allocator@@@@V?$doug_lea_alloc@PAUTNode@?$FixedMAP@PAUSTextureList@@UmapNormalItems@R_dsgraph@@Udoug_lea_allocator@@@@@@@std@@IAEXXZ 100190d0 f i r2.obj
 0001:00018100       ??1?$vector@PAUTNode@?$FixedMAP@PAUSTextureList@@UmapNormalItems@R_dsgraph@@Udoug_lea_allocator@@@@V?$doug_lea_alloc@PAUTNode@?$FixedMAP@PAUSTextureList@@UmapNormalItems@R_dsgraph@@Udoug_lea_allocator@@@@@@@std@@QAE@XZ 10019100 f i r2.obj
 0001:00018130       ??1?$xr_vector@PAUTNode@?$FixedMAP@PAUSTextureList@@UmapNormalItems@R_dsgraph@@Udoug_lea_allocator@@@@V?$doug_lea_alloc@PAUTNode@?$FixedMAP@PAUSTextureList@@UmapNormalItems@R_dsgraph@@Udoug_lea_allocator@@@@@@@@QAE@XZ 10019130 f i r2.obj
 0001:00018160       ??0?$_Vector_val@U?$_Simple_types@PAUTNode@?$FixedMAP@PAUIDirect3DVertexShader9@@UmapMatrixPS@R_dsgraph@@Udoug_lea_allocator@@@@@std@@@std@@QAE@XZ 10019160 f i r2.obj
 0001:00018180       ??0?$_Vector_alloc@$0A@U?$_Vec_base_types@PAUTNode@?$FixedMAP@PAUIDirect3DVertexShader9@@UmapMatrixPS@R_dsgraph@@Udoug_lea_allocator@@@@V?$doug_lea_alloc@PAUTNode@?$FixedMAP@PAUIDirect3DVertexShader9@@UmapMatrixPS@R_dsgraph@@Udoug_lea_allocator@@@@@@@std@@@std@@QAE@ABV?$doug_lea_alloc@PAUTNode@?$FixedMAP@PAUIDirect3DVertexShader9@@UmapMatrixPS@R_dsgraph@@Udoug_lea_allocator@@@@@@@Z 10019180 f i r2.obj
 0001:000181a0       ??0?$vector@PAUTNode@?$FixedMAP@PAUIDirect3DVertexShader9@@UmapMatrixPS@R_dsgraph@@Udoug_lea_allocator@@@@V?$doug_lea_alloc@PAUTNode@?$FixedMAP@PAUIDirect3DVertexShader9@@UmapMatrixPS@R_dsgraph@@Udoug_lea_allocator@@@@@@@std@@QAE@XZ 100191a0 f i r2.obj
 0001:000181c0       ??0?$xr_vector@PAUTNode@?$FixedMAP@PAUIDirect3DVertexShader9@@UmapMatrixPS@R_dsgraph@@Udoug_lea_allocator@@@@V?$doug_lea_alloc@PAUTNode@?$FixedMAP@PAUIDirect3DVertexShader9@@UmapMatrixPS@R_dsgraph@@Udoug_lea_allocator@@@@@@@@QAE@XZ 100191c0 f i r2.obj
 0001:000181e0       ?deallocate@?$doug_lea_alloc@PAUTNode@?$FixedMAP@PAUIDirect3DVertexShader9@@UmapMatrixPS@R_dsgraph@@Udoug_lea_allocator@@@@@@QBEXPAPAUTNode@?$FixedMAP@PAUIDirect3DVertexShader9@@UmapMatrixPS@R_dsgraph@@Udoug_lea_allocator@@@@I@Z 100191e0 f i r2.obj
 0001:000181f0       ?deallocate@?$_Wrap_alloc@V?$doug_lea_alloc@PAUTNode@?$FixedMAP@PAUIDirect3DVertexShader9@@UmapMatrixPS@R_dsgraph@@Udoug_lea_allocator@@@@@@@std@@QAEXPAPAUTNode@?$FixedMAP@PAUIDirect3DVertexShader9@@UmapMatrixPS@R_dsgraph@@Udoug_lea_allocator@@@@I@Z 100191f0 f i r2.obj
 0001:00018200       ?_Tidy@?$vector@PAUTNode@?$FixedMAP@PAUIDirect3DVertexShader9@@UmapMatrixPS@R_dsgraph@@Udoug_lea_allocator@@@@V?$doug_lea_alloc@PAUTNode@?$FixedMAP@PAUIDirect3DVertexShader9@@UmapMatrixPS@R_dsgraph@@Udoug_lea_allocator@@@@@@@std@@IAEXXZ 10019200 f i r2.obj
 0001:00018230       ??1?$vector@PAUTNode@?$FixedMAP@PAUIDirect3DVertexShader9@@UmapMatrixPS@R_dsgraph@@Udoug_lea_allocator@@@@V?$doug_lea_alloc@PAUTNode@?$FixedMAP@PAUIDirect3DVertexShader9@@UmapMatrixPS@R_dsgraph@@Udoug_lea_allocator@@@@@@@std@@QAE@XZ 10019230 f i r2.obj
 0001:00018260       ??1?$xr_vector@PAUTNode@?$FixedMAP@PAUIDirect3DVertexShader9@@UmapMatrixPS@R_dsgraph@@Udoug_lea_allocator@@@@V?$doug_lea_alloc@PAUTNode@?$FixedMAP@PAUIDirect3DVertexShader9@@UmapMatrixPS@R_dsgraph@@Udoug_lea_allocator@@@@@@@@QAE@XZ 10019260 f i r2.obj
 0001:00018290       ??0?$_Vector_val@U?$_Simple_types@PAUTNode@?$FixedMAP@PAUIDirect3DPixelShader9@@UmapMatrixCS@R_dsgraph@@Udoug_lea_allocator@@@@@std@@@std@@QAE@XZ 10019290 f i r2.obj
 0001:000182b0       ??0?$_Vector_alloc@$0A@U?$_Vec_base_types@PAUTNode@?$FixedMAP@PAUIDirect3DPixelShader9@@UmapMatrixCS@R_dsgraph@@Udoug_lea_allocator@@@@V?$doug_lea_alloc@PAUTNode@?$FixedMAP@PAUIDirect3DPixelShader9@@UmapMatrixCS@R_dsgraph@@Udoug_lea_allocator@@@@@@@std@@@std@@QAE@ABV?$doug_lea_alloc@PAUTNode@?$FixedMAP@PAUIDirect3DPixelShader9@@UmapMatrixCS@R_dsgraph@@Udoug_lea_allocator@@@@@@@Z 100192b0 f i r2.obj
 0001:000182d0       ??0?$vector@PAUTNode@?$FixedMAP@PAUIDirect3DPixelShader9@@UmapMatrixCS@R_dsgraph@@Udoug_lea_allocator@@@@V?$doug_lea_alloc@PAUTNode@?$FixedMAP@PAUIDirect3DPixelShader9@@UmapMatrixCS@R_dsgraph@@Udoug_lea_allocator@@@@@@@std@@QAE@XZ 100192d0 f i r2.obj
 0001:000182f0       ??0?$xr_vector@PAUTNode@?$FixedMAP@PAUIDirect3DPixelShader9@@UmapMatrixCS@R_dsgraph@@Udoug_lea_allocator@@@@V?$doug_lea_alloc@PAUTNode@?$FixedMAP@PAUIDirect3DPixelShader9@@UmapMatrixCS@R_dsgraph@@Udoug_lea_allocator@@@@@@@@QAE@XZ 100192f0 f i r2.obj
 0001:00018310       ?deallocate@?$doug_lea_alloc@PAUTNode@?$FixedMAP@PAUIDirect3DPixelShader9@@UmapMatrixCS@R_dsgraph@@Udoug_lea_allocator@@@@@@QBEXPAPAUTNode@?$FixedMAP@PAUIDirect3DPixelShader9@@UmapMatrixCS@R_dsgraph@@Udoug_lea_allocator@@@@I@Z 10019310 f i r2.obj
 0001:00018320       ?deallocate@?$_Wrap_alloc@V?$doug_lea_alloc@PAUTNode@?$FixedMAP@PAUIDirect3DPixelShader9@@UmapMatrixCS@R_dsgraph@@Udoug_lea_allocator@@@@@@@std@@QAEXPAPAUTNode@?$FixedMAP@PAUIDirect3DPixelShader9@@UmapMatrixCS@R_dsgraph@@Udoug_lea_allocator@@@@I@Z 10019320 f i r2.obj
 0001:00018330       ?_Tidy@?$vector@PAUTNode@?$FixedMAP@PAUIDirect3DPixelShader9@@UmapMatrixCS@R_dsgraph@@Udoug_lea_allocator@@@@V?$doug_lea_alloc@PAUTNode@?$FixedMAP@PAUIDirect3DPixelShader9@@UmapMatrixCS@R_dsgraph@@Udoug_lea_allocator@@@@@@@std@@IAEXXZ 10019330 f i r2.obj
 0001:00018360       ??1?$vector@PAUTNode@?$FixedMAP@PAUIDirect3DPixelShader9@@UmapMatrixCS@R_dsgraph@@Udoug_lea_allocator@@@@V?$doug_lea_alloc@PAUTNode@?$FixedMAP@PAUIDirect3DPixelShader9@@UmapMatrixCS@R_dsgraph@@Udoug_lea_allocator@@@@@@@std@@QAE@XZ 10019360 f i r2.obj
 0001:00018390       ??1?$xr_vector@PAUTNode@?$FixedMAP@PAUIDirect3DPixelShader9@@UmapMatrixCS@R_dsgraph@@Udoug_lea_allocator@@@@V?$doug_lea_alloc@PAUTNode@?$FixedMAP@PAUIDirect3DPixelShader9@@UmapMatrixCS@R_dsgraph@@Udoug_lea_allocator@@@@@@@@QAE@XZ 10019390 f i r2.obj
 0001:000183c0       ??0?$_Vector_val@U?$_Simple_types@PAUTNode@?$FixedMAP@PAVR_constant_table@@UmapMatrixStates@R_dsgraph@@Udoug_lea_allocator@@@@@std@@@std@@QAE@XZ 100193c0 f i r2.obj
 0001:000183e0       ??0?$_Vector_alloc@$0A@U?$_Vec_base_types@PAUTNode@?$FixedMAP@PAVR_constant_table@@UmapMatrixStates@R_dsgraph@@Udoug_lea_allocator@@@@V?$doug_lea_alloc@PAUTNode@?$FixedMAP@PAVR_constant_table@@UmapMatrixStates@R_dsgraph@@Udoug_lea_allocator@@@@@@@std@@@std@@QAE@ABV?$doug_lea_alloc@PAUTNode@?$FixedMAP@PAVR_constant_table@@UmapMatrixStates@R_dsgraph@@Udoug_lea_allocator@@@@@@@Z 100193e0 f i r2.obj
 0001:00018400       ??0?$vector@PAUTNode@?$FixedMAP@PAVR_constant_table@@UmapMatrixStates@R_dsgraph@@Udoug_lea_allocator@@@@V?$doug_lea_alloc@PAUTNode@?$FixedMAP@PAVR_constant_table@@UmapMatrixStates@R_dsgraph@@Udoug_lea_allocator@@@@@@@std@@QAE@XZ 10019400 f i r2.obj
 0001:00018420       ??0?$xr_vector@PAUTNode@?$FixedMAP@PAVR_constant_table@@UmapMatrixStates@R_dsgraph@@Udoug_lea_allocator@@@@V?$doug_lea_alloc@PAUTNode@?$FixedMAP@PAVR_constant_table@@UmapMatrixStates@R_dsgraph@@Udoug_lea_allocator@@@@@@@@QAE@XZ 10019420 f i r2.obj
 0001:00018440       ?deallocate@?$doug_lea_alloc@PAUTNode@?$FixedMAP@PAVR_constant_table@@UmapMatrixStates@R_dsgraph@@Udoug_lea_allocator@@@@@@QBEXPAPAUTNode@?$FixedMAP@PAVR_constant_table@@UmapMatrixStates@R_dsgraph@@Udoug_lea_allocator@@@@I@Z 10019440 f i r2.obj
 0001:00018450       ?deallocate@?$_Wrap_alloc@V?$doug_lea_alloc@PAUTNode@?$FixedMAP@PAVR_constant_table@@UmapMatrixStates@R_dsgraph@@Udoug_lea_allocator@@@@@@@std@@QAEXPAPAUTNode@?$FixedMAP@PAVR_constant_table@@UmapMatrixStates@R_dsgraph@@Udoug_lea_allocator@@@@I@Z 10019450 f i r2.obj
 0001:00018460       ?_Tidy@?$vector@PAUTNode@?$FixedMAP@PAVR_constant_table@@UmapMatrixStates@R_dsgraph@@Udoug_lea_allocator@@@@V?$doug_lea_alloc@PAUTNode@?$FixedMAP@PAVR_constant_table@@UmapMatrixStates@R_dsgraph@@Udoug_lea_allocator@@@@@@@std@@IAEXXZ 10019460 f i r2.obj
 0001:00018490       ??1?$vector@PAUTNode@?$FixedMAP@PAVR_constant_table@@UmapMatrixStates@R_dsgraph@@Udoug_lea_allocator@@@@V?$doug_lea_alloc@PAUTNode@?$FixedMAP@PAVR_constant_table@@UmapMatrixStates@R_dsgraph@@Udoug_lea_allocator@@@@@@@std@@QAE@XZ 10019490 f i r2.obj
 0001:000184c0       ??1?$xr_vector@PAUTNode@?$FixedMAP@PAVR_constant_table@@UmapMatrixStates@R_dsgraph@@Udoug_lea_allocator@@@@V?$doug_lea_alloc@PAUTNode@?$FixedMAP@PAVR_constant_table@@UmapMatrixStates@R_dsgraph@@Udoug_lea_allocator@@@@@@@@QAE@XZ 100194c0 f i r2.obj
 0001:000184f0       ??0?$_Vector_val@U?$_Simple_types@PAUTNode@?$FixedMAP@PAUIDirect3DStateBlock9@@UmapMatrixTextures@R_dsgraph@@Udoug_lea_allocator@@@@@std@@@std@@QAE@XZ 100194f0 f i r2.obj
 0001:00018510       ??0?$_Vector_alloc@$0A@U?$_Vec_base_types@PAUTNode@?$FixedMAP@PAUIDirect3DStateBlock9@@UmapMatrixTextures@R_dsgraph@@Udoug_lea_allocator@@@@V?$doug_lea_alloc@PAUTNode@?$FixedMAP@PAUIDirect3DStateBlock9@@UmapMatrixTextures@R_dsgraph@@Udoug_lea_allocator@@@@@@@std@@@std@@QAE@ABV?$doug_lea_alloc@PAUTNode@?$FixedMAP@PAUIDirect3DStateBlock9@@UmapMatrixTextures@R_dsgraph@@Udoug_lea_allocator@@@@@@@Z 10019510 f i r2.obj
 0001:00018530       ??0?$vector@PAUTNode@?$FixedMAP@PAUIDirect3DStateBlock9@@UmapMatrixTextures@R_dsgraph@@Udoug_lea_allocator@@@@V?$doug_lea_alloc@PAUTNode@?$FixedMAP@PAUIDirect3DStateBlock9@@UmapMatrixTextures@R_dsgraph@@Udoug_lea_allocator@@@@@@@std@@QAE@XZ 10019530 f i r2.obj
 0001:00018550       ??0?$xr_vector@PAUTNode@?$FixedMAP@PAUIDirect3DStateBlock9@@UmapMatrixTextures@R_dsgraph@@Udoug_lea_allocator@@@@V?$doug_lea_alloc@PAUTNode@?$FixedMAP@PAUIDirect3DStateBlock9@@UmapMatrixTextures@R_dsgraph@@Udoug_lea_allocator@@@@@@@@QAE@XZ 10019550 f i r2.obj
 0001:00018570       ?deallocate@?$doug_lea_alloc@PAUTNode@?$FixedMAP@PAUIDirect3DStateBlock9@@UmapMatrixTextures@R_dsgraph@@Udoug_lea_allocator@@@@@@QBEXPAPAUTNode@?$FixedMAP@PAUIDirect3DStateBlock9@@UmapMatrixTextures@R_dsgraph@@Udoug_lea_allocator@@@@I@Z 10019570 f i r2.obj
 0001:00018580       ?deallocate@?$_Wrap_alloc@V?$doug_lea_alloc@PAUTNode@?$FixedMAP@PAUIDirect3DStateBlock9@@UmapMatrixTextures@R_dsgraph@@Udoug_lea_allocator@@@@@@@std@@QAEXPAPAUTNode@?$FixedMAP@PAUIDirect3DStateBlock9@@UmapMatrixTextures@R_dsgraph@@Udoug_lea_allocator@@@@I@Z 10019580 f i r2.obj
 0001:00018590       ?_Tidy@?$vector@PAUTNode@?$FixedMAP@PAUIDirect3DStateBlock9@@UmapMatrixTextures@R_dsgraph@@Udoug_lea_allocator@@@@V?$doug_lea_alloc@PAUTNode@?$FixedMAP@PAUIDirect3DStateBlock9@@UmapMatrixTextures@R_dsgraph@@Udoug_lea_allocator@@@@@@@std@@IAEXXZ 10019590 f i r2.obj
 0001:000185c0       ??1?$vector@PAUTNode@?$FixedMAP@PAUIDirect3DStateBlock9@@UmapMatrixTextures@R_dsgraph@@Udoug_lea_allocator@@@@V?$doug_lea_alloc@PAUTNode@?$FixedMAP@PAUIDirect3DStateBlock9@@UmapMatrixTextures@R_dsgraph@@Udoug_lea_allocator@@@@@@@std@@QAE@XZ 100195c0 f i r2.obj
 0001:000185f0       ??1?$xr_vector@PAUTNode@?$FixedMAP@PAUIDirect3DStateBlock9@@UmapMatrixTextures@R_dsgraph@@Udoug_lea_allocator@@@@V?$doug_lea_alloc@PAUTNode@?$FixedMAP@PAUIDirect3DStateBlock9@@UmapMatrixTextures@R_dsgraph@@Udoug_lea_allocator@@@@@@@@QAE@XZ 100195f0 f i r2.obj
 0001:00018620       ??0?$_Vector_val@U?$_Simple_types@PAUTNode@?$FixedMAP@PAUSTextureList@@UmapMatrixItems@R_dsgraph@@Udoug_lea_allocator@@@@@std@@@std@@QAE@XZ 10019620 f i r2.obj
 0001:00018640       ??0?$_Vector_alloc@$0A@U?$_Vec_base_types@PAUTNode@?$FixedMAP@PAUSTextureList@@UmapMatrixItems@R_dsgraph@@Udoug_lea_allocator@@@@V?$doug_lea_alloc@PAUTNode@?$FixedMAP@PAUSTextureList@@UmapMatrixItems@R_dsgraph@@Udoug_lea_allocator@@@@@@@std@@@std@@QAE@ABV?$doug_lea_alloc@PAUTNode@?$FixedMAP@PAUSTextureList@@UmapMatrixItems@R_dsgraph@@Udoug_lea_allocator@@@@@@@Z 10019640 f i r2.obj
 0001:00018660       ??0?$vector@PAUTNode@?$FixedMAP@PAUSTextureList@@UmapMatrixItems@R_dsgraph@@Udoug_lea_allocator@@@@V?$doug_lea_alloc@PAUTNode@?$FixedMAP@PAUSTextureList@@UmapMatrixItems@R_dsgraph@@Udoug_lea_allocator@@@@@@@std@@QAE@XZ 10019660 f i r2.obj
 0001:00018680       ??0?$xr_vector@PAUTNode@?$FixedMAP@PAUSTextureList@@UmapMatrixItems@R_dsgraph@@Udoug_lea_allocator@@@@V?$doug_lea_alloc@PAUTNode@?$FixedMAP@PAUSTextureList@@UmapMatrixItems@R_dsgraph@@Udoug_lea_allocator@@@@@@@@QAE@XZ 10019680 f i r2.obj
 0001:000186a0       ?deallocate@?$doug_lea_alloc@PAUTNode@?$FixedMAP@PAUSTextureList@@UmapMatrixItems@R_dsgraph@@Udoug_lea_allocator@@@@@@QBEXPAPAUTNode@?$FixedMAP@PAUSTextureList@@UmapMatrixItems@R_dsgraph@@Udoug_lea_allocator@@@@I@Z 100196a0 f i r2.obj
 0001:000186b0       ?deallocate@?$_Wrap_alloc@V?$doug_lea_alloc@PAUTNode@?$FixedMAP@PAUSTextureList@@UmapMatrixItems@R_dsgraph@@Udoug_lea_allocator@@@@@@@std@@QAEXPAPAUTNode@?$FixedMAP@PAUSTextureList@@UmapMatrixItems@R_dsgraph@@Udoug_lea_allocator@@@@I@Z 100196b0 f i r2.obj
 0001:000186c0       ?_Tidy@?$vector@PAUTNode@?$FixedMAP@PAUSTextureList@@UmapMatrixItems@R_dsgraph@@Udoug_lea_allocator@@@@V?$doug_lea_alloc@PAUTNode@?$FixedMAP@PAUSTextureList@@UmapMatrixItems@R_dsgraph@@Udoug_lea_allocator@@@@@@@std@@IAEXXZ 100196c0 f i r2.obj
 0001:000186f0       ??1?$vector@PAUTNode@?$FixedMAP@PAUSTextureList@@UmapMatrixItems@R_dsgraph@@Udoug_lea_allocator@@@@V?$doug_lea_alloc@PAUTNode@?$FixedMAP@PAUSTextureList@@UmapMatrixItems@R_dsgraph@@Udoug_lea_allocator@@@@@@@std@@QAE@XZ 100196f0 f i r2.obj
 0001:00018720       ??1?$xr_vector@PAUTNode@?$FixedMAP@PAUSTextureList@@UmapMatrixItems@R_dsgraph@@Udoug_lea_allocator@@@@V?$doug_lea_alloc@PAUTNode@?$FixedMAP@PAUSTextureList@@UmapMatrixItems@R_dsgraph@@Udoug_lea_allocator@@@@@@@@QAE@XZ 10019720 f i r2.obj
 0001:00018750       ??0?$_Vector_val@U?$_Simple_types@U_LodItem@R_dsgraph@@@std@@@std@@QAE@XZ 10019750 f i r2.obj
 0001:00018770       ??0?$_Vector_alloc@$0A@U?$_Vec_base_types@U_LodItem@R_dsgraph@@V?$doug_lea_alloc@U_LodItem@R_dsgraph@@@@@std@@@std@@QAE@ABV?$doug_lea_alloc@U_LodItem@R_dsgraph@@@@@Z 10019770 f i r2.obj
 0001:00018790       ??0?$vector@U_LodItem@R_dsgraph@@V?$doug_lea_alloc@U_LodItem@R_dsgraph@@@@@std@@QAE@XZ 10019790 f i r2.obj
 0001:000187b0       ??0?$xr_vector@U_LodItem@R_dsgraph@@V?$doug_lea_alloc@U_LodItem@R_dsgraph@@@@@@QAE@XZ 100197b0 f i r2.obj
 0001:000187d0       ?deallocate@?$doug_lea_alloc@U_LodItem@R_dsgraph@@@@QBEXPAU_LodItem@R_dsgraph@@I@Z 100197d0 f i r2.obj
 0001:000187e0       ?deallocate@?$_Wrap_alloc@V?$doug_lea_alloc@U_LodItem@R_dsgraph@@@@@std@@QAEXPAU_LodItem@R_dsgraph@@I@Z 100197e0 f i r2.obj
 0001:000187f0       ?_Tidy@?$vector@U_LodItem@R_dsgraph@@V?$doug_lea_alloc@U_LodItem@R_dsgraph@@@@@std@@IAEXXZ 100197f0 f i r2.obj
 0001:00018820       ??1?$vector@U_LodItem@R_dsgraph@@V?$doug_lea_alloc@U_LodItem@R_dsgraph@@@@@std@@QAE@XZ 10019820 f i r2.obj
 0001:00018850       ??1?$xr_vector@U_LodItem@R_dsgraph@@V?$doug_lea_alloc@U_LodItem@R_dsgraph@@@@@@QAE@XZ 10019850 f i r2.obj
 0001:00018880       ??0?$_Vector_val@U?$_Simple_types@H@std@@@std@@QAE@XZ 10019880 f i r2.obj
 0001:000188a0       ??0?$_Vector_alloc@$0A@U?$_Vec_base_types@HV?$doug_lea_alloc@H@@@std@@@std@@QAE@ABV?$doug_lea_alloc@H@@@Z 100198a0 f i r2.obj
 0001:000188c0       ??0?$vector@HV?$doug_lea_alloc@H@@@std@@QAE@XZ 100198c0 f i r2.obj
 0001:000188e0       ??0?$xr_vector@HV?$doug_lea_alloc@H@@@@QAE@XZ 100198e0 f i r2.obj
 0001:00018900       ?deallocate@?$doug_lea_alloc@H@@QBEXPAHI@Z 10019900 f i r2.obj
 0001:00018910       ?deallocate@?$_Wrap_alloc@V?$doug_lea_alloc@H@@@std@@QAEXPAHI@Z 10019910 f i r2.obj
 0001:00018920       ?_Tidy@?$vector@HV?$doug_lea_alloc@H@@@std@@IAEXXZ 10019920 f i r2.obj
 0001:00018950       ??1?$vector@HV?$doug_lea_alloc@H@@@std@@QAE@XZ 10019950 f i r2.obj
 0001:00018980       ??1?$xr_vector@HV?$doug_lea_alloc@H@@@@QAE@XZ 10019980 f i r2.obj
 0001:000189b0       ??0?$_Vector_val@U?$_Simple_types@PAVISpatial@@@std@@@std@@QAE@XZ 100199b0 f i r2.obj
 0001:000189d0       ??0?$_Vector_alloc@$0A@U?$_Vec_base_types@PAVISpatial@@V?$xalloc@PAVISpatial@@@@@std@@@std@@QAE@ABV?$xalloc@PAVISpatial@@@@@Z 100199d0 f i r2.obj
 0001:000189f0       ??0?$vector@PAVISpatial@@V?$xalloc@PAVISpatial@@@@@std@@QAE@XZ 100199f0 f i r2.obj
 0001:00018a10       ??0?$xr_vector@PAVISpatial@@V?$xalloc@PAVISpatial@@@@@@QAE@XZ 10019a10 f i r2.obj
 0001:00018a30       ??$xr_free@PAVISpatial@@@@YAXAAPAPAVISpatial@@@Z 10019a30 f i r2.obj
 0001:00018a50       ?deallocate@?$xalloc@PAVISpatial@@@@QBEXPAPAVISpatial@@I@Z 10019a50 f i r2.obj
 0001:00018a70       ?deallocate@?$_Wrap_alloc@V?$xalloc@PAVISpatial@@@@@std@@QAEXPAPAVISpatial@@I@Z 10019a70 f i r2.obj
 0001:00018a90       ?_Tidy@?$vector@PAVISpatial@@V?$xalloc@PAVISpatial@@@@@std@@IAEXXZ 10019a90 f i r2.obj
 0001:00018ac0       ??1?$vector@PAVISpatial@@V?$xalloc@PAVISpatial@@@@@std@@QAE@XZ 10019ac0 f i r2.obj
 0001:00018af0       ??1?$xr_vector@PAVISpatial@@V?$xalloc@PAVISpatial@@@@@@QAE@XZ 10019af0 f i r2.obj
 0001:00018b20       ??0?$_Vector_val@U?$_Simple_types@PAVIRender_Visual@@@std@@@std@@QAE@XZ 10019b20 f i r2.obj
 0001:00018b40       ??0?$_Vector_alloc@$0A@U?$_Vec_base_types@PAVIRender_Visual@@V?$doug_lea_alloc@PAVIRender_Visual@@@@@std@@@std@@QAE@ABV?$doug_lea_alloc@PAVIRender_Visual@@@@@Z 10019b40 f i r2.obj
 0001:00018b60       ??0?$vector@PAVIRender_Visual@@V?$doug_lea_alloc@PAVIRender_Visual@@@@@std@@QAE@XZ 10019b60 f i r2.obj
 0001:00018b80       ??0?$xr_vector@PAVIRender_Visual@@V?$doug_lea_alloc@PAVIRender_Visual@@@@@@QAE@XZ 10019b80 f i r2.obj
 0001:00018ba0       ?deallocate@?$doug_lea_alloc@PAVIRender_Visual@@@@QBEXPAPAVIRender_Visual@@I@Z 10019ba0 f i r2.obj
 0001:00018bb0       ?deallocate@?$_Wrap_alloc@V?$doug_lea_alloc@PAVIRender_Visual@@@@@std@@QAEXPAPAVIRender_Visual@@I@Z 10019bb0 f i r2.obj
 0001:00018bc0       ?_Tidy@?$vector@PAVIRender_Visual@@V?$doug_lea_alloc@PAVIRender_Visual@@@@@std@@IAEXXZ 10019bc0 f i r2.obj
 0001:00018bf0       ??1?$vector@PAVIRender_Visual@@V?$doug_lea_alloc@PAVIRender_Visual@@@@@std@@QAE@XZ 10019bf0 f i r2.obj
 0001:00018c20       ??1?$xr_vector@PAVIRender_Visual@@V?$doug_lea_alloc@PAVIRender_Visual@@@@@@QAE@XZ 10019c20 f i r2.obj
 0001:00018c50       ?r_pmask@R_dsgraph_structure@@QAEX_N00@Z 10019c50 f i r2.obj
 0001:00018c80       ??0R_dsgraph_structure@@QAE@XZ 10019c80 f i r2.obj
 0001:00018f70       ?occlude@CHOM@@QAEXAAV?$_box2@M@@@Z 10019f70 f i r2.obj
 0001:00018f80       ??D?$resptr_core@UShader@@Uresptrcode_shader@@@@QBEAAUShader@@XZ 10019f80 f i r2.obj
 0001:00018f90       ?begin@?$svector@U_D3DVERTEXELEMENT9@@$0EB@@@QAEPAU_D3DVERTEXELEMENT9@@XZ 10019f90 f i r2.obj
 0001:00018fa0       _powf                      10019fa0 f i r2.obj
 0001:00018fb0       ?u_diffuse2s@@YAMMMM@Z     10019fb0 f i r2.obj
 0001:00018fd0       ??0?$_Vector_const_iterator@V?$_Vector_val@U?$_Simple_types@V?$FastDelegate0@X@fastdelegate@@@std@@@std@@@std@@QAE@PAV?$FastDelegate0@X@fastdelegate@@PBU_Container_base0@1@@Z 10019fd0 f i r2.obj
 0001:00018fe0       ??0?$_Vector_iterator@V?$_Vector_val@U?$_Simple_types@V?$FastDelegate0@X@fastdelegate@@@std@@@std@@@std@@QAE@PAV?$FastDelegate0@X@fastdelegate@@PBU_Container_base0@1@@Z 10019fe0 f i r2.obj
 0001:00018ff0       ?begin@?$vector@V?$FastDelegate0@X@fastdelegate@@V?$xalloc@V?$FastDelegate0@X@fastdelegate@@@@@std@@QAE?AV?$_Vector_iterator@V?$_Vector_val@U?$_Simple_types@V?$FastDelegate0@X@fastdelegate@@@std@@@std@@@2@XZ 10019ff0 f i r2.obj
 0001:00019000       ??0?$doug_lea_alloc@PAUTNode@?$FixedMAP@PAUIDirect3DVertexShader9@@UmapNormalPS@R_dsgraph@@Udoug_lea_allocator@@@@@@QAE@XZ 1001a000 f i r2.obj
 0001:00019010       ??0?$_Wrap_alloc@V?$doug_lea_alloc@PAUTNode@?$FixedMAP@PAUIDirect3DVertexShader9@@UmapNormalPS@R_dsgraph@@Udoug_lea_allocator@@@@@@@std@@QAE@XZ 1001a010 f i r2.obj
 0001:00019020       ?_Getal@?$_Vector_alloc@$0A@U?$_Vec_base_types@PAUTNode@?$FixedMAP@PAUIDirect3DVertexShader9@@UmapNormalPS@R_dsgraph@@Udoug_lea_allocator@@@@V?$doug_lea_alloc@PAUTNode@?$FixedMAP@PAUIDirect3DVertexShader9@@UmapNormalPS@R_dsgraph@@Udoug_lea_allocator@@@@@@@std@@@std@@QBE?AU?$_Wrap_alloc@V?$doug_lea_alloc@PAUTNode@?$FixedMAP@PAUIDirect3DVertexShader9@@UmapNormalPS@R_dsgraph@@Udoug_lea_allocator@@@@@@@2@XZ 1001a020 f i r2.obj
 0001:00019030       ??$_Destroy_range@U?$_Wrap_alloc@V?$doug_lea_alloc@PAUTNode@?$FixedMAP@PAUIDirect3DVertexShader9@@UmapNormalPS@R_dsgraph@@Udoug_lea_allocator@@@@@@@std@@@std@@YAXPAPAUTNode@?$FixedMAP@PAUIDirect3DVertexShader9@@UmapNormalPS@R_dsgraph@@Udoug_lea_allocator@@@@0AAU?$_Wrap_alloc@V?$doug_lea_alloc@PAUTNode@?$FixedMAP@PAUIDirect3DVertexShader9@@UmapNormalPS@R_dsgraph@@Udoug_lea_allocator@@@@@@@0@U_Scalar_ptr_iterator_tag@0@@Z 1001a030 f i r2.obj
 0001:00019040       ??$_Ptr_cat@PAUTNode@?$FixedMAP@PAUIDirect3DVertexShader9@@UmapNormalPS@R_dsgraph@@Udoug_lea_allocator@@@@PAU12@@std@@YA?AU_Scalar_ptr_iterator_tag@0@PAPAUTNode@?$FixedMAP@PAUIDirect3DVertexShader9@@UmapNormalPS@R_dsgraph@@Udoug_lea_allocator@@@@0@Z 1001a040 f i r2.obj
 0001:00019050       ??$_Destroy_range@U?$_Wrap_alloc@V?$doug_lea_alloc@PAUTNode@?$FixedMAP@PAUIDirect3DVertexShader9@@UmapNormalPS@R_dsgraph@@Udoug_lea_allocator@@@@@@@std@@@std@@YAXPAPAUTNode@?$FixedMAP@PAUIDirect3DVertexShader9@@UmapNormalPS@R_dsgraph@@Udoug_lea_allocator@@@@0AAU?$_Wrap_alloc@V?$doug_lea_alloc@PAUTNode@?$FixedMAP@PAUIDirect3DVertexShader9@@UmapNormalPS@R_dsgraph@@Udoug_lea_allocator@@@@@@@0@@Z 1001a050 f i r2.obj
 0001:00019060       ?_Destroy@?$vector@PAUTNode@?$FixedMAP@PAUIDirect3DVertexShader9@@UmapNormalPS@R_dsgraph@@Udoug_lea_allocator@@@@V?$doug_lea_alloc@PAUTNode@?$FixedMAP@PAUIDirect3DVertexShader9@@UmapNormalPS@R_dsgraph@@Udoug_lea_allocator@@@@@@@std@@IAEXPAPAUTNode@?$FixedMAP@PAUIDirect3DVertexShader9@@UmapNormalPS@R_dsgraph@@Udoug_lea_allocator@@@@0@Z 1001a060 f i r2.obj
 0001:00019070       ?clear@?$vector@PAUTNode@?$FixedMAP@PAUIDirect3DVertexShader9@@UmapNormalPS@R_dsgraph@@Udoug_lea_allocator@@@@V?$doug_lea_alloc@PAUTNode@?$FixedMAP@PAUIDirect3DVertexShader9@@UmapNormalPS@R_dsgraph@@Udoug_lea_allocator@@@@@@@std@@QAEXXZ 1001a070 f i r2.obj
 0001:00019080       ?clear_and_free@?$xr_vector@PAUTNode@?$FixedMAP@PAUIDirect3DVertexShader9@@UmapNormalPS@R_dsgraph@@Udoug_lea_allocator@@@@V?$doug_lea_alloc@PAUTNode@?$FixedMAP@PAUIDirect3DVertexShader9@@UmapNormalPS@R_dsgraph@@Udoug_lea_allocator@@@@@@@@QAEXXZ 1001a080 f i r2.obj
 0001:00019090       ?clear@?$xr_vector@PAUTNode@?$FixedMAP@PAUIDirect3DVertexShader9@@UmapNormalPS@R_dsgraph@@Udoug_lea_allocator@@@@V?$doug_lea_alloc@PAUTNode@?$FixedMAP@PAUIDirect3DVertexShader9@@UmapNormalPS@R_dsgraph@@Udoug_lea_allocator@@@@@@@@QAEXXZ 1001a090 f i r2.obj
 0001:000190a0       ??0?$doug_lea_alloc@PAUTNode@?$FixedMAP@PAUIDirect3DPixelShader9@@UmapNormalCS@R_dsgraph@@Udoug_lea_allocator@@@@@@QAE@XZ 1001a0a0 f i r2.obj
 0001:000190b0       ??0?$_Wrap_alloc@V?$doug_lea_alloc@PAUTNode@?$FixedMAP@PAUIDirect3DPixelShader9@@UmapNormalCS@R_dsgraph@@Udoug_lea_allocator@@@@@@@std@@QAE@XZ 1001a0b0 f i r2.obj
 0001:000190c0       ?_Getal@?$_Vector_alloc@$0A@U?$_Vec_base_types@PAUTNode@?$FixedMAP@PAUIDirect3DPixelShader9@@UmapNormalCS@R_dsgraph@@Udoug_lea_allocator@@@@V?$doug_lea_alloc@PAUTNode@?$FixedMAP@PAUIDirect3DPixelShader9@@UmapNormalCS@R_dsgraph@@Udoug_lea_allocator@@@@@@@std@@@std@@QBE?AU?$_Wrap_alloc@V?$doug_lea_alloc@PAUTNode@?$FixedMAP@PAUIDirect3DPixelShader9@@UmapNormalCS@R_dsgraph@@Udoug_lea_allocator@@@@@@@2@XZ 1001a0c0 f i r2.obj
 0001:000190d0       ??$_Destroy_range@U?$_Wrap_alloc@V?$doug_lea_alloc@PAUTNode@?$FixedMAP@PAUIDirect3DPixelShader9@@UmapNormalCS@R_dsgraph@@Udoug_lea_allocator@@@@@@@std@@@std@@YAXPAPAUTNode@?$FixedMAP@PAUIDirect3DPixelShader9@@UmapNormalCS@R_dsgraph@@Udoug_lea_allocator@@@@0AAU?$_Wrap_alloc@V?$doug_lea_alloc@PAUTNode@?$FixedMAP@PAUIDirect3DPixelShader9@@UmapNormalCS@R_dsgraph@@Udoug_lea_allocator@@@@@@@0@U_Scalar_ptr_iterator_tag@0@@Z 1001a0d0 f i r2.obj
 0001:000190e0       ??$_Ptr_cat@PAUTNode@?$FixedMAP@PAUIDirect3DPixelShader9@@UmapNormalCS@R_dsgraph@@Udoug_lea_allocator@@@@PAU12@@std@@YA?AU_Scalar_ptr_iterator_tag@0@PAPAUTNode@?$FixedMAP@PAUIDirect3DPixelShader9@@UmapNormalCS@R_dsgraph@@Udoug_lea_allocator@@@@0@Z 1001a0e0 f i r2.obj
 0001:000190f0       ??$_Destroy_range@U?$_Wrap_alloc@V?$doug_lea_alloc@PAUTNode@?$FixedMAP@PAUIDirect3DPixelShader9@@UmapNormalCS@R_dsgraph@@Udoug_lea_allocator@@@@@@@std@@@std@@YAXPAPAUTNode@?$FixedMAP@PAUIDirect3DPixelShader9@@UmapNormalCS@R_dsgraph@@Udoug_lea_allocator@@@@0AAU?$_Wrap_alloc@V?$doug_lea_alloc@PAUTNode@?$FixedMAP@PAUIDirect3DPixelShader9@@UmapNormalCS@R_dsgraph@@Udoug_lea_allocator@@@@@@@0@@Z 1001a0f0 f i r2.obj
 0001:00019100       ?_Destroy@?$vector@PAUTNode@?$FixedMAP@PAUIDirect3DPixelShader9@@UmapNormalCS@R_dsgraph@@Udoug_lea_allocator@@@@V?$doug_lea_alloc@PAUTNode@?$FixedMAP@PAUIDirect3DPixelShader9@@UmapNormalCS@R_dsgraph@@Udoug_lea_allocator@@@@@@@std@@IAEXPAPAUTNode@?$FixedMAP@PAUIDirect3DPixelShader9@@UmapNormalCS@R_dsgraph@@Udoug_lea_allocator@@@@0@Z 1001a100 f i r2.obj
 0001:00019110       ?clear@?$vector@PAUTNode@?$FixedMAP@PAUIDirect3DPixelShader9@@UmapNormalCS@R_dsgraph@@Udoug_lea_allocator@@@@V?$doug_lea_alloc@PAUTNode@?$FixedMAP@PAUIDirect3DPixelShader9@@UmapNormalCS@R_dsgraph@@Udoug_lea_allocator@@@@@@@std@@QAEXXZ 1001a110 f i r2.obj
 0001:00019120       ?clear_and_free@?$xr_vector@PAUTNode@?$FixedMAP@PAUIDirect3DPixelShader9@@UmapNormalCS@R_dsgraph@@Udoug_lea_allocator@@@@V?$doug_lea_alloc@PAUTNode@?$FixedMAP@PAUIDirect3DPixelShader9@@UmapNormalCS@R_dsgraph@@Udoug_lea_allocator@@@@@@@@QAEXXZ 1001a120 f i r2.obj
 0001:00019130       ?clear@?$xr_vector@PAUTNode@?$FixedMAP@PAUIDirect3DPixelShader9@@UmapNormalCS@R_dsgraph@@Udoug_lea_allocator@@@@V?$doug_lea_alloc@PAUTNode@?$FixedMAP@PAUIDirect3DPixelShader9@@UmapNormalCS@R_dsgraph@@Udoug_lea_allocator@@@@@@@@QAEXXZ 1001a130 f i r2.obj
 0001:00019140       ??0?$doug_lea_alloc@PAUTNode@?$FixedMAP@PAVR_constant_table@@UmapNormalStates@R_dsgraph@@Udoug_lea_allocator@@@@@@QAE@XZ 1001a140 f i r2.obj
 0001:00019150       ??0?$_Wrap_alloc@V?$doug_lea_alloc@PAUTNode@?$FixedMAP@PAVR_constant_table@@UmapNormalStates@R_dsgraph@@Udoug_lea_allocator@@@@@@@std@@QAE@XZ 1001a150 f i r2.obj
 0001:00019160       ?_Getal@?$_Vector_alloc@$0A@U?$_Vec_base_types@PAUTNode@?$FixedMAP@PAVR_constant_table@@UmapNormalStates@R_dsgraph@@Udoug_lea_allocator@@@@V?$doug_lea_alloc@PAUTNode@?$FixedMAP@PAVR_constant_table@@UmapNormalStates@R_dsgraph@@Udoug_lea_allocator@@@@@@@std@@@std@@QBE?AU?$_Wrap_alloc@V?$doug_lea_alloc@PAUTNode@?$FixedMAP@PAVR_constant_table@@UmapNormalStates@R_dsgraph@@Udoug_lea_allocator@@@@@@@2@XZ 1001a160 f i r2.obj
 0001:00019170       ??$_Destroy_range@U?$_Wrap_alloc@V?$doug_lea_alloc@PAUTNode@?$FixedMAP@PAVR_constant_table@@UmapNormalStates@R_dsgraph@@Udoug_lea_allocator@@@@@@@std@@@std@@YAXPAPAUTNode@?$FixedMAP@PAVR_constant_table@@UmapNormalStates@R_dsgraph@@Udoug_lea_allocator@@@@0AAU?$_Wrap_alloc@V?$doug_lea_alloc@PAUTNode@?$FixedMAP@PAVR_constant_table@@UmapNormalStates@R_dsgraph@@Udoug_lea_allocator@@@@@@@0@U_Scalar_ptr_iterator_tag@0@@Z 1001a170 f i r2.obj
 0001:00019180       ??$_Ptr_cat@PAUTNode@?$FixedMAP@PAVR_constant_table@@UmapNormalStates@R_dsgraph@@Udoug_lea_allocator@@@@PAU12@@std@@YA?AU_Scalar_ptr_iterator_tag@0@PAPAUTNode@?$FixedMAP@PAVR_constant_table@@UmapNormalStates@R_dsgraph@@Udoug_lea_allocator@@@@0@Z 1001a180 f i r2.obj
 0001:00019190       ??$_Destroy_range@U?$_Wrap_alloc@V?$doug_lea_alloc@PAUTNode@?$FixedMAP@PAVR_constant_table@@UmapNormalStates@R_dsgraph@@Udoug_lea_allocator@@@@@@@std@@@std@@YAXPAPAUTNode@?$FixedMAP@PAVR_constant_table@@UmapNormalStates@R_dsgraph@@Udoug_lea_allocator@@@@0AAU?$_Wrap_alloc@V?$doug_lea_alloc@PAUTNode@?$FixedMAP@PAVR_constant_table@@UmapNormalStates@R_dsgraph@@Udoug_lea_allocator@@@@@@@0@@Z 1001a190 f i r2.obj
 0001:000191a0       ?_Destroy@?$vector@PAUTNode@?$FixedMAP@PAVR_constant_table@@UmapNormalStates@R_dsgraph@@Udoug_lea_allocator@@@@V?$doug_lea_alloc@PAUTNode@?$FixedMAP@PAVR_constant_table@@UmapNormalStates@R_dsgraph@@Udoug_lea_allocator@@@@@@@std@@IAEXPAPAUTNode@?$FixedMAP@PAVR_constant_table@@UmapNormalStates@R_dsgraph@@Udoug_lea_allocator@@@@0@Z 1001a1a0 f i r2.obj
 0001:000191b0       ?clear@?$vector@PAUTNode@?$FixedMAP@PAVR_constant_table@@UmapNormalStates@R_dsgraph@@Udoug_lea_allocator@@@@V?$doug_lea_alloc@PAUTNode@?$FixedMAP@PAVR_constant_table@@UmapNormalStates@R_dsgraph@@Udoug_lea_allocator@@@@@@@std@@QAEXXZ 1001a1b0 f i r2.obj
 0001:000191c0       ?clear_and_free@?$xr_vector@PAUTNode@?$FixedMAP@PAVR_constant_table@@UmapNormalStates@R_dsgraph@@Udoug_lea_allocator@@@@V?$doug_lea_alloc@PAUTNode@?$FixedMAP@PAVR_constant_table@@UmapNormalStates@R_dsgraph@@Udoug_lea_allocator@@@@@@@@QAEXXZ 1001a1c0 f i r2.obj
 0001:000191d0       ?clear@?$xr_vector@PAUTNode@?$FixedMAP@PAVR_constant_table@@UmapNormalStates@R_dsgraph@@Udoug_lea_allocator@@@@V?$doug_lea_alloc@PAUTNode@?$FixedMAP@PAVR_constant_table@@UmapNormalStates@R_dsgraph@@Udoug_lea_allocator@@@@@@@@QAEXXZ 1001a1d0 f i r2.obj
 0001:000191e0       ??0?$doug_lea_alloc@PAUTNode@?$FixedMAP@PAUIDirect3DStateBlock9@@UmapNormalTextures@R_dsgraph@@Udoug_lea_allocator@@@@@@QAE@XZ 1001a1e0 f i r2.obj
 0001:000191f0       ??0?$_Wrap_alloc@V?$doug_lea_alloc@PAUTNode@?$FixedMAP@PAUIDirect3DStateBlock9@@UmapNormalTextures@R_dsgraph@@Udoug_lea_allocator@@@@@@@std@@QAE@XZ 1001a1f0 f i r2.obj
 0001:00019200       ?_Getal@?$_Vector_alloc@$0A@U?$_Vec_base_types@PAUTNode@?$FixedMAP@PAUIDirect3DStateBlock9@@UmapNormalTextures@R_dsgraph@@Udoug_lea_allocator@@@@V?$doug_lea_alloc@PAUTNode@?$FixedMAP@PAUIDirect3DStateBlock9@@UmapNormalTextures@R_dsgraph@@Udoug_lea_allocator@@@@@@@std@@@std@@QBE?AU?$_Wrap_alloc@V?$doug_lea_alloc@PAUTNode@?$FixedMAP@PAUIDirect3DStateBlock9@@UmapNormalTextures@R_dsgraph@@Udoug_lea_allocator@@@@@@@2@XZ 1001a200 f i r2.obj
 0001:00019210       ??$_Destroy_range@U?$_Wrap_alloc@V?$doug_lea_alloc@PAUTNode@?$FixedMAP@PAUIDirect3DStateBlock9@@UmapNormalTextures@R_dsgraph@@Udoug_lea_allocator@@@@@@@std@@@std@@YAXPAPAUTNode@?$FixedMAP@PAUIDirect3DStateBlock9@@UmapNormalTextures@R_dsgraph@@Udoug_lea_allocator@@@@0AAU?$_Wrap_alloc@V?$doug_lea_alloc@PAUTNode@?$FixedMAP@PAUIDirect3DStateBlock9@@UmapNormalTextures@R_dsgraph@@Udoug_lea_allocator@@@@@@@0@U_Scalar_ptr_iterator_tag@0@@Z 1001a210 f i r2.obj
 0001:00019220       ??$_Ptr_cat@PAUTNode@?$FixedMAP@PAUIDirect3DStateBlock9@@UmapNormalTextures@R_dsgraph@@Udoug_lea_allocator@@@@PAU12@@std@@YA?AU_Scalar_ptr_iterator_tag@0@PAPAUTNode@?$FixedMAP@PAUIDirect3DStateBlock9@@UmapNormalTextures@R_dsgraph@@Udoug_lea_allocator@@@@0@Z 1001a220 f i r2.obj
 0001:00019230       ??$_Destroy_range@U?$_Wrap_alloc@V?$doug_lea_alloc@PAUTNode@?$FixedMAP@PAUIDirect3DStateBlock9@@UmapNormalTextures@R_dsgraph@@Udoug_lea_allocator@@@@@@@std@@@std@@YAXPAPAUTNode@?$FixedMAP@PAUIDirect3DStateBlock9@@UmapNormalTextures@R_dsgraph@@Udoug_lea_allocator@@@@0AAU?$_Wrap_alloc@V?$doug_lea_alloc@PAUTNode@?$FixedMAP@PAUIDirect3DStateBlock9@@UmapNormalTextures@R_dsgraph@@Udoug_lea_allocator@@@@@@@0@@Z 1001a230 f i r2.obj
 0001:00019240       ?_Destroy@?$vector@PAUTNode@?$FixedMAP@PAUIDirect3DStateBlock9@@UmapNormalTextures@R_dsgraph@@Udoug_lea_allocator@@@@V?$doug_lea_alloc@PAUTNode@?$FixedMAP@PAUIDirect3DStateBlock9@@UmapNormalTextures@R_dsgraph@@Udoug_lea_allocator@@@@@@@std@@IAEXPAPAUTNode@?$FixedMAP@PAUIDirect3DStateBlock9@@UmapNormalTextures@R_dsgraph@@Udoug_lea_allocator@@@@0@Z 1001a240 f i r2.obj
 0001:00019250       ?clear@?$vector@PAUTNode@?$FixedMAP@PAUIDirect3DStateBlock9@@UmapNormalTextures@R_dsgraph@@Udoug_lea_allocator@@@@V?$doug_lea_alloc@PAUTNode@?$FixedMAP@PAUIDirect3DStateBlock9@@UmapNormalTextures@R_dsgraph@@Udoug_lea_allocator@@@@@@@std@@QAEXXZ 1001a250 f i r2.obj
 0001:00019260       ?clear_and_free@?$xr_vector@PAUTNode@?$FixedMAP@PAUIDirect3DStateBlock9@@UmapNormalTextures@R_dsgraph@@Udoug_lea_allocator@@@@V?$doug_lea_alloc@PAUTNode@?$FixedMAP@PAUIDirect3DStateBlock9@@UmapNormalTextures@R_dsgraph@@Udoug_lea_allocator@@@@@@@@QAEXXZ 1001a260 f i r2.obj
 0001:00019270       ?clear@?$xr_vector@PAUTNode@?$FixedMAP@PAUIDirect3DStateBlock9@@UmapNormalTextures@R_dsgraph@@Udoug_lea_allocator@@@@V?$doug_lea_alloc@PAUTNode@?$FixedMAP@PAUIDirect3DStateBlock9@@UmapNormalTextures@R_dsgraph@@Udoug_lea_allocator@@@@@@@@QAEXXZ 1001a270 f i r2.obj
 0001:00019280       ??0?$doug_lea_alloc@PAUTNode@?$FixedMAP@PAUSTextureList@@UmapNormalItems@R_dsgraph@@Udoug_lea_allocator@@@@@@QAE@XZ 1001a280 f i r2.obj
 0001:00019290       ??0?$_Wrap_alloc@V?$doug_lea_alloc@PAUTNode@?$FixedMAP@PAUSTextureList@@UmapNormalItems@R_dsgraph@@Udoug_lea_allocator@@@@@@@std@@QAE@XZ 1001a290 f i r2.obj
 0001:000192a0       ?_Getal@?$_Vector_alloc@$0A@U?$_Vec_base_types@PAUTNode@?$FixedMAP@PAUSTextureList@@UmapNormalItems@R_dsgraph@@Udoug_lea_allocator@@@@V?$doug_lea_alloc@PAUTNode@?$FixedMAP@PAUSTextureList@@UmapNormalItems@R_dsgraph@@Udoug_lea_allocator@@@@@@@std@@@std@@QBE?AU?$_Wrap_alloc@V?$doug_lea_alloc@PAUTNode@?$FixedMAP@PAUSTextureList@@UmapNormalItems@R_dsgraph@@Udoug_lea_allocator@@@@@@@2@XZ 1001a2a0 f i r2.obj
 0001:000192b0       ??$_Destroy_range@U?$_Wrap_alloc@V?$doug_lea_alloc@PAUTNode@?$FixedMAP@PAUSTextureList@@UmapNormalItems@R_dsgraph@@Udoug_lea_allocator@@@@@@@std@@@std@@YAXPAPAUTNode@?$FixedMAP@PAUSTextureList@@UmapNormalItems@R_dsgraph@@Udoug_lea_allocator@@@@0AAU?$_Wrap_alloc@V?$doug_lea_alloc@PAUTNode@?$FixedMAP@PAUSTextureList@@UmapNormalItems@R_dsgraph@@Udoug_lea_allocator@@@@@@@0@U_Scalar_ptr_iterator_tag@0@@Z 1001a2b0 f i r2.obj
 0001:000192c0       ??$_Ptr_cat@PAUTNode@?$FixedMAP@PAUSTextureList@@UmapNormalItems@R_dsgraph@@Udoug_lea_allocator@@@@PAU12@@std@@YA?AU_Scalar_ptr_iterator_tag@0@PAPAUTNode@?$FixedMAP@PAUSTextureList@@UmapNormalItems@R_dsgraph@@Udoug_lea_allocator@@@@0@Z 1001a2c0 f i r2.obj
 0001:000192d0       ??$_Destroy_range@U?$_Wrap_alloc@V?$doug_lea_alloc@PAUTNode@?$FixedMAP@PAUSTextureList@@UmapNormalItems@R_dsgraph@@Udoug_lea_allocator@@@@@@@std@@@std@@YAXPAPAUTNode@?$FixedMAP@PAUSTextureList@@UmapNormalItems@R_dsgraph@@Udoug_lea_allocator@@@@0AAU?$_Wrap_alloc@V?$doug_lea_alloc@PAUTNode@?$FixedMAP@PAUSTextureList@@UmapNormalItems@R_dsgraph@@Udoug_lea_allocator@@@@@@@0@@Z 1001a2d0 f i r2.obj
 0001:000192e0       ?_Destroy@?$vector@PAUTNode@?$FixedMAP@PAUSTextureList@@UmapNormalItems@R_dsgraph@@Udoug_lea_allocator@@@@V?$doug_lea_alloc@PAUTNode@?$FixedMAP@PAUSTextureList@@UmapNormalItems@R_dsgraph@@Udoug_lea_allocator@@@@@@@std@@IAEXPAPAUTNode@?$FixedMAP@PAUSTextureList@@UmapNormalItems@R_dsgraph@@Udoug_lea_allocator@@@@0@Z 1001a2e0 f i r2.obj
 0001:000192f0       ?clear@?$vector@PAUTNode@?$FixedMAP@PAUSTextureList@@UmapNormalItems@R_dsgraph@@Udoug_lea_allocator@@@@V?$doug_lea_alloc@PAUTNode@?$FixedMAP@PAUSTextureList@@UmapNormalItems@R_dsgraph@@Udoug_lea_allocator@@@@@@@std@@QAEXXZ 1001a2f0 f i r2.obj
 0001:00019300       ?clear_and_free@?$xr_vector@PAUTNode@?$FixedMAP@PAUSTextureList@@UmapNormalItems@R_dsgraph@@Udoug_lea_allocator@@@@V?$doug_lea_alloc@PAUTNode@?$FixedMAP@PAUSTextureList@@UmapNormalItems@R_dsgraph@@Udoug_lea_allocator@@@@@@@@QAEXXZ 1001a300 f i r2.obj
 0001:00019310       ?clear@?$xr_vector@PAUTNode@?$FixedMAP@PAUSTextureList@@UmapNormalItems@R_dsgraph@@Udoug_lea_allocator@@@@V?$doug_lea_alloc@PAUTNode@?$FixedMAP@PAUSTextureList@@UmapNormalItems@R_dsgraph@@Udoug_lea_allocator@@@@@@@@QAEXXZ 1001a310 f i r2.obj
 0001:00019320       ??0?$doug_lea_alloc@PAUTNode@?$FixedMAP@PAUIDirect3DVertexShader9@@UmapMatrixPS@R_dsgraph@@Udoug_lea_allocator@@@@@@QAE@XZ 1001a320 f i r2.obj
 0001:00019330       ??0?$_Wrap_alloc@V?$doug_lea_alloc@PAUTNode@?$FixedMAP@PAUIDirect3DVertexShader9@@UmapMatrixPS@R_dsgraph@@Udoug_lea_allocator@@@@@@@std@@QAE@XZ 1001a330 f i r2.obj
 0001:00019340       ?_Getal@?$_Vector_alloc@$0A@U?$_Vec_base_types@PAUTNode@?$FixedMAP@PAUIDirect3DVertexShader9@@UmapMatrixPS@R_dsgraph@@Udoug_lea_allocator@@@@V?$doug_lea_alloc@PAUTNode@?$FixedMAP@PAUIDirect3DVertexShader9@@UmapMatrixPS@R_dsgraph@@Udoug_lea_allocator@@@@@@@std@@@std@@QBE?AU?$_Wrap_alloc@V?$doug_lea_alloc@PAUTNode@?$FixedMAP@PAUIDirect3DVertexShader9@@UmapMatrixPS@R_dsgraph@@Udoug_lea_allocator@@@@@@@2@XZ 1001a340 f i r2.obj
 0001:00019350       ??$_Destroy_range@U?$_Wrap_alloc@V?$doug_lea_alloc@PAUTNode@?$FixedMAP@PAUIDirect3DVertexShader9@@UmapMatrixPS@R_dsgraph@@Udoug_lea_allocator@@@@@@@std@@@std@@YAXPAPAUTNode@?$FixedMAP@PAUIDirect3DVertexShader9@@UmapMatrixPS@R_dsgraph@@Udoug_lea_allocator@@@@0AAU?$_Wrap_alloc@V?$doug_lea_alloc@PAUTNode@?$FixedMAP@PAUIDirect3DVertexShader9@@UmapMatrixPS@R_dsgraph@@Udoug_lea_allocator@@@@@@@0@U_Scalar_ptr_iterator_tag@0@@Z 1001a350 f i r2.obj
 0001:00019360       ??$_Ptr_cat@PAUTNode@?$FixedMAP@PAUIDirect3DVertexShader9@@UmapMatrixPS@R_dsgraph@@Udoug_lea_allocator@@@@PAU12@@std@@YA?AU_Scalar_ptr_iterator_tag@0@PAPAUTNode@?$FixedMAP@PAUIDirect3DVertexShader9@@UmapMatrixPS@R_dsgraph@@Udoug_lea_allocator@@@@0@Z 1001a360 f i r2.obj
 0001:00019370       ??$_Destroy_range@U?$_Wrap_alloc@V?$doug_lea_alloc@PAUTNode@?$FixedMAP@PAUIDirect3DVertexShader9@@UmapMatrixPS@R_dsgraph@@Udoug_lea_allocator@@@@@@@std@@@std@@YAXPAPAUTNode@?$FixedMAP@PAUIDirect3DVertexShader9@@UmapMatrixPS@R_dsgraph@@Udoug_lea_allocator@@@@0AAU?$_Wrap_alloc@V?$doug_lea_alloc@PAUTNode@?$FixedMAP@PAUIDirect3DVertexShader9@@UmapMatrixPS@R_dsgraph@@Udoug_lea_allocator@@@@@@@0@@Z 1001a370 f i r2.obj
 0001:00019380       ?_Destroy@?$vector@PAUTNode@?$FixedMAP@PAUIDirect3DVertexShader9@@UmapMatrixPS@R_dsgraph@@Udoug_lea_allocator@@@@V?$doug_lea_alloc@PAUTNode@?$FixedMAP@PAUIDirect3DVertexShader9@@UmapMatrixPS@R_dsgraph@@Udoug_lea_allocator@@@@@@@std@@IAEXPAPAUTNode@?$FixedMAP@PAUIDirect3DVertexShader9@@UmapMatrixPS@R_dsgraph@@Udoug_lea_allocator@@@@0@Z 1001a380 f i r2.obj
 0001:00019390       ?clear@?$vector@PAUTNode@?$FixedMAP@PAUIDirect3DVertexShader9@@UmapMatrixPS@R_dsgraph@@Udoug_lea_allocator@@@@V?$doug_lea_alloc@PAUTNode@?$FixedMAP@PAUIDirect3DVertexShader9@@UmapMatrixPS@R_dsgraph@@Udoug_lea_allocator@@@@@@@std@@QAEXXZ 1001a390 f i r2.obj
 0001:000193a0       ?clear_and_free@?$xr_vector@PAUTNode@?$FixedMAP@PAUIDirect3DVertexShader9@@UmapMatrixPS@R_dsgraph@@Udoug_lea_allocator@@@@V?$doug_lea_alloc@PAUTNode@?$FixedMAP@PAUIDirect3DVertexShader9@@UmapMatrixPS@R_dsgraph@@Udoug_lea_allocator@@@@@@@@QAEXXZ 1001a3a0 f i r2.obj
 0001:000193b0       ?clear@?$xr_vector@PAUTNode@?$FixedMAP@PAUIDirect3DVertexShader9@@UmapMatrixPS@R_dsgraph@@Udoug_lea_allocator@@@@V?$doug_lea_alloc@PAUTNode@?$FixedMAP@PAUIDirect3DVertexShader9@@UmapMatrixPS@R_dsgraph@@Udoug_lea_allocator@@@@@@@@QAEXXZ 1001a3b0 f i r2.obj
 0001:000193c0       ??0?$doug_lea_alloc@PAUTNode@?$FixedMAP@PAUIDirect3DPixelShader9@@UmapMatrixCS@R_dsgraph@@Udoug_lea_allocator@@@@@@QAE@XZ 1001a3c0 f i r2.obj
 0001:000193d0       ??0?$_Wrap_alloc@V?$doug_lea_alloc@PAUTNode@?$FixedMAP@PAUIDirect3DPixelShader9@@UmapMatrixCS@R_dsgraph@@Udoug_lea_allocator@@@@@@@std@@QAE@XZ 1001a3d0 f i r2.obj
 0001:000193e0       ?_Getal@?$_Vector_alloc@$0A@U?$_Vec_base_types@PAUTNode@?$FixedMAP@PAUIDirect3DPixelShader9@@UmapMatrixCS@R_dsgraph@@Udoug_lea_allocator@@@@V?$doug_lea_alloc@PAUTNode@?$FixedMAP@PAUIDirect3DPixelShader9@@UmapMatrixCS@R_dsgraph@@Udoug_lea_allocator@@@@@@@std@@@std@@QBE?AU?$_Wrap_alloc@V?$doug_lea_alloc@PAUTNode@?$FixedMAP@PAUIDirect3DPixelShader9@@UmapMatrixCS@R_dsgraph@@Udoug_lea_allocator@@@@@@@2@XZ 1001a3e0 f i r2.obj
 0001:000193f0       ??$_Destroy_range@U?$_Wrap_alloc@V?$doug_lea_alloc@PAUTNode@?$FixedMAP@PAUIDirect3DPixelShader9@@UmapMatrixCS@R_dsgraph@@Udoug_lea_allocator@@@@@@@std@@@std@@YAXPAPAUTNode@?$FixedMAP@PAUIDirect3DPixelShader9@@UmapMatrixCS@R_dsgraph@@Udoug_lea_allocator@@@@0AAU?$_Wrap_alloc@V?$doug_lea_alloc@PAUTNode@?$FixedMAP@PAUIDirect3DPixelShader9@@UmapMatrixCS@R_dsgraph@@Udoug_lea_allocator@@@@@@@0@U_Scalar_ptr_iterator_tag@0@@Z 1001a3f0 f i r2.obj
 0001:00019400       ??$_Ptr_cat@PAUTNode@?$FixedMAP@PAUIDirect3DPixelShader9@@UmapMatrixCS@R_dsgraph@@Udoug_lea_allocator@@@@PAU12@@std@@YA?AU_Scalar_ptr_iterator_tag@0@PAPAUTNode@?$FixedMAP@PAUIDirect3DPixelShader9@@UmapMatrixCS@R_dsgraph@@Udoug_lea_allocator@@@@0@Z 1001a400 f i r2.obj
 0001:00019410       ??$_Destroy_range@U?$_Wrap_alloc@V?$doug_lea_alloc@PAUTNode@?$FixedMAP@PAUIDirect3DPixelShader9@@UmapMatrixCS@R_dsgraph@@Udoug_lea_allocator@@@@@@@std@@@std@@YAXPAPAUTNode@?$FixedMAP@PAUIDirect3DPixelShader9@@UmapMatrixCS@R_dsgraph@@Udoug_lea_allocator@@@@0AAU?$_Wrap_alloc@V?$doug_lea_alloc@PAUTNode@?$FixedMAP@PAUIDirect3DPixelShader9@@UmapMatrixCS@R_dsgraph@@Udoug_lea_allocator@@@@@@@0@@Z 1001a410 f i r2.obj
 0001:00019420       ?_Destroy@?$vector@PAUTNode@?$FixedMAP@PAUIDirect3DPixelShader9@@UmapMatrixCS@R_dsgraph@@Udoug_lea_allocator@@@@V?$doug_lea_alloc@PAUTNode@?$FixedMAP@PAUIDirect3DPixelShader9@@UmapMatrixCS@R_dsgraph@@Udoug_lea_allocator@@@@@@@std@@IAEXPAPAUTNode@?$FixedMAP@PAUIDirect3DPixelShader9@@UmapMatrixCS@R_dsgraph@@Udoug_lea_allocator@@@@0@Z 1001a420 f i r2.obj
 0001:00019430       ?clear@?$vector@PAUTNode@?$FixedMAP@PAUIDirect3DPixelShader9@@UmapMatrixCS@R_dsgraph@@Udoug_lea_allocator@@@@V?$doug_lea_alloc@PAUTNode@?$FixedMAP@PAUIDirect3DPixelShader9@@UmapMatrixCS@R_dsgraph@@Udoug_lea_allocator@@@@@@@std@@QAEXXZ 1001a430 f i r2.obj
 0001:00019440       ?clear_and_free@?$xr_vector@PAUTNode@?$FixedMAP@PAUIDirect3DPixelShader9@@UmapMatrixCS@R_dsgraph@@Udoug_lea_allocator@@@@V?$doug_lea_alloc@PAUTNode@?$FixedMAP@PAUIDirect3DPixelShader9@@UmapMatrixCS@R_dsgraph@@Udoug_lea_allocator@@@@@@@@QAEXXZ 1001a440 f i r2.obj
 0001:00019450       ?clear@?$xr_vector@PAUTNode@?$FixedMAP@PAUIDirect3DPixelShader9@@UmapMatrixCS@R_dsgraph@@Udoug_lea_allocator@@@@V?$doug_lea_alloc@PAUTNode@?$FixedMAP@PAUIDirect3DPixelShader9@@UmapMatrixCS@R_dsgraph@@Udoug_lea_allocator@@@@@@@@QAEXXZ 1001a450 f i r2.obj
 0001:00019460       ??0?$doug_lea_alloc@PAUTNode@?$FixedMAP@PAVR_constant_table@@UmapMatrixStates@R_dsgraph@@Udoug_lea_allocator@@@@@@QAE@XZ 1001a460 f i r2.obj
 0001:00019470       ??0?$_Wrap_alloc@V?$doug_lea_alloc@PAUTNode@?$FixedMAP@PAVR_constant_table@@UmapMatrixStates@R_dsgraph@@Udoug_lea_allocator@@@@@@@std@@QAE@XZ 1001a470 f i r2.obj
 0001:00019480       ?_Getal@?$_Vector_alloc@$0A@U?$_Vec_base_types@PAUTNode@?$FixedMAP@PAVR_constant_table@@UmapMatrixStates@R_dsgraph@@Udoug_lea_allocator@@@@V?$doug_lea_alloc@PAUTNode@?$FixedMAP@PAVR_constant_table@@UmapMatrixStates@R_dsgraph@@Udoug_lea_allocator@@@@@@@std@@@std@@QBE?AU?$_Wrap_alloc@V?$doug_lea_alloc@PAUTNode@?$FixedMAP@PAVR_constant_table@@UmapMatrixStates@R_dsgraph@@Udoug_lea_allocator@@@@@@@2@XZ 1001a480 f i r2.obj
 0001:00019490       ??$_Destroy_range@U?$_Wrap_alloc@V?$doug_lea_alloc@PAUTNode@?$FixedMAP@PAVR_constant_table@@UmapMatrixStates@R_dsgraph@@Udoug_lea_allocator@@@@@@@std@@@std@@YAXPAPAUTNode@?$FixedMAP@PAVR_constant_table@@UmapMatrixStates@R_dsgraph@@Udoug_lea_allocator@@@@0AAU?$_Wrap_alloc@V?$doug_lea_alloc@PAUTNode@?$FixedMAP@PAVR_constant_table@@UmapMatrixStates@R_dsgraph@@Udoug_lea_allocator@@@@@@@0@U_Scalar_ptr_iterator_tag@0@@Z 1001a490 f i r2.obj
 0001:000194a0       ??$_Ptr_cat@PAUTNode@?$FixedMAP@PAVR_constant_table@@UmapMatrixStates@R_dsgraph@@Udoug_lea_allocator@@@@PAU12@@std@@YA?AU_Scalar_ptr_iterator_tag@0@PAPAUTNode@?$FixedMAP@PAVR_constant_table@@UmapMatrixStates@R_dsgraph@@Udoug_lea_allocator@@@@0@Z 1001a4a0 f i r2.obj
 0001:000194b0       ??$_Destroy_range@U?$_Wrap_alloc@V?$doug_lea_alloc@PAUTNode@?$FixedMAP@PAVR_constant_table@@UmapMatrixStates@R_dsgraph@@Udoug_lea_allocator@@@@@@@std@@@std@@YAXPAPAUTNode@?$FixedMAP@PAVR_constant_table@@UmapMatrixStates@R_dsgraph@@Udoug_lea_allocator@@@@0AAU?$_Wrap_alloc@V?$doug_lea_alloc@PAUTNode@?$FixedMAP@PAVR_constant_table@@UmapMatrixStates@R_dsgraph@@Udoug_lea_allocator@@@@@@@0@@Z 1001a4b0 f i r2.obj
 0001:000194c0       ?_Destroy@?$vector@PAUTNode@?$FixedMAP@PAVR_constant_table@@UmapMatrixStates@R_dsgraph@@Udoug_lea_allocator@@@@V?$doug_lea_alloc@PAUTNode@?$FixedMAP@PAVR_constant_table@@UmapMatrixStates@R_dsgraph@@Udoug_lea_allocator@@@@@@@std@@IAEXPAPAUTNode@?$FixedMAP@PAVR_constant_table@@UmapMatrixStates@R_dsgraph@@Udoug_lea_allocator@@@@0@Z 1001a4c0 f i r2.obj
 0001:000194d0       ?clear@?$vector@PAUTNode@?$FixedMAP@PAVR_constant_table@@UmapMatrixStates@R_dsgraph@@Udoug_lea_allocator@@@@V?$doug_lea_alloc@PAUTNode@?$FixedMAP@PAVR_constant_table@@UmapMatrixStates@R_dsgraph@@Udoug_lea_allocator@@@@@@@std@@QAEXXZ 1001a4d0 f i r2.obj
 0001:000194e0       ?clear_and_free@?$xr_vector@PAUTNode@?$FixedMAP@PAVR_constant_table@@UmapMatrixStates@R_dsgraph@@Udoug_lea_allocator@@@@V?$doug_lea_alloc@PAUTNode@?$FixedMAP@PAVR_constant_table@@UmapMatrixStates@R_dsgraph@@Udoug_lea_allocator@@@@@@@@QAEXXZ 1001a4e0 f i r2.obj
 0001:000194f0       ?clear@?$xr_vector@PAUTNode@?$FixedMAP@PAVR_constant_table@@UmapMatrixStates@R_dsgraph@@Udoug_lea_allocator@@@@V?$doug_lea_alloc@PAUTNode@?$FixedMAP@PAVR_constant_table@@UmapMatrixStates@R_dsgraph@@Udoug_lea_allocator@@@@@@@@QAEXXZ 1001a4f0 f i r2.obj
 0001:00019500       ??0?$doug_lea_alloc@PAUTNode@?$FixedMAP@PAUIDirect3DStateBlock9@@UmapMatrixTextures@R_dsgraph@@Udoug_lea_allocator@@@@@@QAE@XZ 1001a500 f i r2.obj
 0001:00019510       ??0?$_Wrap_alloc@V?$doug_lea_alloc@PAUTNode@?$FixedMAP@PAUIDirect3DStateBlock9@@UmapMatrixTextures@R_dsgraph@@Udoug_lea_allocator@@@@@@@std@@QAE@XZ 1001a510 f i r2.obj
 0001:00019520       ?_Getal@?$_Vector_alloc@$0A@U?$_Vec_base_types@PAUTNode@?$FixedMAP@PAUIDirect3DStateBlock9@@UmapMatrixTextures@R_dsgraph@@Udoug_lea_allocator@@@@V?$doug_lea_alloc@PAUTNode@?$FixedMAP@PAUIDirect3DStateBlock9@@UmapMatrixTextures@R_dsgraph@@Udoug_lea_allocator@@@@@@@std@@@std@@QBE?AU?$_Wrap_alloc@V?$doug_lea_alloc@PAUTNode@?$FixedMAP@PAUIDirect3DStateBlock9@@UmapMatrixTextures@R_dsgraph@@Udoug_lea_allocator@@@@@@@2@XZ 1001a520 f i r2.obj
 0001:00019530       ??$_Destroy_range@U?$_Wrap_alloc@V?$doug_lea_alloc@PAUTNode@?$FixedMAP@PAUIDirect3DStateBlock9@@UmapMatrixTextures@R_dsgraph@@Udoug_lea_allocator@@@@@@@std@@@std@@YAXPAPAUTNode@?$FixedMAP@PAUIDirect3DStateBlock9@@UmapMatrixTextures@R_dsgraph@@Udoug_lea_allocator@@@@0AAU?$_Wrap_alloc@V?$doug_lea_alloc@PAUTNode@?$FixedMAP@PAUIDirect3DStateBlock9@@UmapMatrixTextures@R_dsgraph@@Udoug_lea_allocator@@@@@@@0@U_Scalar_ptr_iterator_tag@0@@Z 1001a530 f i r2.obj
 0001:00019540       ??$_Ptr_cat@PAUTNode@?$FixedMAP@PAUIDirect3DStateBlock9@@UmapMatrixTextures@R_dsgraph@@Udoug_lea_allocator@@@@PAU12@@std@@YA?AU_Scalar_ptr_iterator_tag@0@PAPAUTNode@?$FixedMAP@PAUIDirect3DStateBlock9@@UmapMatrixTextures@R_dsgraph@@Udoug_lea_allocator@@@@0@Z 1001a540 f i r2.obj
 0001:00019550       ??$_Destroy_range@U?$_Wrap_alloc@V?$doug_lea_alloc@PAUTNode@?$FixedMAP@PAUIDirect3DStateBlock9@@UmapMatrixTextures@R_dsgraph@@Udoug_lea_allocator@@@@@@@std@@@std@@YAXPAPAUTNode@?$FixedMAP@PAUIDirect3DStateBlock9@@UmapMatrixTextures@R_dsgraph@@Udoug_lea_allocator@@@@0AAU?$_Wrap_alloc@V?$doug_lea_alloc@PAUTNode@?$FixedMAP@PAUIDirect3DStateBlock9@@UmapMatrixTextures@R_dsgraph@@Udoug_lea_allocator@@@@@@@0@@Z 1001a550 f i r2.obj
 0001:00019560       ?_Destroy@?$vector@PAUTNode@?$FixedMAP@PAUIDirect3DStateBlock9@@UmapMatrixTextures@R_dsgraph@@Udoug_lea_allocator@@@@V?$doug_lea_alloc@PAUTNode@?$FixedMAP@PAUIDirect3DStateBlock9@@UmapMatrixTextures@R_dsgraph@@Udoug_lea_allocator@@@@@@@std@@IAEXPAPAUTNode@?$FixedMAP@PAUIDirect3DStateBlock9@@UmapMatrixTextures@R_dsgraph@@Udoug_lea_allocator@@@@0@Z 1001a560 f i r2.obj
 0001:00019570       ?clear@?$vector@PAUTNode@?$FixedMAP@PAUIDirect3DStateBlock9@@UmapMatrixTextures@R_dsgraph@@Udoug_lea_allocator@@@@V?$doug_lea_alloc@PAUTNode@?$FixedMAP@PAUIDirect3DStateBlock9@@UmapMatrixTextures@R_dsgraph@@Udoug_lea_allocator@@@@@@@std@@QAEXXZ 1001a570 f i r2.obj
 0001:00019580       ?clear_and_free@?$xr_vector@PAUTNode@?$FixedMAP@PAUIDirect3DStateBlock9@@UmapMatrixTextures@R_dsgraph@@Udoug_lea_allocator@@@@V?$doug_lea_alloc@PAUTNode@?$FixedMAP@PAUIDirect3DStateBlock9@@UmapMatrixTextures@R_dsgraph@@Udoug_lea_allocator@@@@@@@@QAEXXZ 1001a580 f i r2.obj
 0001:00019590       ?clear@?$xr_vector@PAUTNode@?$FixedMAP@PAUIDirect3DStateBlock9@@UmapMatrixTextures@R_dsgraph@@Udoug_lea_allocator@@@@V?$doug_lea_alloc@PAUTNode@?$FixedMAP@PAUIDirect3DStateBlock9@@UmapMatrixTextures@R_dsgraph@@Udoug_lea_allocator@@@@@@@@QAEXXZ 1001a590 f i r2.obj
 0001:000195a0       ??0?$doug_lea_alloc@PAUTNode@?$FixedMAP@PAUSTextureList@@UmapMatrixItems@R_dsgraph@@Udoug_lea_allocator@@@@@@QAE@XZ 1001a5a0 f i r2.obj
 0001:000195b0       ??0?$_Wrap_alloc@V?$doug_lea_alloc@PAUTNode@?$FixedMAP@PAUSTextureList@@UmapMatrixItems@R_dsgraph@@Udoug_lea_allocator@@@@@@@std@@QAE@XZ 1001a5b0 f i r2.obj
 0001:000195c0       ?_Getal@?$_Vector_alloc@$0A@U?$_Vec_base_types@PAUTNode@?$FixedMAP@PAUSTextureList@@UmapMatrixItems@R_dsgraph@@Udoug_lea_allocator@@@@V?$doug_lea_alloc@PAUTNode@?$FixedMAP@PAUSTextureList@@UmapMatrixItems@R_dsgraph@@Udoug_lea_allocator@@@@@@@std@@@std@@QBE?AU?$_Wrap_alloc@V?$doug_lea_alloc@PAUTNode@?$FixedMAP@PAUSTextureList@@UmapMatrixItems@R_dsgraph@@Udoug_lea_allocator@@@@@@@2@XZ 1001a5c0 f i r2.obj
 0001:000195d0       ??$_Destroy_range@U?$_Wrap_alloc@V?$doug_lea_alloc@PAUTNode@?$FixedMAP@PAUSTextureList@@UmapMatrixItems@R_dsgraph@@Udoug_lea_allocator@@@@@@@std@@@std@@YAXPAPAUTNode@?$FixedMAP@PAUSTextureList@@UmapMatrixItems@R_dsgraph@@Udoug_lea_allocator@@@@0AAU?$_Wrap_alloc@V?$doug_lea_alloc@PAUTNode@?$FixedMAP@PAUSTextureList@@UmapMatrixItems@R_dsgraph@@Udoug_lea_allocator@@@@@@@0@U_Scalar_ptr_iterator_tag@0@@Z 1001a5d0 f i r2.obj
 0001:000195e0       ??$_Ptr_cat@PAUTNode@?$FixedMAP@PAUSTextureList@@UmapMatrixItems@R_dsgraph@@Udoug_lea_allocator@@@@PAU12@@std@@YA?AU_Scalar_ptr_iterator_tag@0@PAPAUTNode@?$FixedMAP@PAUSTextureList@@UmapMatrixItems@R_dsgraph@@Udoug_lea_allocator@@@@0@Z 1001a5e0 f i r2.obj
 0001:000195f0       ??$_Destroy_range@U?$_Wrap_alloc@V?$doug_lea_alloc@PAUTNode@?$FixedMAP@PAUSTextureList@@UmapMatrixItems@R_dsgraph@@Udoug_lea_allocator@@@@@@@std@@@std@@YAXPAPAUTNode@?$FixedMAP@PAUSTextureList@@UmapMatrixItems@R_dsgraph@@Udoug_lea_allocator@@@@0AAU?$_Wrap_alloc@V?$doug_lea_alloc@PAUTNode@?$FixedMAP@PAUSTextureList@@UmapMatrixItems@R_dsgraph@@Udoug_lea_allocator@@@@@@@0@@Z 1001a5f0 f i r2.obj
 0001:00019600       ?_Destroy@?$vector@PAUTNode@?$FixedMAP@PAUSTextureList@@UmapMatrixItems@R_dsgraph@@Udoug_lea_allocator@@@@V?$doug_lea_alloc@PAUTNode@?$FixedMAP@PAUSTextureList@@UmapMatrixItems@R_dsgraph@@Udoug_lea_allocator@@@@@@@std@@IAEXPAPAUTNode@?$FixedMAP@PAUSTextureList@@UmapMatrixItems@R_dsgraph@@Udoug_lea_allocator@@@@0@Z 1001a600 f i r2.obj
 0001:00019610       ?clear@?$vector@PAUTNode@?$FixedMAP@PAUSTextureList@@UmapMatrixItems@R_dsgraph@@Udoug_lea_allocator@@@@V?$doug_lea_alloc@PAUTNode@?$FixedMAP@PAUSTextureList@@UmapMatrixItems@R_dsgraph@@Udoug_lea_allocator@@@@@@@std@@QAEXXZ 1001a610 f i r2.obj
 0001:00019620       ?clear_and_free@?$xr_vector@PAUTNode@?$FixedMAP@PAUSTextureList@@UmapMatrixItems@R_dsgraph@@Udoug_lea_allocator@@@@V?$doug_lea_alloc@PAUTNode@?$FixedMAP@PAUSTextureList@@UmapMatrixItems@R_dsgraph@@Udoug_lea_allocator@@@@@@@@QAEXXZ 1001a620 f i r2.obj
 0001:00019630       ?clear@?$xr_vector@PAUTNode@?$FixedMAP@PAUSTextureList@@UmapMatrixItems@R_dsgraph@@Udoug_lea_allocator@@@@V?$doug_lea_alloc@PAUTNode@?$FixedMAP@PAUSTextureList@@UmapMatrixItems@R_dsgraph@@Udoug_lea_allocator@@@@@@@@QAEXXZ 1001a630 f i r2.obj
 0001:00019640       ??0?$doug_lea_alloc@U_LodItem@R_dsgraph@@@@QAE@XZ 1001a640 f i r2.obj
 0001:00019650       ??0?$_Wrap_alloc@V?$doug_lea_alloc@U_LodItem@R_dsgraph@@@@@std@@QAE@XZ 1001a650 f i r2.obj
 0001:00019660       ?_Getal@?$_Vector_alloc@$0A@U?$_Vec_base_types@U_LodItem@R_dsgraph@@V?$doug_lea_alloc@U_LodItem@R_dsgraph@@@@@std@@@std@@QBE?AU?$_Wrap_alloc@V?$doug_lea_alloc@U_LodItem@R_dsgraph@@@@@2@XZ 1001a660 f i r2.obj
 0001:00019670       ??$_Destroy@U_LodItem@R_dsgraph@@@std@@YAXPAU_LodItem@R_dsgraph@@@Z 1001a670 f i r2.obj
 0001:00019680       ?destroy@?$doug_lea_alloc@U_LodItem@R_dsgraph@@@@QAEXPAU_LodItem@R_dsgraph@@@Z 1001a680 f i r2.obj
 0001:00019690       ??$_Fn@V?$doug_lea_alloc@U_LodItem@R_dsgraph@@@@U_LodItem@R_dsgraph@@@_Alloc_destroy@std@@SAXHAAV?$doug_lea_alloc@U_LodItem@R_dsgraph@@@@PAU_LodItem@R_dsgraph@@@Z 1001a690 f i r2.obj
 0001:000196a0       ??$destroy@U_LodItem@R_dsgraph@@@?$allocator_traits@V?$doug_lea_alloc@U_LodItem@R_dsgraph@@@@@std@@SAXAAV?$doug_lea_alloc@U_LodItem@R_dsgraph@@@@PAU_LodItem@R_dsgraph@@@Z 1001a6a0 f i r2.obj
 0001:000196b0       ??$destroy@U_LodItem@R_dsgraph@@@?$_Wrap_alloc@V?$doug_lea_alloc@U_LodItem@R_dsgraph@@@@@std@@QAEXPAU_LodItem@R_dsgraph@@@Z 1001a6b0 f i r2.obj
 0001:000196c0       ??$_Destroy_range@U?$_Wrap_alloc@V?$doug_lea_alloc@U_LodItem@R_dsgraph@@@@@std@@@std@@YAXPAU_LodItem@R_dsgraph@@0AAU?$_Wrap_alloc@V?$doug_lea_alloc@U_LodItem@R_dsgraph@@@@@0@U_Nonscalar_ptr_iterator_tag@0@@Z 1001a6c0 f i r2.obj
 0001:000196d0       ??$_Ptr_cat@U_LodItem@R_dsgraph@@U12@@std@@YA?AU_Nonscalar_ptr_iterator_tag@0@PAU_LodItem@R_dsgraph@@0@Z 1001a6d0 f i r2.obj
 0001:000196e0       ??$_Destroy_range@U?$_Wrap_alloc@V?$doug_lea_alloc@U_LodItem@R_dsgraph@@@@@std@@@std@@YAXPAU_LodItem@R_dsgraph@@0AAU?$_Wrap_alloc@V?$doug_lea_alloc@U_LodItem@R_dsgraph@@@@@0@@Z 1001a6e0 f i r2.obj
 0001:000196f0       ?_Destroy@?$vector@U_LodItem@R_dsgraph@@V?$doug_lea_alloc@U_LodItem@R_dsgraph@@@@@std@@IAEXPAU_LodItem@R_dsgraph@@0@Z 1001a6f0 f i r2.obj
 0001:00019700       ?clear@?$vector@U_LodItem@R_dsgraph@@V?$doug_lea_alloc@U_LodItem@R_dsgraph@@@@@std@@QAEXXZ 1001a700 f i r2.obj
 0001:00019710       ?clear_and_free@?$xr_vector@U_LodItem@R_dsgraph@@V?$doug_lea_alloc@U_LodItem@R_dsgraph@@@@@@QAEXXZ 1001a710 f i r2.obj
 0001:00019720       ?clear@?$xr_vector@U_LodItem@R_dsgraph@@V?$doug_lea_alloc@U_LodItem@R_dsgraph@@@@@@QAEXXZ 1001a720 f i r2.obj
 0001:00019730       ??0?$doug_lea_alloc@H@@QAE@XZ 1001a730 f i r2.obj
 0001:00019740       ??0?$_Wrap_alloc@V?$doug_lea_alloc@H@@@std@@QAE@XZ 1001a740 f i r2.obj
 0001:00019750       ?_Getal@?$_Vector_alloc@$0A@U?$_Vec_base_types@HV?$doug_lea_alloc@H@@@std@@@std@@QBE?AU?$_Wrap_alloc@V?$doug_lea_alloc@H@@@2@XZ 1001a750 f i r2.obj
 0001:00019760       ??$_Destroy_range@U?$_Wrap_alloc@V?$doug_lea_alloc@H@@@std@@@std@@YAXPAH0AAU?$_Wrap_alloc@V?$doug_lea_alloc@H@@@0@U_Scalar_ptr_iterator_tag@0@@Z 1001a760 f i r2.obj
 0001:00019770       ??$_Ptr_cat@HH@std@@YA?AU_Scalar_ptr_iterator_tag@0@PAH0@Z 1001a770 f i r2.obj
 0001:00019780       ??$_Destroy_range@U?$_Wrap_alloc@V?$doug_lea_alloc@H@@@std@@@std@@YAXPAH0AAU?$_Wrap_alloc@V?$doug_lea_alloc@H@@@0@@Z 1001a780 f i r2.obj
 0001:00019790       ?_Destroy@?$vector@HV?$doug_lea_alloc@H@@@std@@IAEXPAH0@Z 1001a790 f i r2.obj
 0001:000197a0       ?clear@?$vector@HV?$doug_lea_alloc@H@@@std@@QAEXXZ 1001a7a0 f i r2.obj
 0001:000197b0       ?clear_and_free@?$xr_vector@HV?$doug_lea_alloc@H@@@@QAEXXZ 1001a7b0 f i r2.obj
 0001:000197c0       ?clear@?$xr_vector@HV?$doug_lea_alloc@H@@@@QAEXXZ 1001a7c0 f i r2.obj
 0001:000197d0       ??0?$xalloc@PAVISpatial@@@@QAE@XZ 1001a7d0 f i r2.obj
 0001:000197e0       ??0?$_Wrap_alloc@V?$xalloc@PAVISpatial@@@@@std@@QAE@XZ 1001a7e0 f i r2.obj
 0001:000197f0       ?_Getal@?$_Vector_alloc@$0A@U?$_Vec_base_types@PAVISpatial@@V?$xalloc@PAVISpatial@@@@@std@@@std@@QBE?AU?$_Wrap_alloc@V?$xalloc@PAVISpatial@@@@@2@XZ 1001a7f0 f i r2.obj
 0001:00019800       ??$_Destroy_range@U?$_Wrap_alloc@V?$xalloc@PAVISpatial@@@@@std@@@std@@YAXPAPAVISpatial@@0AAU?$_Wrap_alloc@V?$xalloc@PAVISpatial@@@@@0@U_Scalar_ptr_iterator_tag@0@@Z 1001a800 f i r2.obj
 0001:00019810       ??$_Ptr_cat@PAVISpatial@@PAV1@@std@@YA?AU_Scalar_ptr_iterator_tag@0@PAPAVISpatial@@0@Z 1001a810 f i r2.obj
 0001:00019820       ??$_Destroy_range@U?$_Wrap_alloc@V?$xalloc@PAVISpatial@@@@@std@@@std@@YAXPAPAVISpatial@@0AAU?$_Wrap_alloc@V?$xalloc@PAVISpatial@@@@@0@@Z 1001a820 f i r2.obj
 0001:00019830       ?_Destroy@?$vector@PAVISpatial@@V?$xalloc@PAVISpatial@@@@@std@@IAEXPAPAVISpatial@@0@Z 1001a830 f i r2.obj
 0001:00019840       ?clear@?$vector@PAVISpatial@@V?$xalloc@PAVISpatial@@@@@std@@QAEXXZ 1001a840 f i r2.obj
 0001:00019850       ?clear_and_free@?$xr_vector@PAVISpatial@@V?$xalloc@PAVISpatial@@@@@@QAEXXZ 1001a850 f i r2.obj
 0001:00019860       ?clear@?$xr_vector@PAVISpatial@@V?$xalloc@PAVISpatial@@@@@@QAEXXZ 1001a860 f i r2.obj
 0001:00019870       ??0?$doug_lea_alloc@PAVIRender_Visual@@@@QAE@XZ 1001a870 f i r2.obj
 0001:00019880       ??0?$_Wrap_alloc@V?$doug_lea_alloc@PAVIRender_Visual@@@@@std@@QAE@XZ 1001a880 f i r2.obj
 0001:00019890       ?_Getal@?$_Vector_alloc@$0A@U?$_Vec_base_types@PAVIRender_Visual@@V?$doug_lea_alloc@PAVIRender_Visual@@@@@std@@@std@@QBE?AU?$_Wrap_alloc@V?$doug_lea_alloc@PAVIRender_Visual@@@@@2@XZ 1001a890 f i r2.obj
 0001:000198a0       ??$_Destroy_range@U?$_Wrap_alloc@V?$doug_lea_alloc@PAVIRender_Visual@@@@@std@@@std@@YAXPAPAVIRender_Visual@@0AAU?$_Wrap_alloc@V?$doug_lea_alloc@PAVIRender_Visual@@@@@0@U_Scalar_ptr_iterator_tag@0@@Z 1001a8a0 f i r2.obj
 0001:000198b0       ??$_Ptr_cat@PAVIRender_Visual@@PAV1@@std@@YA?AU_Scalar_ptr_iterator_tag@0@PAPAVIRender_Visual@@0@Z 1001a8b0 f i r2.obj
 0001:000198c0       ??$_Destroy_range@U?$_Wrap_alloc@V?$doug_lea_alloc@PAVIRender_Visual@@@@@std@@@std@@YAXPAPAVIRender_Visual@@0AAU?$_Wrap_alloc@V?$doug_lea_alloc@PAVIRender_Visual@@@@@0@@Z 1001a8c0 f i r2.obj
 0001:000198d0       ?_Destroy@?$vector@PAVIRender_Visual@@V?$doug_lea_alloc@PAVIRender_Visual@@@@@std@@IAEXPAPAVIRender_Visual@@0@Z 1001a8d0 f i r2.obj
 0001:000198e0       ?clear@?$vector@PAVIRender_Visual@@V?$doug_lea_alloc@PAVIRender_Visual@@@@@std@@QAEXXZ 1001a8e0 f i r2.obj
 0001:000198f0       ?clear_and_free@?$xr_vector@PAVIRender_Visual@@V?$doug_lea_alloc@PAVIRender_Visual@@@@@@QAEXXZ 1001a8f0 f i r2.obj
 0001:00019900       ?clear@?$xr_vector@PAVIRender_Visual@@V?$doug_lea_alloc@PAVIRender_Visual@@@@@@QAEXXZ 1001a900 f i r2.obj
 0001:00019910       ?begin@?$FixedMAP@PAUIDirect3DVertexShader9@@UmapNormalPS@R_dsgraph@@Udoug_lea_allocator@@@@QAEPAUTNode@1@XZ 1001a910 f i r2.obj
 0001:00019920       ?last@?$FixedMAP@PAUIDirect3DVertexShader9@@UmapNormalPS@R_dsgraph@@Udoug_lea_allocator@@@@QAEPAUTNode@1@XZ 1001a920 f i r2.obj
 0001:00019940       ?begin@?$FixedMAP@PAUIDirect3DPixelShader9@@UmapNormalCS@R_dsgraph@@Udoug_lea_allocator@@@@QAEPAUTNode@1@XZ 1001a940 f i r2.obj
 0001:00019950       ?last@?$FixedMAP@PAUIDirect3DPixelShader9@@UmapNormalCS@R_dsgraph@@Udoug_lea_allocator@@@@QAEPAUTNode@1@XZ 1001a950 f i r2.obj
 0001:00019970       ?begin@?$FixedMAP@PAVR_constant_table@@UmapNormalStates@R_dsgraph@@Udoug_lea_allocator@@@@QAEPAUTNode@1@XZ 1001a970 f i r2.obj
 0001:00019980       ?last@?$FixedMAP@PAVR_constant_table@@UmapNormalStates@R_dsgraph@@Udoug_lea_allocator@@@@QAEPAUTNode@1@XZ 1001a980 f i r2.obj
 0001:000199a0       ?begin@?$FixedMAP@PAUIDirect3DStateBlock9@@UmapNormalTextures@R_dsgraph@@Udoug_lea_allocator@@@@QAEPAUTNode@1@XZ 1001a9a0 f i r2.obj
 0001:000199b0       ?last@?$FixedMAP@PAUIDirect3DStateBlock9@@UmapNormalTextures@R_dsgraph@@Udoug_lea_allocator@@@@QAEPAUTNode@1@XZ 1001a9b0 f i r2.obj
 0001:000199d0       ?begin@?$FixedMAP@PAUSTextureList@@UmapNormalItems@R_dsgraph@@Udoug_lea_allocator@@@@QAEPAUTNode@1@XZ 1001a9d0 f i r2.obj
 0001:000199e0       ?last@?$FixedMAP@PAUSTextureList@@UmapNormalItems@R_dsgraph@@Udoug_lea_allocator@@@@QAEPAUTNode@1@XZ 1001a9e0 f i r2.obj
 0001:00019a00       ??$_Destroy@U_NormalItem@R_dsgraph@@@std@@YAXPAU_NormalItem@R_dsgraph@@@Z 1001aa00 f i r2.obj
 0001:00019a10       ?destroy@?$doug_lea_alloc@U_NormalItem@R_dsgraph@@@@QAEXPAU_NormalItem@R_dsgraph@@@Z 1001aa10 f i r2.obj
 0001:00019a20       ??$_Fn@V?$doug_lea_alloc@U_NormalItem@R_dsgraph@@@@U_NormalItem@R_dsgraph@@@_Alloc_destroy@std@@SAXHAAV?$doug_lea_alloc@U_NormalItem@R_dsgraph@@@@PAU_NormalItem@R_dsgraph@@@Z 1001aa20 f i r2.obj
 0001:00019a30       ??$destroy@U_NormalItem@R_dsgraph@@@?$allocator_traits@V?$doug_lea_alloc@U_NormalItem@R_dsgraph@@@@@std@@SAXAAV?$doug_lea_alloc@U_NormalItem@R_dsgraph@@@@PAU_NormalItem@R_dsgraph@@@Z 1001aa30 f i r2.obj
 0001:00019a40       ??$destroy@U_NormalItem@R_dsgraph@@@?$_Wrap_alloc@V?$doug_lea_alloc@U_NormalItem@R_dsgraph@@@@@std@@QAEXPAU_NormalItem@R_dsgraph@@@Z 1001aa40 f i r2.obj
 0001:00019a50       ??$_Destroy_range@U?$_Wrap_alloc@V?$doug_lea_alloc@U_NormalItem@R_dsgraph@@@@@std@@@std@@YAXPAU_NormalItem@R_dsgraph@@0AAU?$_Wrap_alloc@V?$doug_lea_alloc@U_NormalItem@R_dsgraph@@@@@0@U_Nonscalar_ptr_iterator_tag@0@@Z 1001aa50 f i r2.obj
 0001:00019a60       ??$_Ptr_cat@U_NormalItem@R_dsgraph@@U12@@std@@YA?AU_Nonscalar_ptr_iterator_tag@0@PAU_NormalItem@R_dsgraph@@0@Z 1001aa60 f i r2.obj
 0001:00019a70       ??$_Destroy_range@U?$_Wrap_alloc@V?$doug_lea_alloc@U_NormalItem@R_dsgraph@@@@@std@@@std@@YAXPAU_NormalItem@R_dsgraph@@0AAU?$_Wrap_alloc@V?$doug_lea_alloc@U_NormalItem@R_dsgraph@@@@@0@@Z 1001aa70 f i r2.obj
 0001:00019a80       ?_Destroy@?$vector@U_NormalItem@R_dsgraph@@V?$doug_lea_alloc@U_NormalItem@R_dsgraph@@@@@std@@IAEXPAU_NormalItem@R_dsgraph@@0@Z 1001aa80 f i r2.obj
 0001:00019a90       ?deallocate@?$doug_lea_alloc@U_NormalItem@R_dsgraph@@@@QBEXPAU_NormalItem@R_dsgraph@@I@Z 1001aa90 f i r2.obj
 0001:00019aa0       ?deallocate@?$_Wrap_alloc@V?$doug_lea_alloc@U_NormalItem@R_dsgraph@@@@@std@@QAEXPAU_NormalItem@R_dsgraph@@I@Z 1001aaa0 f i r2.obj
 0001:00019ab0       ??0?$doug_lea_alloc@U_NormalItem@R_dsgraph@@@@QAE@XZ 1001aab0 f i r2.obj
 0001:00019ac0       ??0?$_Wrap_alloc@V?$doug_lea_alloc@U_NormalItem@R_dsgraph@@@@@std@@QAE@XZ 1001aac0 f i r2.obj
 0001:00019ad0       ?_Getal@?$_Vector_alloc@$0A@U?$_Vec_base_types@U_NormalItem@R_dsgraph@@V?$doug_lea_alloc@U_NormalItem@R_dsgraph@@@@@std@@@std@@QBE?AU?$_Wrap_alloc@V?$doug_lea_alloc@U_NormalItem@R_dsgraph@@@@@2@XZ 1001aad0 f i r2.obj
 0001:00019ae0       ?_Tidy@?$vector@U_NormalItem@R_dsgraph@@V?$doug_lea_alloc@U_NormalItem@R_dsgraph@@@@@std@@IAEXXZ 1001aae0 f i r2.obj
 0001:00019b10       ??1?$vector@U_NormalItem@R_dsgraph@@V?$doug_lea_alloc@U_NormalItem@R_dsgraph@@@@@std@@QAE@XZ 1001ab10 f i r2.obj
 0001:00019b40       ??1?$xr_vector@U_NormalItem@R_dsgraph@@V?$doug_lea_alloc@U_NormalItem@R_dsgraph@@@@@@QAE@XZ 1001ab40 f i r2.obj
 0001:00019b70       ??1mapNormalItems@R_dsgraph@@QAE@XZ 1001ab70 f i r2.obj
 0001:00019ba0       ??1TNode@?$FixedMAP@PAUSTextureList@@UmapNormalItems@R_dsgraph@@Udoug_lea_allocator@@@@QAE@XZ 1001aba0 f i r2.obj
 0001:00019bd0       ??_GTNode@?$FixedMAP@PAUSTextureList@@UmapNormalItems@R_dsgraph@@Udoug_lea_allocator@@@@QAEPAXI@Z 1001abd0 f i r2.obj
 0001:00019c00       ??$dealloc@UTNode@?$FixedMAP@PAUSTextureList@@UmapNormalItems@R_dsgraph@@Udoug_lea_allocator@@@@@doug_lea_allocator@@SAXAAPAUTNode@?$FixedMAP@PAUSTextureList@@UmapNormalItems@R_dsgraph@@Udoug_lea_allocator@@@@@Z 1001ac00 f i r2.obj
 0001:00019c20       ?destroy@?$FixedMAP@PAUSTextureList@@UmapNormalItems@R_dsgraph@@Udoug_lea_allocator@@@@QAEXXZ 1001ac20 f i r2.obj
 0001:00019c90       ??1?$FixedMAP@PAUSTextureList@@UmapNormalItems@R_dsgraph@@Udoug_lea_allocator@@@@QAE@XZ 1001ac90 f i r2.obj
 0001:00019ca0       ??1mapNormalTextures@R_dsgraph@@QAE@XZ 1001aca0 f i r2.obj
 0001:00019cb0       ??1TNode@?$FixedMAP@PAUIDirect3DStateBlock9@@UmapNormalTextures@R_dsgraph@@Udoug_lea_allocator@@@@QAE@XZ 1001acb0 f i r2.obj
 0001:00019cc0       ??_GTNode@?$FixedMAP@PAUIDirect3DStateBlock9@@UmapNormalTextures@R_dsgraph@@Udoug_lea_allocator@@@@QAEPAXI@Z 1001acc0 f i r2.obj
 0001:00019ce0       ??$dealloc@UTNode@?$FixedMAP@PAUIDirect3DStateBlock9@@UmapNormalTextures@R_dsgraph@@Udoug_lea_allocator@@@@@doug_lea_allocator@@SAXAAPAUTNode@?$FixedMAP@PAUIDirect3DStateBlock9@@UmapNormalTextures@R_dsgraph@@Udoug_lea_allocator@@@@@Z 1001ace0 f i r2.obj
 0001:00019d00       ?destroy@?$FixedMAP@PAUIDirect3DStateBlock9@@UmapNormalTextures@R_dsgraph@@Udoug_lea_allocator@@@@QAEXXZ 1001ad00 f i r2.obj
 0001:00019d50       ??1?$FixedMAP@PAUIDirect3DStateBlock9@@UmapNormalTextures@R_dsgraph@@Udoug_lea_allocator@@@@QAE@XZ 1001ad50 f i r2.obj
 0001:00019d60       ??1mapNormalStates@R_dsgraph@@QAE@XZ 1001ad60 f i r2.obj
 0001:00019d70       ??1TNode@?$FixedMAP@PAVR_constant_table@@UmapNormalStates@R_dsgraph@@Udoug_lea_allocator@@@@QAE@XZ 1001ad70 f i r2.obj
 0001:00019d80       ??_GTNode@?$FixedMAP@PAVR_constant_table@@UmapNormalStates@R_dsgraph@@Udoug_lea_allocator@@@@QAEPAXI@Z 1001ad80 f i r2.obj
 0001:00019da0       ??$dealloc@UTNode@?$FixedMAP@PAVR_constant_table@@UmapNormalStates@R_dsgraph@@Udoug_lea_allocator@@@@@doug_lea_allocator@@SAXAAPAUTNode@?$FixedMAP@PAVR_constant_table@@UmapNormalStates@R_dsgraph@@Udoug_lea_allocator@@@@@Z 1001ada0 f i r2.obj
 0001:00019dc0       ?destroy@?$FixedMAP@PAVR_constant_table@@UmapNormalStates@R_dsgraph@@Udoug_lea_allocator@@@@QAEXXZ 1001adc0 f i r2.obj
 0001:00019e10       ??1?$FixedMAP@PAVR_constant_table@@UmapNormalStates@R_dsgraph@@Udoug_lea_allocator@@@@QAE@XZ 1001ae10 f i r2.obj
 0001:00019e20       ??1mapNormalCS@R_dsgraph@@QAE@XZ 1001ae20 f i r2.obj
 0001:00019e30       ??1TNode@?$FixedMAP@PAUIDirect3DPixelShader9@@UmapNormalCS@R_dsgraph@@Udoug_lea_allocator@@@@QAE@XZ 1001ae30 f i r2.obj
 0001:00019e40       ??_GTNode@?$FixedMAP@PAUIDirect3DPixelShader9@@UmapNormalCS@R_dsgraph@@Udoug_lea_allocator@@@@QAEPAXI@Z 1001ae40 f i r2.obj
 0001:00019e60       ??$dealloc@UTNode@?$FixedMAP@PAUIDirect3DPixelShader9@@UmapNormalCS@R_dsgraph@@Udoug_lea_allocator@@@@@doug_lea_allocator@@SAXAAPAUTNode@?$FixedMAP@PAUIDirect3DPixelShader9@@UmapNormalCS@R_dsgraph@@Udoug_lea_allocator@@@@@Z 1001ae60 f i r2.obj
 0001:00019e80       ?destroy@?$FixedMAP@PAUIDirect3DPixelShader9@@UmapNormalCS@R_dsgraph@@Udoug_lea_allocator@@@@QAEXXZ 1001ae80 f i r2.obj
 0001:00019ed0       ??1?$FixedMAP@PAUIDirect3DPixelShader9@@UmapNormalCS@R_dsgraph@@Udoug_lea_allocator@@@@QAE@XZ 1001aed0 f i r2.obj
 0001:00019ee0       ??1mapNormalPS@R_dsgraph@@QAE@XZ 1001aee0 f i r2.obj
 0001:00019ef0       ??1TNode@?$FixedMAP@PAUIDirect3DVertexShader9@@UmapNormalPS@R_dsgraph@@Udoug_lea_allocator@@@@QAE@XZ 1001aef0 f i r2.obj
 0001:00019f00       ??_GTNode@?$FixedMAP@PAUIDirect3DVertexShader9@@UmapNormalPS@R_dsgraph@@Udoug_lea_allocator@@@@QAEPAXI@Z 1001af00 f i r2.obj
 0001:00019f20       ??$dealloc@UTNode@?$FixedMAP@PAUIDirect3DVertexShader9@@UmapNormalPS@R_dsgraph@@Udoug_lea_allocator@@@@@doug_lea_allocator@@SAXAAPAUTNode@?$FixedMAP@PAUIDirect3DVertexShader9@@UmapNormalPS@R_dsgraph@@Udoug_lea_allocator@@@@@Z 1001af20 f i r2.obj
 0001:00019f40       ?destroy@?$FixedMAP@PAUIDirect3DVertexShader9@@UmapNormalPS@R_dsgraph@@Udoug_lea_allocator@@@@QAEXXZ 1001af40 f i r2.obj
 0001:00019f90       ?begin@?$FixedMAP@PAUIDirect3DVertexShader9@@UmapMatrixPS@R_dsgraph@@Udoug_lea_allocator@@@@QAEPAUTNode@1@XZ 1001af90 f i r2.obj
 0001:00019fa0       ?last@?$FixedMAP@PAUIDirect3DVertexShader9@@UmapMatrixPS@R_dsgraph@@Udoug_lea_allocator@@@@QAEPAUTNode@1@XZ 1001afa0 f i r2.obj
 0001:00019fc0       ?begin@?$FixedMAP@PAUIDirect3DPixelShader9@@UmapMatrixCS@R_dsgraph@@Udoug_lea_allocator@@@@QAEPAUTNode@1@XZ 1001afc0 f i r2.obj
 0001:00019fd0       ?last@?$FixedMAP@PAUIDirect3DPixelShader9@@UmapMatrixCS@R_dsgraph@@Udoug_lea_allocator@@@@QAEPAUTNode@1@XZ 1001afd0 f i r2.obj
 0001:00019ff0       ?begin@?$FixedMAP@PAVR_constant_table@@UmapMatrixStates@R_dsgraph@@Udoug_lea_allocator@@@@QAEPAUTNode@1@XZ 1001aff0 f i r2.obj
 0001:0001a000       ?last@?$FixedMAP@PAVR_constant_table@@UmapMatrixStates@R_dsgraph@@Udoug_lea_allocator@@@@QAEPAUTNode@1@XZ 1001b000 f i r2.obj
 0001:0001a020       ?begin@?$FixedMAP@PAUIDirect3DStateBlock9@@UmapMatrixTextures@R_dsgraph@@Udoug_lea_allocator@@@@QAEPAUTNode@1@XZ 1001b020 f i r2.obj
 0001:0001a030       ?last@?$FixedMAP@PAUIDirect3DStateBlock9@@UmapMatrixTextures@R_dsgraph@@Udoug_lea_allocator@@@@QAEPAUTNode@1@XZ 1001b030 f i r2.obj
 0001:0001a050       ?begin@?$FixedMAP@PAUSTextureList@@UmapMatrixItems@R_dsgraph@@Udoug_lea_allocator@@@@QAEPAUTNode@1@XZ 1001b050 f i r2.obj
 0001:0001a060       ?last@?$FixedMAP@PAUSTextureList@@UmapMatrixItems@R_dsgraph@@Udoug_lea_allocator@@@@QAEPAUTNode@1@XZ 1001b060 f i r2.obj
 0001:0001a080       ??$_Destroy@U_MatrixItem@R_dsgraph@@@std@@YAXPAU_MatrixItem@R_dsgraph@@@Z 1001b080 f i r2.obj
 0001:0001a090       ?destroy@?$doug_lea_alloc@U_MatrixItem@R_dsgraph@@@@QAEXPAU_MatrixItem@R_dsgraph@@@Z 1001b090 f i r2.obj
 0001:0001a0a0       ??$_Fn@V?$doug_lea_alloc@U_MatrixItem@R_dsgraph@@@@U_MatrixItem@R_dsgraph@@@_Alloc_destroy@std@@SAXHAAV?$doug_lea_alloc@U_MatrixItem@R_dsgraph@@@@PAU_MatrixItem@R_dsgraph@@@Z 1001b0a0 f i r2.obj
 0001:0001a0b0       ??$destroy@U_MatrixItem@R_dsgraph@@@?$allocator_traits@V?$doug_lea_alloc@U_MatrixItem@R_dsgraph@@@@@std@@SAXAAV?$doug_lea_alloc@U_MatrixItem@R_dsgraph@@@@PAU_MatrixItem@R_dsgraph@@@Z 1001b0b0 f i r2.obj
 0001:0001a0c0       ??$destroy@U_MatrixItem@R_dsgraph@@@?$_Wrap_alloc@V?$doug_lea_alloc@U_MatrixItem@R_dsgraph@@@@@std@@QAEXPAU_MatrixItem@R_dsgraph@@@Z 1001b0c0 f i r2.obj
 0001:0001a0d0       ??$_Destroy_range@U?$_Wrap_alloc@V?$doug_lea_alloc@U_MatrixItem@R_dsgraph@@@@@std@@@std@@YAXPAU_MatrixItem@R_dsgraph@@0AAU?$_Wrap_alloc@V?$doug_lea_alloc@U_MatrixItem@R_dsgraph@@@@@0@U_Nonscalar_ptr_iterator_tag@0@@Z 1001b0d0 f i r2.obj
 0001:0001a0e0       ??$_Ptr_cat@U_MatrixItem@R_dsgraph@@U12@@std@@YA?AU_Nonscalar_ptr_iterator_tag@0@PAU_MatrixItem@R_dsgraph@@0@Z 1001b0e0 f i r2.obj
 0001:0001a0f0       ??$_Destroy_range@U?$_Wrap_alloc@V?$doug_lea_alloc@U_MatrixItem@R_dsgraph@@@@@std@@@std@@YAXPAU_MatrixItem@R_dsgraph@@0AAU?$_Wrap_alloc@V?$doug_lea_alloc@U_MatrixItem@R_dsgraph@@@@@0@@Z 1001b0f0 f i r2.obj
 0001:0001a100       ?_Destroy@?$vector@U_MatrixItem@R_dsgraph@@V?$doug_lea_alloc@U_MatrixItem@R_dsgraph@@@@@std@@IAEXPAU_MatrixItem@R_dsgraph@@0@Z 1001b100 f i r2.obj
 0001:0001a110       ?deallocate@?$doug_lea_alloc@U_MatrixItem@R_dsgraph@@@@QBEXPAU_MatrixItem@R_dsgraph@@I@Z 1001b110 f i r2.obj
 0001:0001a120       ?deallocate@?$_Wrap_alloc@V?$doug_lea_alloc@U_MatrixItem@R_dsgraph@@@@@std@@QAEXPAU_MatrixItem@R_dsgraph@@I@Z 1001b120 f i r2.obj
 0001:0001a130       ??0?$doug_lea_alloc@U_MatrixItem@R_dsgraph@@@@QAE@XZ 1001b130 f i r2.obj
 0001:0001a140       ??0?$_Wrap_alloc@V?$doug_lea_alloc@U_MatrixItem@R_dsgraph@@@@@std@@QAE@XZ 1001b140 f i r2.obj
 0001:0001a150       ?_Getal@?$_Vector_alloc@$0A@U?$_Vec_base_types@U_MatrixItem@R_dsgraph@@V?$doug_lea_alloc@U_MatrixItem@R_dsgraph@@@@@std@@@std@@QBE?AU?$_Wrap_alloc@V?$doug_lea_alloc@U_MatrixItem@R_dsgraph@@@@@2@XZ 1001b150 f i r2.obj
 0001:0001a160       ?_Tidy@?$vector@U_MatrixItem@R_dsgraph@@V?$doug_lea_alloc@U_MatrixItem@R_dsgraph@@@@@std@@IAEXXZ 1001b160 f i r2.obj
 0001:0001a190       ??1?$vector@U_MatrixItem@R_dsgraph@@V?$doug_lea_alloc@U_MatrixItem@R_dsgraph@@@@@std@@QAE@XZ 1001b190 f i r2.obj
 0001:0001a1c0       ??1?$xr_vector@U_MatrixItem@R_dsgraph@@V?$doug_lea_alloc@U_MatrixItem@R_dsgraph@@@@@@QAE@XZ 1001b1c0 f i r2.obj
 0001:0001a1f0       ??1mapMatrixItems@R_dsgraph@@QAE@XZ 1001b1f0 f i r2.obj
 0001:0001a220       ??1TNode@?$FixedMAP@PAUSTextureList@@UmapMatrixItems@R_dsgraph@@Udoug_lea_allocator@@@@QAE@XZ 1001b220 f i r2.obj
 0001:0001a250       ??_GTNode@?$FixedMAP@PAUSTextureList@@UmapMatrixItems@R_dsgraph@@Udoug_lea_allocator@@@@QAEPAXI@Z 1001b250 f i r2.obj
 0001:0001a280       ??$dealloc@UTNode@?$FixedMAP@PAUSTextureList@@UmapMatrixItems@R_dsgraph@@Udoug_lea_allocator@@@@@doug_lea_allocator@@SAXAAPAUTNode@?$FixedMAP@PAUSTextureList@@UmapMatrixItems@R_dsgraph@@Udoug_lea_allocator@@@@@Z 1001b280 f i r2.obj
 0001:0001a2a0       ?destroy@?$FixedMAP@PAUSTextureList@@UmapMatrixItems@R_dsgraph@@Udoug_lea_allocator@@@@QAEXXZ 1001b2a0 f i r2.obj
 0001:0001a310       ??1?$FixedMAP@PAUSTextureList@@UmapMatrixItems@R_dsgraph@@Udoug_lea_allocator@@@@QAE@XZ 1001b310 f i r2.obj
 0001:0001a320       ??1mapMatrixTextures@R_dsgraph@@QAE@XZ 1001b320 f i r2.obj
 0001:0001a330       ??1TNode@?$FixedMAP@PAUIDirect3DStateBlock9@@UmapMatrixTextures@R_dsgraph@@Udoug_lea_allocator@@@@QAE@XZ 1001b330 f i r2.obj
 0001:0001a340       ??_GTNode@?$FixedMAP@PAUIDirect3DStateBlock9@@UmapMatrixTextures@R_dsgraph@@Udoug_lea_allocator@@@@QAEPAXI@Z 1001b340 f i r2.obj
 0001:0001a360       ??$dealloc@UTNode@?$FixedMAP@PAUIDirect3DStateBlock9@@UmapMatrixTextures@R_dsgraph@@Udoug_lea_allocator@@@@@doug_lea_allocator@@SAXAAPAUTNode@?$FixedMAP@PAUIDirect3DStateBlock9@@UmapMatrixTextures@R_dsgraph@@Udoug_lea_allocator@@@@@Z 1001b360 f i r2.obj
 0001:0001a380       ?destroy@?$FixedMAP@PAUIDirect3DStateBlock9@@UmapMatrixTextures@R_dsgraph@@Udoug_lea_allocator@@@@QAEXXZ 1001b380 f i r2.obj
 0001:0001a3d0       ??1?$FixedMAP@PAUIDirect3DStateBlock9@@UmapMatrixTextures@R_dsgraph@@Udoug_lea_allocator@@@@QAE@XZ 1001b3d0 f i r2.obj
 0001:0001a3e0       ??1mapMatrixStates@R_dsgraph@@QAE@XZ 1001b3e0 f i r2.obj
 0001:0001a3f0       ??1TNode@?$FixedMAP@PAVR_constant_table@@UmapMatrixStates@R_dsgraph@@Udoug_lea_allocator@@@@QAE@XZ 1001b3f0 f i r2.obj
 0001:0001a400       ??_GTNode@?$FixedMAP@PAVR_constant_table@@UmapMatrixStates@R_dsgraph@@Udoug_lea_allocator@@@@QAEPAXI@Z 1001b400 f i r2.obj
 0001:0001a420       ??$dealloc@UTNode@?$FixedMAP@PAVR_constant_table@@UmapMatrixStates@R_dsgraph@@Udoug_lea_allocator@@@@@doug_lea_allocator@@SAXAAPAUTNode@?$FixedMAP@PAVR_constant_table@@UmapMatrixStates@R_dsgraph@@Udoug_lea_allocator@@@@@Z 1001b420 f i r2.obj
 0001:0001a440       ?destroy@?$FixedMAP@PAVR_constant_table@@UmapMatrixStates@R_dsgraph@@Udoug_lea_allocator@@@@QAEXXZ 1001b440 f i r2.obj
 0001:0001a490       ??1?$FixedMAP@PAVR_constant_table@@UmapMatrixStates@R_dsgraph@@Udoug_lea_allocator@@@@QAE@XZ 1001b490 f i r2.obj
 0001:0001a4a0       ??1mapMatrixCS@R_dsgraph@@QAE@XZ 1001b4a0 f i r2.obj
 0001:0001a4b0       ??1TNode@?$FixedMAP@PAUIDirect3DPixelShader9@@UmapMatrixCS@R_dsgraph@@Udoug_lea_allocator@@@@QAE@XZ 1001b4b0 f i r2.obj
 0001:0001a4c0       ??_GTNode@?$FixedMAP@PAUIDirect3DPixelShader9@@UmapMatrixCS@R_dsgraph@@Udoug_lea_allocator@@@@QAEPAXI@Z 1001b4c0 f i r2.obj
 0001:0001a4e0       ??$dealloc@UTNode@?$FixedMAP@PAUIDirect3DPixelShader9@@UmapMatrixCS@R_dsgraph@@Udoug_lea_allocator@@@@@doug_lea_allocator@@SAXAAPAUTNode@?$FixedMAP@PAUIDirect3DPixelShader9@@UmapMatrixCS@R_dsgraph@@Udoug_lea_allocator@@@@@Z 1001b4e0 f i r2.obj
 0001:0001a500       ?destroy@?$FixedMAP@PAUIDirect3DPixelShader9@@UmapMatrixCS@R_dsgraph@@Udoug_lea_allocator@@@@QAEXXZ 1001b500 f i r2.obj
 0001:0001a550       ??1?$FixedMAP@PAUIDirect3DPixelShader9@@UmapMatrixCS@R_dsgraph@@Udoug_lea_allocator@@@@QAE@XZ 1001b550 f i r2.obj
 0001:0001a560       ??1mapMatrixPS@R_dsgraph@@QAE@XZ 1001b560 f i r2.obj
 0001:0001a570       ??1TNode@?$FixedMAP@PAUIDirect3DVertexShader9@@UmapMatrixPS@R_dsgraph@@Udoug_lea_allocator@@@@QAE@XZ 1001b570 f i r2.obj
 0001:0001a580       ??_GTNode@?$FixedMAP@PAUIDirect3DVertexShader9@@UmapMatrixPS@R_dsgraph@@Udoug_lea_allocator@@@@QAEPAXI@Z 1001b580 f i r2.obj
 0001:0001a5a0       ??$dealloc@UTNode@?$FixedMAP@PAUIDirect3DVertexShader9@@UmapMatrixPS@R_dsgraph@@Udoug_lea_allocator@@@@@doug_lea_allocator@@SAXAAPAUTNode@?$FixedMAP@PAUIDirect3DVertexShader9@@UmapMatrixPS@R_dsgraph@@Udoug_lea_allocator@@@@@Z 1001b5a0 f i r2.obj
 0001:0001a5c0       ?destroy@?$FixedMAP@PAUIDirect3DVertexShader9@@UmapMatrixPS@R_dsgraph@@Udoug_lea_allocator@@@@QAEXXZ 1001b5c0 f i r2.obj
 0001:0001a610       ?begin@?$FixedMAP@MU_LodItem@R_dsgraph@@Udoug_lea_allocator@@@@QAEPAUTNode@1@XZ 1001b610 f i r2.obj
 0001:0001a620       ?last@?$FixedMAP@MU_LodItem@R_dsgraph@@Udoug_lea_allocator@@@@QAEPAUTNode@1@XZ 1001b620 f i r2.obj
 0001:0001a630       ??$dealloc@UTNode@?$FixedMAP@MU_LodItem@R_dsgraph@@Udoug_lea_allocator@@@@@doug_lea_allocator@@SAXAAPAUTNode@?$FixedMAP@MU_LodItem@R_dsgraph@@Udoug_lea_allocator@@@@@Z 1001b630 f i r2.obj
 0001:0001a650       ?destroy@?$FixedMAP@MU_LodItem@R_dsgraph@@Udoug_lea_allocator@@@@QAEXXZ 1001b650 f i r2.obj
 0001:0001a670       ?begin@?$FixedMAP@MU_MatrixItemS@R_dsgraph@@Udoug_lea_allocator@@@@QAEPAUTNode@1@XZ 1001b670 f i r2.obj
 0001:0001a680       ?last@?$FixedMAP@MU_MatrixItemS@R_dsgraph@@Udoug_lea_allocator@@@@QAEPAUTNode@1@XZ 1001b680 f i r2.obj
 0001:0001a690       ??$dealloc@UTNode@?$FixedMAP@MU_MatrixItemS@R_dsgraph@@Udoug_lea_allocator@@@@@doug_lea_allocator@@SAXAAPAUTNode@?$FixedMAP@MU_MatrixItemS@R_dsgraph@@Udoug_lea_allocator@@@@@Z 1001b690 f i r2.obj
 0001:0001a6b0       ?destroy@?$FixedMAP@MU_MatrixItemS@R_dsgraph@@Udoug_lea_allocator@@@@QAEXXZ 1001b6b0 f i r2.obj
 0001:0001a6d0       ?r_dsgraph_destroy@R_dsgraph_structure@@QAEXXZ 1001b6d0 f i r2.obj
 0001:0001add0       _sqrtf                     1001bdd0 f i r2.obj
 0001:0001ade0       ?_sqrt@@YAMM@Z             1001bde0 f i r2.obj
 0001:0001adf0       ?blender_create@CRender@@UAEPAVIBlender@@_K@Z 1001bdf0 f   r2_blenders.obj
 0001:0001b060       ?blender_destroy@CRender@@UAEXAAPAVIBlender@@@Z 1001c060 f   r2_blenders.obj
 0001:0001b0a0       ??$xr_new@VCBlender_deffer_flat@@@@YAPAVCBlender_deffer_flat@@XZ 1001c0a0 f i r2_blenders.obj
 0001:0001b0c0       ??$xr_new@VCBlender_deffer_aref@@_N@@YAPAVCBlender_deffer_aref@@AB_N@Z 1001c0c0 f i r2_blenders.obj
 0001:0001b0f0       ??$xr_new@VCBlender_Screen_SET@@@@YAPAVCBlender_Screen_SET@@XZ 1001c0f0 f i r2_blenders.obj
 0001:0001b110       ??$xr_new@VCBlender_Editor_Wire@@@@YAPAVCBlender_Editor_Wire@@XZ 1001c110 f i r2_blenders.obj
 0001:0001b170       ??$xr_new@VCBlender_Editor_Selection@@@@YAPAVCBlender_Editor_Selection@@XZ 1001c170 f i r2_blenders.obj
 0001:0001b1d0       ??$xr_new@VCBlender_BmmD@@@@YAPAVCBlender_BmmD@@XZ 1001c1d0 f i r2_blenders.obj
 0001:0001b1f0       ??$xr_new@VCBlender_LmEbB@@@@YAPAVCBlender_LmEbB@@XZ 1001c1f0 f i r2_blenders.obj
 0001:0001b210       ??$xr_new@VCBlender_deffer_model@@@@YAPAVCBlender_deffer_model@@XZ 1001c210 f i r2_blenders.obj
 0001:0001b230       ??$xr_new@VCBlender_Model_EbB@@@@YAPAVCBlender_Model_EbB@@XZ 1001c230 f i r2_blenders.obj
 0001:0001b250       ??$xr_new@VCBlender_Detail_Still@@@@YAPAVCBlender_Detail_Still@@XZ 1001c250 f i r2_blenders.obj
 0001:0001b2a0       ??$xr_new@VCBlender_Tree@@@@YAPAVCBlender_Tree@@XZ 1001c2a0 f i r2_blenders.obj
 0001:0001b2c0       ??$xr_new@VCBlender_Particle@@@@YAPAVCBlender_Particle@@XZ 1001c2c0 f i r2_blenders.obj
 0001:0001b2e0       ??$xr_delete@VIBlender@@@@YAXAAPAVIBlender@@@Z 1001c2e0 f i r2_blenders.obj
 0001:0001b320       ??R?$xr_special_free@$00VIBlender@@@@QAEXAAPAVIBlender@@@Z 1001c320 f i r2_blenders.obj
 0001:0001b350       ??0rain_timer_params@@QAE@XZ 1001c350 f i r2_loader.obj
 0001:0001b3a0       ?level_Load@CRender@@UAEXPAVIReader@@@Z 1001c3a0 f   r2_loader.obj
 0001:0001b790       ?level_Unload@CRender@@UAEXXZ 1001c790 f   r2_loader.obj
 0001:0001bc90       ?LoadBuffers@CRender@@AAEXPAVCStreamReader@@H@Z 1001cc90 f   r2_loader.obj
 0001:0001c160       ?MtVisLoader@@YAXPAX@Z     1001d160 f   r2_loader.obj
 0001:0001c400       ?LoadVisuals@CRender@@AAEXPAVIReader@@_N@Z 1001d400 f   r2_loader.obj
 0001:0001c7e0       ?LoadLights@CRender@@AAEXPAVIReader@@@Z 1001d7e0 f   r2_loader.obj
 0001:0001c810       ?LoadSectors@CRender@@AAEXPAVIReader@@@Z 1001d810 f   r2_loader.obj
 0001:0001cbb0       ??0b_portal@@QAE@XZ        1001dbb0 f i r2_loader.obj
 0001:0001cbe0       ?LoadSWIs@CRender@@AAEXPAVCStreamReader@@@Z 1001dbe0 f   r2_loader.obj
 0001:0001cde0       ?clear@?$FixedMAP@MU_LodItem@R_dsgraph@@Udoug_lea_allocator@@@@QAEXXZ 1001dde0 f i r2_loader.obj
 0001:0001ce00       ?size@?$xr_vector@PAVIRender_Sector@@V?$xalloc@PAVIRender_Sector@@@@@@QBEIXZ 1001de00 f i r2_loader.obj
 0001:0001ce20       ?clear@?$xr_vector@PAVIRender_Sector@@V?$xalloc@PAVIRender_Sector@@@@@@QAEXXZ 1001de20 f i r2_loader.obj
 0001:0001ce60       ?push_back@?$vector@PAVIRender_Sector@@V?$xalloc@PAVIRender_Sector@@@@@std@@QAEXABQAVIRender_Sector@@@Z 1001de60 f i r2_loader.obj
 0001:0001cfb0       ?clear@?$xr_vector@PAVIRender_Visual@@V?$xalloc@PAVIRender_Visual@@@@@@QAEXXZ 1001dfb0 f i r2_loader.obj
 0001:0001cff0       ?resize@?$vector@PAVIRender_Visual@@V?$xalloc@PAVIRender_Visual@@@@@std@@QAEXI@Z 1001dff0 f i r2_loader.obj
 0001:0001d120       ?data@?$vector@PAVIRender_Visual@@V?$xalloc@PAVIRender_Visual@@@@@std@@QAEPAPAVIRender_Visual@@XZ 1001e120 f i r2_loader.obj
 0001:0001d130       ?size@?$xr_vector@PAVIRender_Portal@@V?$xalloc@PAVIRender_Portal@@@@@@QBEIXZ 1001e130 f i r2_loader.obj
 0001:0001d150       ?clear@?$xr_vector@PAVIRender_Portal@@V?$xalloc@PAVIRender_Portal@@@@@@QAEXXZ 1001e150 f i r2_loader.obj
 0001:0001d190       ?resize@?$vector@PAVIRender_Portal@@V?$xalloc@PAVIRender_Portal@@@@@std@@QAEXI@Z 1001e190 f i r2_loader.obj
 0001:0001d300       ?size@?$xr_vector@UFSlideWindowItem@@V?$xalloc@UFSlideWindowItem@@@@@@QBEIXZ 1001e300 f i r2_loader.obj
 0001:0001d320       ?clear_not_free@?$xr_vector@UFSlideWindowItem@@V?$xalloc@UFSlideWindowItem@@@@@@QAEXXZ 1001e320 f i r2_loader.obj
 0001:0001d370       ?clear@?$xr_vector@UFSlideWindowItem@@V?$xalloc@UFSlideWindowItem@@@@@@QAEXXZ 1001e370 f i r2_loader.obj
 0001:0001d3b0       ?end@?$vector@UFSlideWindowItem@@V?$xalloc@UFSlideWindowItem@@@@@std@@QAE?AV?$_Vector_iterator@V?$_Vector_val@U?$_Simple_types@UFSlideWindowItem@@@std@@@std@@@2@XZ 1001e3b0 f i r2_loader.obj
 0001:0001d3e0       ?resize@?$vector@UFSlideWindowItem@@V?$xalloc@UFSlideWindowItem@@@@@std@@QAEXI@Z 1001e3e0 f i r2_loader.obj
 0001:0001d570       ?resize@?$vector@V?$resptr_core@UShader@@Uresptrcode_shader@@@@V?$xalloc@V?$resptr_core@UShader@@Uresptrcode_shader@@@@@@@std@@QAEXI@Z 1001e570 f i r2_loader.obj
 0001:0001d6c0       ?clear@?$xr_vector@V?$svector@U_D3DVERTEXELEMENT9@@$0EB@@@V?$xalloc@V?$svector@U_D3DVERTEXELEMENT9@@$0EB@@@@@@@QAEXXZ 1001e6c0 f i r2_loader.obj
 0001:0001d700       ?resize@?$vector@V?$svector@U_D3DVERTEXELEMENT9@@$0EB@@@V?$xalloc@V?$svector@U_D3DVERTEXELEMENT9@@$0EB@@@@@@std@@QAEXI@Z 1001e700 f i r2_loader.obj
 0001:0001d890       ?size@?$xr_vector@PAUIDirect3DVertexBuffer9@@V?$xalloc@PAUIDirect3DVertexBuffer9@@@@@@QBEIXZ 1001e890 f i r2_loader.obj
 0001:0001d8b0       ?clear@?$xr_vector@PAUIDirect3DVertexBuffer9@@V?$xalloc@PAUIDirect3DVertexBuffer9@@@@@@QAEXXZ 1001e8b0 f i r2_loader.obj
 0001:0001d8f0       ?resize@?$vector@PAUIDirect3DVertexBuffer9@@V?$xalloc@PAUIDirect3DVertexBuffer9@@@@@std@@QAEXI@Z 1001e8f0 f i r2_loader.obj
 0001:0001da60       ?size@?$xr_vector@PAUIDirect3DIndexBuffer9@@V?$xalloc@PAUIDirect3DIndexBuffer9@@@@@@QBEIXZ 1001ea60 f i r2_loader.obj
 0001:0001da80       ?clear@?$xr_vector@PAUIDirect3DIndexBuffer9@@V?$xalloc@PAUIDirect3DIndexBuffer9@@@@@@QAEXXZ 1001ea80 f i r2_loader.obj
 0001:0001dac0       ?resize@?$vector@PAUIDirect3DIndexBuffer9@@V?$xalloc@PAUIDirect3DIndexBuffer9@@@@@std@@QAEXI@Z 1001eac0 f i r2_loader.obj
 0001:0001dc30       ??0?$svector@U?$_vector3@M@@$05@@QAE@XZ 1001ec30 f i r2_loader.obj
 0001:0001dc50       ?begin@?$svector@U?$_vector3@M@@$05@@QAEPAU?$_vector3@M@@XZ 1001ec50 f i r2_loader.obj
 0001:0001dc60       ?size@?$svector@U?$_vector3@M@@$05@@QBEIXZ 1001ec60 f i r2_loader.obj
 0001:0001dc80       ??A?$svector@U?$_vector3@M@@$05@@QAEAAU?$_vector3@M@@I@Z 1001ec80 f i r2_loader.obj
 0001:0001dca0       ??E?$_Vector_iterator@V?$_Vector_val@U?$_Simple_types@UFSlideWindowItem@@@std@@@std@@@std@@QAEAAV01@XZ 1001eca0 f i r2_loader.obj
 0001:0001dcc0       ??9?$_Vector_const_iterator@V?$_Vector_val@U?$_Simple_types@UFSlideWindowItem@@@std@@@std@@@std@@QBE_NABV01@@Z 1001ecc0 f i r2_loader.obj
 0001:0001dd10       ?clear_and_free@?$xr_vector@PAVIRender_Sector@@V?$xalloc@PAVIRender_Sector@@@@@@QAEXXZ 1001ed10 f i r2_loader.obj
 0001:0001dd50       ?size@?$vector@PAVIRender_Sector@@V?$xalloc@PAVIRender_Sector@@@@@std@@QBEIXZ 1001ed50 f i r2_loader.obj
 0001:0001dd70       ?_Inside@?$vector@PAVIRender_Sector@@V?$xalloc@PAVIRender_Sector@@@@@std@@IBE_NPBQAVIRender_Sector@@@Z 1001ed70 f i r2_loader.obj
 0001:0001ddb0       ?_Reserve@?$vector@PAVIRender_Sector@@V?$xalloc@PAVIRender_Sector@@@@@std@@IAEXI@Z 1001edb0 f i r2_loader.obj
 0001:0001de50       ?_Orphan_range@?$vector@PAVIRender_Sector@@V?$xalloc@PAVIRender_Sector@@@@@std@@IBEXPAPAVIRender_Sector@@0@Z 1001ee50 f i r2_loader.obj
 0001:0001de60       ?clear_and_free@?$xr_vector@PAVIRender_Visual@@V?$xalloc@PAVIRender_Visual@@@@@@QAEXXZ 1001ee60 f i r2_loader.obj
 0001:0001dea0       ?_Pop_back_n@?$vector@PAVIRender_Visual@@V?$xalloc@PAVIRender_Visual@@@@@std@@QAEXI@Z 1001eea0 f i r2_loader.obj
 0001:0001dee0       ?clear_and_free@?$xr_vector@PAVIRender_Portal@@V?$xalloc@PAVIRender_Portal@@@@@@QAEXXZ 1001eee0 f i r2_loader.obj
 0001:0001df20       ?size@?$vector@PAVIRender_Portal@@V?$xalloc@PAVIRender_Portal@@@@@std@@QBEIXZ 1001ef20 f i r2_loader.obj
 0001:0001df40       ?_Pop_back_n@?$vector@PAVIRender_Portal@@V?$xalloc@PAVIRender_Portal@@@@@std@@QAEXI@Z 1001ef40 f i r2_loader.obj
 0001:0001df80       ?_Reserve@?$vector@PAVIRender_Portal@@V?$xalloc@PAVIRender_Portal@@@@@std@@IAEXI@Z 1001ef80 f i r2_loader.obj
 0001:0001e020       ?clear_and_free@?$xr_vector@UFSlideWindowItem@@V?$xalloc@UFSlideWindowItem@@@@@@QAEXXZ 1001f020 f i r2_loader.obj
 0001:0001e060       ?size@?$vector@UFSlideWindowItem@@V?$xalloc@UFSlideWindowItem@@@@@std@@QBEIXZ 1001f060 f i r2_loader.obj
 0001:0001e080       ?erase@?$vector@UFSlideWindowItem@@V?$xalloc@UFSlideWindowItem@@@@@std@@QAE?AV?$_Vector_iterator@V?$_Vector_val@U?$_Simple_types@UFSlideWindowItem@@@std@@@std@@@2@V?$_Vector_const_iterator@V?$_Vector_val@U?$_Simple_types@UFSlideWindowItem@@@std@@@std@@@2@0@Z 1001f080 f i r2_loader.obj
 0001:0001e280       ?_Pop_back_n@?$vector@UFSlideWindowItem@@V?$xalloc@UFSlideWindowItem@@@@@std@@QAEXI@Z 1001f280 f i r2_loader.obj
 0001:0001e2c0       ?_Reserve@?$vector@UFSlideWindowItem@@V?$xalloc@UFSlideWindowItem@@@@@std@@IAEXI@Z 1001f2c0 f i r2_loader.obj
 0001:0001e370       ?_Pop_back_n@?$vector@V?$resptr_core@UShader@@Uresptrcode_shader@@@@V?$xalloc@V?$resptr_core@UShader@@Uresptrcode_shader@@@@@@@std@@QAEXI@Z 1001f370 f i r2_loader.obj
 0001:0001e3b0       ?clear_and_free@?$xr_vector@V?$svector@U_D3DVERTEXELEMENT9@@$0EB@@@V?$xalloc@V?$svector@U_D3DVERTEXELEMENT9@@$0EB@@@@@@@QAEXXZ 1001f3b0 f i r2_loader.obj
 0001:0001e3f0       ?size@?$vector@V?$svector@U_D3DVERTEXELEMENT9@@$0EB@@@V?$xalloc@V?$svector@U_D3DVERTEXELEMENT9@@$0EB@@@@@@std@@QBEIXZ 1001f3f0 f i r2_loader.obj
 0001:0001e410       ?_Pop_back_n@?$vector@V?$svector@U_D3DVERTEXELEMENT9@@$0EB@@@V?$xalloc@V?$svector@U_D3DVERTEXELEMENT9@@$0EB@@@@@@std@@QAEXI@Z 1001f410 f i r2_loader.obj
 0001:0001e450       ?_Reserve@?$vector@V?$svector@U_D3DVERTEXELEMENT9@@$0EB@@@V?$xalloc@V?$svector@U_D3DVERTEXELEMENT9@@$0EB@@@@@@std@@IAEXI@Z 1001f450 f i r2_loader.obj
 0001:0001e500       ?clear_and_free@?$xr_vector@PAUIDirect3DVertexBuffer9@@V?$xalloc@PAUIDirect3DVertexBuffer9@@@@@@QAEXXZ 1001f500 f i r2_loader.obj
 0001:0001e540       ?size@?$vector@PAUIDirect3DVertexBuffer9@@V?$xalloc@PAUIDirect3DVertexBuffer9@@@@@std@@QBEIXZ 1001f540 f i r2_loader.obj
 0001:0001e560       ?_Pop_back_n@?$vector@PAUIDirect3DVertexBuffer9@@V?$xalloc@PAUIDirect3DVertexBuffer9@@@@@std@@QAEXI@Z 1001f560 f i r2_loader.obj
 0001:0001e5a0       ?_Reserve@?$vector@PAUIDirect3DVertexBuffer9@@V?$xalloc@PAUIDirect3DVertexBuffer9@@@@@std@@IAEXI@Z 1001f5a0 f i r2_loader.obj
 0001:0001e640       ?clear_and_free@?$xr_vector@PAUIDirect3DIndexBuffer9@@V?$xalloc@PAUIDirect3DIndexBuffer9@@@@@@QAEXXZ 1001f640 f i r2_loader.obj
 0001:0001e680       ?size@?$vector@PAUIDirect3DIndexBuffer9@@V?$xalloc@PAUIDirect3DIndexBuffer9@@@@@std@@QBEIXZ 1001f680 f i r2_loader.obj
 0001:0001e6a0       ?_Pop_back_n@?$vector@PAUIDirect3DIndexBuffer9@@V?$xalloc@PAUIDirect3DIndexBuffer9@@@@@std@@QAEXI@Z 1001f6a0 f i r2_loader.obj
 0001:0001e6e0       ?_Reserve@?$vector@PAUIDirect3DIndexBuffer9@@V?$xalloc@PAUIDirect3DIndexBuffer9@@@@@std@@IAEXI@Z 1001f6e0 f i r2_loader.obj
 0001:0001e780       ??E?$_Vector_const_iterator@V?$_Vector_val@U?$_Simple_types@UFSlideWindowItem@@@std@@@std@@@std@@QAEAAV01@XZ 1001f780 f i r2_loader.obj
 0001:0001e7a0       ??8?$_Vector_const_iterator@V?$_Vector_val@U?$_Simple_types@UFSlideWindowItem@@@std@@@std@@@std@@QBE_NABV01@@Z 1001f7a0 f i r2_loader.obj
 0001:0001e7d0       ?_Unused_capacity@?$vector@PAVIRender_Sector@@V?$xalloc@PAVIRender_Sector@@@@@std@@QBEIXZ 1001f7d0 f i r2_loader.obj
 0001:0001e7f0       ?max_size@?$vector@PAVIRender_Sector@@V?$xalloc@PAVIRender_Sector@@@@@std@@QBEIXZ 1001f7f0 f i r2_loader.obj
 0001:0001e830       ?clear@?$vector@PAVIRender_Sector@@V?$xalloc@PAVIRender_Sector@@@@@std@@QAEXXZ 1001f830 f i r2_loader.obj
 0001:0001e870       ?_Grow_to@?$vector@PAVIRender_Sector@@V?$xalloc@PAVIRender_Sector@@@@@std@@IBEII@Z 1001f870 f i r2_loader.obj
 0001:0001e900       ?_Reallocate@?$vector@PAVIRender_Sector@@V?$xalloc@PAVIRender_Sector@@@@@std@@IAEXI@Z 1001f900 f i r2_loader.obj
 0001:0001ea90       ?_Xlen@?$vector@PAVIRender_Sector@@V?$xalloc@PAVIRender_Sector@@@@@std@@IBEXXZ 1001fa90 f i r2_loader.obj
 0001:0001eab0       ?clear@?$vector@PAVIRender_Visual@@V?$xalloc@PAVIRender_Visual@@@@@std@@QAEXXZ 1001fab0 f i r2_loader.obj
 0001:0001eaf0       ?_Unused_capacity@?$vector@PAVIRender_Portal@@V?$xalloc@PAVIRender_Portal@@@@@std@@QBEIXZ 1001faf0 f i r2_loader.obj
 0001:0001eb10       ?max_size@?$vector@PAVIRender_Portal@@V?$xalloc@PAVIRender_Portal@@@@@std@@QBEIXZ 1001fb10 f i r2_loader.obj
 0001:0001eb50       ?clear@?$vector@PAVIRender_Portal@@V?$xalloc@PAVIRender_Portal@@@@@std@@QAEXXZ 1001fb50 f i r2_loader.obj
 0001:0001eb90       ?_Grow_to@?$vector@PAVIRender_Portal@@V?$xalloc@PAVIRender_Portal@@@@@std@@IBEII@Z 1001fb90 f i r2_loader.obj
 0001:0001ec20       ?_Reallocate@?$vector@PAVIRender_Portal@@V?$xalloc@PAVIRender_Portal@@@@@std@@IAEXI@Z 1001fc20 f i r2_loader.obj
 0001:0001edb0       ?_Xlen@?$vector@PAVIRender_Portal@@V?$xalloc@PAVIRender_Portal@@@@@std@@IBEXXZ 1001fdb0 f i r2_loader.obj
 0001:0001edd0       ?_Unused_capacity@?$vector@UFSlideWindowItem@@V?$xalloc@UFSlideWindowItem@@@@@std@@QBEIXZ 1001fdd0 f i r2_loader.obj
 0001:0001edf0       ?_Make_iter@?$vector@UFSlideWindowItem@@V?$xalloc@UFSlideWindowItem@@@@@std@@QBE?AV?$_Vector_iterator@V?$_Vector_val@U?$_Simple_types@UFSlideWindowItem@@@std@@@std@@@2@V?$_Vector_const_iterator@V?$_Vector_val@U?$_Simple_types@UFSlideWindowItem@@@std@@@std@@@2@@Z 1001fdf0 f i r2_loader.obj
 0001:0001ee10       ?max_size@?$vector@UFSlideWindowItem@@V?$xalloc@UFSlideWindowItem@@@@@std@@QBEIXZ 1001fe10 f i r2_loader.obj
 0001:0001ee50       ?clear@?$vector@UFSlideWindowItem@@V?$xalloc@UFSlideWindowItem@@@@@std@@QAEXXZ 1001fe50 f i r2_loader.obj
 0001:0001ee90       ?_Grow_to@?$vector@UFSlideWindowItem@@V?$xalloc@UFSlideWindowItem@@@@@std@@IBEII@Z 1001fe90 f i r2_loader.obj
 0001:0001ef20       ?_Reallocate@?$vector@UFSlideWindowItem@@V?$xalloc@UFSlideWindowItem@@@@@std@@IAEXI@Z 1001ff20 f i r2_loader.obj
 0001:0001f0b0       ?_Xlen@?$vector@UFSlideWindowItem@@V?$xalloc@UFSlideWindowItem@@@@@std@@IBEXXZ 100200b0 f i r2_loader.obj
 0001:0001f0d0       ?_Unused_capacity@?$vector@V?$svector@U_D3DVERTEXELEMENT9@@$0EB@@@V?$xalloc@V?$svector@U_D3DVERTEXELEMENT9@@$0EB@@@@@@std@@QBEIXZ 100200d0 f i r2_loader.obj
 0001:0001f0f0       ?max_size@?$vector@V?$svector@U_D3DVERTEXELEMENT9@@$0EB@@@V?$xalloc@V?$svector@U_D3DVERTEXELEMENT9@@$0EB@@@@@@std@@QBEIXZ 100200f0 f i r2_loader.obj
 0001:0001f130       ?clear@?$vector@V?$svector@U_D3DVERTEXELEMENT9@@$0EB@@@V?$xalloc@V?$svector@U_D3DVERTEXELEMENT9@@$0EB@@@@@@std@@QAEXXZ 10020130 f i r2_loader.obj
 0001:0001f170       ?_Grow_to@?$vector@V?$svector@U_D3DVERTEXELEMENT9@@$0EB@@@V?$xalloc@V?$svector@U_D3DVERTEXELEMENT9@@$0EB@@@@@@std@@IBEII@Z 10020170 f i r2_loader.obj
 0001:0001f200       ?_Reallocate@?$vector@V?$svector@U_D3DVERTEXELEMENT9@@$0EB@@@V?$xalloc@V?$svector@U_D3DVERTEXELEMENT9@@$0EB@@@@@@std@@IAEXI@Z 10020200 f i r2_loader.obj
 0001:0001f3a0       ?_Xlen@?$vector@V?$svector@U_D3DVERTEXELEMENT9@@$0EB@@@V?$xalloc@V?$svector@U_D3DVERTEXELEMENT9@@$0EB@@@@@@std@@IBEXXZ 100203a0 f i r2_loader.obj
 0001:0001f3c0       ?_Unused_capacity@?$vector@PAUIDirect3DVertexBuffer9@@V?$xalloc@PAUIDirect3DVertexBuffer9@@@@@std@@QBEIXZ 100203c0 f i r2_loader.obj
 0001:0001f3e0       ?max_size@?$vector@PAUIDirect3DVertexBuffer9@@V?$xalloc@PAUIDirect3DVertexBuffer9@@@@@std@@QBEIXZ 100203e0 f i r2_loader.obj
 0001:0001f420       ?clear@?$vector@PAUIDirect3DVertexBuffer9@@V?$xalloc@PAUIDirect3DVertexBuffer9@@@@@std@@QAEXXZ 10020420 f i r2_loader.obj
 0001:0001f460       ?_Grow_to@?$vector@PAUIDirect3DVertexBuffer9@@V?$xalloc@PAUIDirect3DVertexBuffer9@@@@@std@@IBEII@Z 10020460 f i r2_loader.obj
 0001:0001f4f0       ?_Reallocate@?$vector@PAUIDirect3DVertexBuffer9@@V?$xalloc@PAUIDirect3DVertexBuffer9@@@@@std@@IAEXI@Z 100204f0 f i r2_loader.obj
 0001:0001f680       ?_Xlen@?$vector@PAUIDirect3DVertexBuffer9@@V?$xalloc@PAUIDirect3DVertexBuffer9@@@@@std@@IBEXXZ 10020680 f i r2_loader.obj
 0001:0001f6a0       ?_Unused_capacity@?$vector@PAUIDirect3DIndexBuffer9@@V?$xalloc@PAUIDirect3DIndexBuffer9@@@@@std@@QBEIXZ 100206a0 f i r2_loader.obj
 0001:0001f6c0       ?max_size@?$vector@PAUIDirect3DIndexBuffer9@@V?$xalloc@PAUIDirect3DIndexBuffer9@@@@@std@@QBEIXZ 100206c0 f i r2_loader.obj
 0001:0001f700       ?clear@?$vector@PAUIDirect3DIndexBuffer9@@V?$xalloc@PAUIDirect3DIndexBuffer9@@@@@std@@QAEXXZ 10020700 f i r2_loader.obj
 0001:0001f740       ?_Grow_to@?$vector@PAUIDirect3DIndexBuffer9@@V?$xalloc@PAUIDirect3DIndexBuffer9@@@@@std@@IBEII@Z 10020740 f i r2_loader.obj
 0001:0001f7d0       ?_Reallocate@?$vector@PAUIDirect3DIndexBuffer9@@V?$xalloc@PAUIDirect3DIndexBuffer9@@@@@std@@IAEXI@Z 100207d0 f i r2_loader.obj
 0001:0001f960       ?_Xlen@?$vector@PAUIDirect3DIndexBuffer9@@V?$xalloc@PAUIDirect3DIndexBuffer9@@@@@std@@IBEXXZ 10020960 f i r2_loader.obj
 0001:0001f980       ?_Compat@?$_Vector_const_iterator@V?$_Vector_val@U?$_Simple_types@UFSlideWindowItem@@@std@@@std@@@std@@QBEXABV12@@Z 10020980 f i r2_loader.obj
 0001:0001f990       ?capacity@?$vector@PAVIRender_Sector@@V?$xalloc@PAVIRender_Sector@@@@@std@@QBEIXZ 10020990 f i r2_loader.obj
 0001:0001f9b0       ?allocate@?$_Wrap_alloc@V?$xalloc@PAVIRender_Sector@@@@@std@@QAEPAPAVIRender_Sector@@I@Z 100209b0 f i r2_loader.obj
 0001:0001f9d0       ?max_size@?$_Wrap_alloc@V?$xalloc@PAVIRender_Sector@@@@@std@@QBEIXZ 100209d0 f i r2_loader.obj
 0001:0001fa00       ?capacity@?$vector@PAVIRender_Portal@@V?$xalloc@PAVIRender_Portal@@@@@std@@QBEIXZ 10020a00 f i r2_loader.obj
 0001:0001fa20       ?allocate@?$_Wrap_alloc@V?$xalloc@PAVIRender_Portal@@@@@std@@QAEPAPAVIRender_Portal@@I@Z 10020a20 f i r2_loader.obj
 0001:0001fa40       ?max_size@?$_Wrap_alloc@V?$xalloc@PAVIRender_Portal@@@@@std@@QBEIXZ 10020a40 f i r2_loader.obj
 0001:0001fa70       ?capacity@?$vector@UFSlideWindowItem@@V?$xalloc@UFSlideWindowItem@@@@@std@@QBEIXZ 10020a70 f i r2_loader.obj
 0001:0001fa90       ?allocate@?$_Wrap_alloc@V?$xalloc@UFSlideWindowItem@@@@@std@@QAEPAUFSlideWindowItem@@I@Z 10020a90 f i r2_loader.obj
 0001:0001fab0       ?max_size@?$_Wrap_alloc@V?$xalloc@UFSlideWindowItem@@@@@std@@QBEIXZ 10020ab0 f i r2_loader.obj
 0001:0001fae0       ?capacity@?$vector@V?$svector@U_D3DVERTEXELEMENT9@@$0EB@@@V?$xalloc@V?$svector@U_D3DVERTEXELEMENT9@@$0EB@@@@@@std@@QBEIXZ 10020ae0 f i r2_loader.obj
 0001:0001fb00       ?allocate@?$_Wrap_alloc@V?$xalloc@V?$svector@U_D3DVERTEXELEMENT9@@$0EB@@@@@@std@@QAEPAV?$svector@U_D3DVERTEXELEMENT9@@$0EB@@@I@Z 10020b00 f i r2_loader.obj
 0001:0001fb30       ?max_size@?$_Wrap_alloc@V?$xalloc@V?$svector@U_D3DVERTEXELEMENT9@@$0EB@@@@@@std@@QBEIXZ 10020b30 f i r2_loader.obj
 0001:0001fb60       ?capacity@?$vector@PAUIDirect3DVertexBuffer9@@V?$xalloc@PAUIDirect3DVertexBuffer9@@@@@std@@QBEIXZ 10020b60 f i r2_loader.obj
 0001:0001fb80       ?allocate@?$_Wrap_alloc@V?$xalloc@PAUIDirect3DVertexBuffer9@@@@@std@@QAEPAPAUIDirect3DVertexBuffer9@@I@Z 10020b80 f i r2_loader.obj
 0001:0001fba0       ?max_size@?$_Wrap_alloc@V?$xalloc@PAUIDirect3DVertexBuffer9@@@@@std@@QBEIXZ 10020ba0 f i r2_loader.obj
 0001:0001fbd0       ?capacity@?$vector@PAUIDirect3DIndexBuffer9@@V?$xalloc@PAUIDirect3DIndexBuffer9@@@@@std@@QBEIXZ 10020bd0 f i r2_loader.obj
 0001:0001fbf0       ?allocate@?$_Wrap_alloc@V?$xalloc@PAUIDirect3DIndexBuffer9@@@@@std@@QAEPAPAUIDirect3DIndexBuffer9@@I@Z 10020bf0 f i r2_loader.obj
 0001:0001fc10       ?max_size@?$_Wrap_alloc@V?$xalloc@PAUIDirect3DIndexBuffer9@@@@@std@@QBEIXZ 10020c10 f i r2_loader.obj
 0001:0001fc40       ?allocate@?$xalloc@PAVIRender_Sector@@@@QBEPAPAVIRender_Sector@@IPBX@Z 10020c40 f i r2_loader.obj
 0001:0001fc60       ?max_size@?$allocator_traits@V?$xalloc@PAVIRender_Sector@@@@@std@@SAIABV?$xalloc@PAVIRender_Sector@@@@@Z 10020c60 f i r2_loader.obj
 0001:0001fc90       ?allocate@?$xalloc@PAVIRender_Portal@@@@QBEPAPAVIRender_Portal@@IPBX@Z 10020c90 f i r2_loader.obj
 0001:0001fcb0       ?max_size@?$allocator_traits@V?$xalloc@PAVIRender_Portal@@@@@std@@SAIABV?$xalloc@PAVIRender_Portal@@@@@Z 10020cb0 f i r2_loader.obj
 0001:0001fce0       ?allocate@?$xalloc@UFSlideWindowItem@@@@QBEPAUFSlideWindowItem@@IPBX@Z 10020ce0 f i r2_loader.obj
 0001:0001fd00       ?max_size@?$allocator_traits@V?$xalloc@UFSlideWindowItem@@@@@std@@SAIABV?$xalloc@UFSlideWindowItem@@@@@Z 10020d00 f i r2_loader.obj
 0001:0001fd30       ?allocate@?$xalloc@V?$svector@U_D3DVERTEXELEMENT9@@$0EB@@@@@QBEPAV?$svector@U_D3DVERTEXELEMENT9@@$0EB@@@IPBX@Z 10020d30 f i r2_loader.obj
 0001:0001fd60       ?max_size@?$allocator_traits@V?$xalloc@V?$svector@U_D3DVERTEXELEMENT9@@$0EB@@@@@@std@@SAIABV?$xalloc@V?$svector@U_D3DVERTEXELEMENT9@@$0EB@@@@@@Z 10020d60 f i r2_loader.obj
 0001:0001fd90       ?allocate@?$xalloc@PAUIDirect3DVertexBuffer9@@@@QBEPAPAUIDirect3DVertexBuffer9@@IPBX@Z 10020d90 f i r2_loader.obj
 0001:0001fdb0       ?max_size@?$allocator_traits@V?$xalloc@PAUIDirect3DVertexBuffer9@@@@@std@@SAIABV?$xalloc@PAUIDirect3DVertexBuffer9@@@@@Z 10020db0 f i r2_loader.obj
 0001:0001fde0       ?allocate@?$xalloc@PAUIDirect3DIndexBuffer9@@@@QBEPAPAUIDirect3DIndexBuffer9@@IPBX@Z 10020de0 f i r2_loader.obj
 0001:0001fe00       ?max_size@?$allocator_traits@V?$xalloc@PAUIDirect3DIndexBuffer9@@@@@std@@SAIABV?$xalloc@PAUIDirect3DIndexBuffer9@@@@@Z 10020e00 f i r2_loader.obj
 0001:0001fe30       ??$xr_new@VCWallmarksEngine@@@@YAPAVCWallmarksEngine@@XZ 10020e30 f i r2_loader.obj
 0001:0001fe80       ??$xr_new@Vrain_timer_params@@@@YAPAVrain_timer_params@@XZ 10020e80 f i r2_loader.obj
 0001:0001fed0       ??$xr_delete@VMODEL@CDB@@@@YAXAAPAVMODEL@CDB@@@Z 10020ed0 f i r2_loader.obj
 0001:0001ff30       ??$xr_delete@VIRender_Sector@@@@YAXAAPAVIRender_Sector@@@Z 10020f30 f i r2_loader.obj
 0001:0001ff90       ??$xr_delete@VIRender_Portal@@@@YAXAAPAVIRender_Portal@@@Z 10020f90 f i r2_loader.obj
 0001:0001fff0       ??$xr_delete@VIRender_Visual@@@@YAXAAPAVIRender_Visual@@@Z 10020ff0 f i r2_loader.obj
 0001:00020050       ??$xr_free@UFSlideWindow@@@@YAXAAPAUFSlideWindow@@@Z 10021050 f i r2_loader.obj
 0001:00020080       ??$xr_delete@Vrain_timer_params@@@@YAXAAPAVrain_timer_params@@@Z 10021080 f i r2_loader.obj
 0001:000200b0       ??$xr_delete@VCWallmarksEngine@@@@YAXAAPAVCWallmarksEngine@@@Z 100210b0 f i r2_loader.obj
 0001:00020110       ??$xr_new@VCPortal@@@@YAPAVCPortal@@XZ 10021110 f i r2_loader.obj
 0001:00020160       ??$xr_new@VCSector@@@@YAPAVCSector@@XZ 10021160 f i r2_loader.obj
 0001:000201b0       ??$xr_new@VMODEL@CDB@@@@YAPAVMODEL@CDB@@XZ 100211b0 f i r2_loader.obj
 0001:00020200       ??$xr_alloc@UFSlideWindow@@@@YAPAUFSlideWindow@@I@Z 10021200 f i r2_loader.obj
 0001:00020220       ??$addressof@QAVIRender_Sector@@@std@@YAPBQAVIRender_Sector@@ABQAV1@@Z 10021220 f i r2_loader.obj
 0001:00020230       ??$construct@PAVIRender_Sector@@AAPAV1@@?$_Wrap_alloc@V?$xalloc@PAVIRender_Sector@@@@@std@@QAEXPAPAVIRender_Sector@@AAPAV2@@Z 10021230 f i r2_loader.obj
 0001:00020280       ??$construct@PAVIRender_Sector@@ABQAV1@@?$_Wrap_alloc@V?$xalloc@PAVIRender_Sector@@@@@std@@QAEXPAPAVIRender_Sector@@ABQAV2@@Z 10021280 f i r2_loader.obj
 0001:000202d0       ??$_Uninitialized_default_fill_n@PAPAVIRender_Visual@@IU?$_Wrap_alloc@V?$xalloc@PAVIRender_Visual@@@@@std@@@std@@YAXPAPAVIRender_Visual@@IAAU?$_Wrap_alloc@V?$xalloc@PAVIRender_Visual@@@@@0@@Z 100212d0 f i r2_loader.obj
 0001:00020320       ??$_Uninitialized_default_fill_n@PAPAVIRender_Portal@@IU?$_Wrap_alloc@V?$xalloc@PAVIRender_Portal@@@@@std@@@std@@YAXPAPAVIRender_Portal@@IAAU?$_Wrap_alloc@V?$xalloc@PAVIRender_Portal@@@@@0@@Z 10021320 f i r2_loader.obj
 0001:00020360       ??$_Uninitialized_default_fill_n@PAUFSlideWindowItem@@IU?$_Wrap_alloc@V?$xalloc@UFSlideWindowItem@@@@@std@@@std@@YAXPAUFSlideWindowItem@@IAAU?$_Wrap_alloc@V?$xalloc@UFSlideWindowItem@@@@@0@@Z 10021360 f i r2_loader.obj
 0001:000203a0       ??$_Uninitialized_default_fill_n@PAV?$resptr_core@UShader@@Uresptrcode_shader@@@@IU?$_Wrap_alloc@V?$xalloc@V?$resptr_core@UShader@@Uresptrcode_shader@@@@@@@std@@@std@@YAXPAV?$resptr_core@UShader@@Uresptrcode_shader@@@@IAAU?$_Wrap_alloc@V?$xalloc@V?$resptr_core@UShader@@Uresptrcode_shader@@@@@@@0@@Z 100213a0 f i r2_loader.obj
 0001:000203e0       ??$_Uninitialized_default_fill_n@PAV?$svector@U_D3DVERTEXELEMENT9@@$0EB@@@IU?$_Wrap_alloc@V?$xalloc@V?$svector@U_D3DVERTEXELEMENT9@@$0EB@@@@@@std@@@std@@YAXPAV?$svector@U_D3DVERTEXELEMENT9@@$0EB@@@IAAU?$_Wrap_alloc@V?$xalloc@V?$svector@U_D3DVERTEXELEMENT9@@$0EB@@@@@@0@@Z 100213e0 f i r2_loader.obj
 0001:00020420       ??$_Uninitialized_default_fill_n@PAPAUIDirect3DVertexBuffer9@@IU?$_Wrap_alloc@V?$xalloc@PAUIDirect3DVertexBuffer9@@@@@std@@@std@@YAXPAPAUIDirect3DVertexBuffer9@@IAAU?$_Wrap_alloc@V?$xalloc@PAUIDirect3DVertexBuffer9@@@@@0@@Z 10021420 f i r2_loader.obj
 0001:00020460       ??$_Uninitialized_default_fill_n@PAPAUIDirect3DIndexBuffer9@@IU?$_Wrap_alloc@V?$xalloc@PAUIDirect3DIndexBuffer9@@@@@std@@@std@@YAXPAPAUIDirect3DIndexBuffer9@@IAAU?$_Wrap_alloc@V?$xalloc@PAUIDirect3DIndexBuffer9@@@@@0@@Z 10021460 f i r2_loader.obj
 0001:000204a0       ??$_Move@PAUFSlideWindowItem@@PAU1@@std@@YAPAUFSlideWindowItem@@PAU1@00@Z 100214a0 f i r2_loader.obj
 0001:00020510       ??$_Umove@PAPAVIRender_Sector@@@?$vector@PAVIRender_Sector@@V?$xalloc@PAVIRender_Sector@@@@@std@@IAEPAPAVIRender_Sector@@PAPAV2@00@Z 10021510 f i r2_loader.obj
 0001:00020580       ??$_Umove@PAPAVIRender_Portal@@@?$vector@PAVIRender_Portal@@V?$xalloc@PAVIRender_Portal@@@@@std@@IAEPAPAVIRender_Portal@@PAPAV2@00@Z 10021580 f i r2_loader.obj
 0001:000205f0       ??$_Umove@PAUFSlideWindowItem@@@?$vector@UFSlideWindowItem@@V?$xalloc@UFSlideWindowItem@@@@@std@@IAEPAUFSlideWindowItem@@PAU2@00@Z 100215f0 f i r2_loader.obj
 0001:00020650       ??$_Umove@PAV?$svector@U_D3DVERTEXELEMENT9@@$0EB@@@@?$vector@V?$svector@U_D3DVERTEXELEMENT9@@$0EB@@@V?$xalloc@V?$svector@U_D3DVERTEXELEMENT9@@$0EB@@@@@@std@@IAEPAV?$svector@U_D3DVERTEXELEMENT9@@$0EB@@@PAV2@00@Z 10021650 f i r2_loader.obj
 0001:000206b0       ??$_Umove@PAPAUIDirect3DVertexBuffer9@@@?$vector@PAUIDirect3DVertexBuffer9@@V?$xalloc@PAUIDirect3DVertexBuffer9@@@@@std@@IAEPAPAUIDirect3DVertexBuffer9@@PAPAU2@00@Z 100216b0 f i r2_loader.obj
 0001:00020720       ??$_Umove@PAPAUIDirect3DIndexBuffer9@@@?$vector@PAUIDirect3DIndexBuffer9@@V?$xalloc@PAUIDirect3DIndexBuffer9@@@@@std@@IAEPAPAUIDirect3DIndexBuffer9@@PAPAU2@00@Z 10021720 f i r2_loader.obj
 0001:00020790       ??$xr_alloc@PAVIRender_Sector@@@@YAPAPAVIRender_Sector@@I@Z 10021790 f i r2_loader.obj
 0001:000207b0       ??$_Fn@V?$xalloc@PAVIRender_Sector@@@@@_Alloc_max_size@std@@SAIHABV?$xalloc@PAVIRender_Sector@@@@@Z 100217b0 f i r2_loader.obj
 0001:000207e0       ??$xr_alloc@PAVIRender_Portal@@@@YAPAPAVIRender_Portal@@I@Z 100217e0 f i r2_loader.obj
 0001:00020800       ??$_Fn@V?$xalloc@PAVIRender_Portal@@@@@_Alloc_max_size@std@@SAIHABV?$xalloc@PAVIRender_Portal@@@@@Z 10021800 f i r2_loader.obj
 0001:00020830       ??$xr_alloc@UFSlideWindowItem@@@@YAPAUFSlideWindowItem@@I@Z 10021830 f i r2_loader.obj
 0001:00020850       ??$_Fn@V?$xalloc@UFSlideWindowItem@@@@@_Alloc_max_size@std@@SAIHABV?$xalloc@UFSlideWindowItem@@@@@Z 10021850 f i r2_loader.obj
 0001:00020880       ??$xr_alloc@V?$svector@U_D3DVERTEXELEMENT9@@$0EB@@@@@YAPAV?$svector@U_D3DVERTEXELEMENT9@@$0EB@@@I@Z 10021880 f i r2_loader.obj
 0001:000208a0       ??$_Fn@V?$xalloc@V?$svector@U_D3DVERTEXELEMENT9@@$0EB@@@@@@_Alloc_max_size@std@@SAIHABV?$xalloc@V?$svector@U_D3DVERTEXELEMENT9@@$0EB@@@@@@Z 100218a0 f i r2_loader.obj
 0001:000208d0       ??$xr_alloc@PAUIDirect3DVertexBuffer9@@@@YAPAPAUIDirect3DVertexBuffer9@@I@Z 100218d0 f i r2_loader.obj
 0001:000208f0       ??$_Fn@V?$xalloc@PAUIDirect3DVertexBuffer9@@@@@_Alloc_max_size@std@@SAIHABV?$xalloc@PAUIDirect3DVertexBuffer9@@@@@Z 100218f0 f i r2_loader.obj
 0001:00020920       ??$xr_alloc@PAUIDirect3DIndexBuffer9@@@@YAPAPAUIDirect3DIndexBuffer9@@I@Z 10021920 f i r2_loader.obj
 0001:00020940       ??$_Fn@V?$xalloc@PAUIDirect3DIndexBuffer9@@@@@_Alloc_max_size@std@@SAIHABV?$xalloc@PAUIDirect3DIndexBuffer9@@@@@Z 10021940 f i r2_loader.obj
 0001:00020970       ?max_size@?$xalloc@PAVIRender_Sector@@@@QBEIXZ 10021970 f i r2_loader.obj
 0001:000209a0       ?max_size@?$xalloc@PAVIRender_Portal@@@@QBEIXZ 100219a0 f i r2_loader.obj
 0001:000209d0       ?max_size@?$xalloc@UFSlideWindowItem@@@@QBEIXZ 100219d0 f i r2_loader.obj
 0001:00020a00       ?max_size@?$xalloc@V?$svector@U_D3DVERTEXELEMENT9@@$0EB@@@@@QBEIXZ 10021a00 f i r2_loader.obj
 0001:00020a30       ?max_size@?$xalloc@PAUIDirect3DVertexBuffer9@@@@QBEIXZ 10021a30 f i r2_loader.obj
 0001:00020a60       ?max_size@?$xalloc@PAUIDirect3DIndexBuffer9@@@@QBEIXZ 10021a60 f i r2_loader.obj
 0001:00020a90       ??R?$xr_special_free@$0A@VMODEL@CDB@@@@QAEXAAPAVMODEL@CDB@@@Z 10021a90 f i r2_loader.obj
 0001:00020ae0       ??R?$xr_special_free@$00VIRender_Sector@@@@QAEXAAPAVIRender_Sector@@@Z 10021ae0 f i r2_loader.obj
 0001:00020b30       ??R?$xr_special_free@$00VIRender_Portal@@@@QAEXAAPAVIRender_Portal@@@Z 10021b30 f i r2_loader.obj
 0001:00020b80       ??R?$xr_special_free@$00VIRender_Visual@@@@QAEXAAPAVIRender_Visual@@@Z 10021b80 f i r2_loader.obj
 0001:00020bd0       ??R?$xr_special_free@$0A@Vrain_timer_params@@@@QAEXAAPAVrain_timer_params@@@Z 10021bd0 f i r2_loader.obj
 0001:00020bf0       ??R?$xr_special_free@$0A@VCWallmarksEngine@@@@QAEXAAPAVCWallmarksEngine@@@Z 10021bf0 f i r2_loader.obj
 0001:00020c40       ??_GMODEL@CDB@@QAEPAXI@Z   10021c40 f i r2_loader.obj
 0001:00020c70       ??_GCWallmarksEngine@@QAEPAXI@Z 10021c70 f i r2_loader.obj
 0001:00020ca0       ??$forward@AAPAVIRender_Sector@@@std@@YAAAPAVIRender_Sector@@AAPAV1@@Z 10021ca0 f i r2_loader.obj
 0001:00020cb0       ??$construct@PAVIRender_Sector@@AAPAV1@@?$allocator_traits@V?$xalloc@PAVIRender_Sector@@@@@std@@SAXAAV?$xalloc@PAVIRender_Sector@@@@PAPAVIRender_Sector@@AAPAV3@@Z 10021cb0 f i r2_loader.obj
 0001:00020cf0       ??$forward@ABQAVIRender_Sector@@@std@@YAABQAVIRender_Sector@@ABQAV1@@Z 10021cf0 f i r2_loader.obj
 0001:00020d00       ??$construct@PAVIRender_Sector@@ABQAV1@@?$allocator_traits@V?$xalloc@PAVIRender_Sector@@@@@std@@SAXAAV?$xalloc@PAVIRender_Sector@@@@PAPAVIRender_Sector@@ABQAV3@@Z 10021d00 f i r2_loader.obj
 0001:00020d40       ??$_Uninit_def_fill_n@PAPAVIRender_Visual@@IV?$xalloc@PAVIRender_Visual@@@@PAV1@@std@@YAXPAPAVIRender_Visual@@IAAU?$_Wrap_alloc@V?$xalloc@PAVIRender_Visual@@@@@0@0U_Scalar_ptr_iterator_tag@0@@Z 10021d40 f i r2_loader.obj
 0001:00020d70       ??$_Val_type@PAPAVIRender_Portal@@@std@@YAPAPAVIRender_Portal@@PAPAV1@@Z 10021d70 f i r2_loader.obj
 0001:00020d80       ??$_Uninit_def_fill_n@PAPAVIRender_Portal@@IV?$xalloc@PAVIRender_Portal@@@@PAV1@@std@@YAXPAPAVIRender_Portal@@IAAU?$_Wrap_alloc@V?$xalloc@PAVIRender_Portal@@@@@0@0U_Scalar_ptr_iterator_tag@0@@Z 10021d80 f i r2_loader.obj
 0001:00020db0       ??$_Val_type@PAUFSlideWindowItem@@@std@@YAPAUFSlideWindowItem@@PAU1@@Z 10021db0 f i r2_loader.obj
 0001:00020dc0       ??$_Uninit_def_fill_n@PAUFSlideWindowItem@@IV?$xalloc@UFSlideWindowItem@@@@U1@@std@@YAXPAUFSlideWindowItem@@IAAU?$_Wrap_alloc@V?$xalloc@UFSlideWindowItem@@@@@0@0U_Nonscalar_ptr_iterator_tag@0@@Z 10021dc0 f i r2_loader.obj
 0001:00020e70       ??$_Uninit_def_fill_n@PAV?$resptr_core@UShader@@Uresptrcode_shader@@@@IV?$xalloc@V?$resptr_core@UShader@@Uresptrcode_shader@@@@@@V1@@std@@YAXPAV?$resptr_core@UShader@@Uresptrcode_shader@@@@IAAU?$_Wrap_alloc@V?$xalloc@V?$resptr_core@UShader@@Uresptrcode_shader@@@@@@@0@0U_Nonscalar_ptr_iterator_tag@0@@Z 10021e70 f i r2_loader.obj
 0001:00020f20       ??$_Val_type@PAV?$svector@U_D3DVERTEXELEMENT9@@$0EB@@@@std@@YAPAV?$svector@U_D3DVERTEXELEMENT9@@$0EB@@@PAV1@@Z 10021f20 f i r2_loader.obj
 0001:00020f30       ??$_Uninit_def_fill_n@PAV?$svector@U_D3DVERTEXELEMENT9@@$0EB@@@IV?$xalloc@V?$svector@U_D3DVERTEXELEMENT9@@$0EB@@@@@V1@@std@@YAXPAV?$svector@U_D3DVERTEXELEMENT9@@$0EB@@@IAAU?$_Wrap_alloc@V?$xalloc@V?$svector@U_D3DVERTEXELEMENT9@@$0EB@@@@@@0@0U_Nonscalar_ptr_iterator_tag@0@@Z 10021f30 f i r2_loader.obj
 0001:00021010       ??$_Val_type@PAPAUIDirect3DVertexBuffer9@@@std@@YAPAPAUIDirect3DVertexBuffer9@@PAPAU1@@Z 10022010 f i r2_loader.obj
 0001:00021020       ??$_Uninit_def_fill_n@PAPAUIDirect3DVertexBuffer9@@IV?$xalloc@PAUIDirect3DVertexBuffer9@@@@PAU1@@std@@YAXPAPAUIDirect3DVertexBuffer9@@IAAU?$_Wrap_alloc@V?$xalloc@PAUIDirect3DVertexBuffer9@@@@@0@0U_Scalar_ptr_iterator_tag@0@@Z 10022020 f i r2_loader.obj
 0001:00021050       ??$_Val_type@PAPAUIDirect3DIndexBuffer9@@@std@@YAPAPAUIDirect3DIndexBuffer9@@PAPAU1@@Z 10022050 f i r2_loader.obj
 0001:00021060       ??$_Uninit_def_fill_n@PAPAUIDirect3DIndexBuffer9@@IV?$xalloc@PAUIDirect3DIndexBuffer9@@@@PAU1@@std@@YAXPAPAUIDirect3DIndexBuffer9@@IAAU?$_Wrap_alloc@V?$xalloc@PAUIDirect3DIndexBuffer9@@@@@0@0U_Scalar_ptr_iterator_tag@0@@Z 10022060 f i r2_loader.obj
 0001:00021090       ??$_Move@PAUFSlideWindowItem@@PAU1@@std@@YAPAUFSlideWindowItem@@PAU1@00U_Nonscalar_ptr_iterator_tag@0@@Z 10022090 f i r2_loader.obj
 0001:000210e0       ??$_Uninitialized_move@PAPAVIRender_Sector@@PAPAV1@U?$_Wrap_alloc@V?$xalloc@PAVIRender_Sector@@@@@std@@@std@@YAPAPAVIRender_Sector@@PAPAV1@00AAU?$_Wrap_alloc@V?$xalloc@PAVIRender_Sector@@@@@0@@Z 100220e0 f i r2_loader.obj
 0001:00021130       ??$_Uninitialized_move@PAPAVIRender_Portal@@PAPAV1@U?$_Wrap_alloc@V?$xalloc@PAVIRender_Portal@@@@@std@@@std@@YAPAPAVIRender_Portal@@PAPAV1@00AAU?$_Wrap_alloc@V?$xalloc@PAVIRender_Portal@@@@@0@@Z 10022130 f i r2_loader.obj
 0001:00021180       ??$_Uninitialized_move@PAUFSlideWindowItem@@PAU1@U?$_Wrap_alloc@V?$xalloc@UFSlideWindowItem@@@@@std@@@std@@YAPAUFSlideWindowItem@@PAU1@00AAU?$_Wrap_alloc@V?$xalloc@UFSlideWindowItem@@@@@0@@Z 10022180 f i r2_loader.obj
 0001:000211d0       ??$_Uninitialized_move@PAV?$svector@U_D3DVERTEXELEMENT9@@$0EB@@@PAV1@U?$_Wrap_alloc@V?$xalloc@V?$svector@U_D3DVERTEXELEMENT9@@$0EB@@@@@@std@@@std@@YAPAV?$svector@U_D3DVERTEXELEMENT9@@$0EB@@@PAV1@00AAU?$_Wrap_alloc@V?$xalloc@V?$svector@U_D3DVERTEXELEMENT9@@$0EB@@@@@@0@@Z 100221d0 f i r2_loader.obj
 0001:00021220       ??$_Uninitialized_move@PAPAUIDirect3DVertexBuffer9@@PAPAU1@U?$_Wrap_alloc@V?$xalloc@PAUIDirect3DVertexBuffer9@@@@@std@@@std@@YAPAPAUIDirect3DVertexBuffer9@@PAPAU1@00AAU?$_Wrap_alloc@V?$xalloc@PAUIDirect3DVertexBuffer9@@@@@0@@Z 10022220 f i r2_loader.obj
 0001:00021270       ??$_Uninitialized_move@PAPAUIDirect3DIndexBuffer9@@PAPAU1@U?$_Wrap_alloc@V?$xalloc@PAUIDirect3DIndexBuffer9@@@@@std@@@std@@YAPAPAUIDirect3DIndexBuffer9@@PAPAU1@00AAU?$_Wrap_alloc@V?$xalloc@PAUIDirect3DIndexBuffer9@@@@@0@@Z 10022270 f i r2_loader.obj
 0001:000212c0       ?construct@?$_Wrap_alloc@V?$xalloc@UFSlideWindowItem@@@@@std@@QAEXPAUFSlideWindowItem@@@Z 100222c0 f i r2_loader.obj
 0001:000212e0       ?construct@?$_Wrap_alloc@V?$xalloc@V?$resptr_core@UShader@@Uresptrcode_shader@@@@@@@std@@QAEXPAV?$resptr_core@UShader@@Uresptrcode_shader@@@@@Z 100222e0 f i r2_loader.obj
 0001:00021300       ?construct@?$_Wrap_alloc@V?$xalloc@V?$svector@U_D3DVERTEXELEMENT9@@$0EB@@@@@@std@@QAEXPAV?$svector@U_D3DVERTEXELEMENT9@@$0EB@@@@Z 10022300 f i r2_loader.obj
 0001:00021350       ??$_Fn@V?$xalloc@PAVIRender_Sector@@@@PAVIRender_Sector@@AAPAV2@@_Alloc_construct@std@@SAXHAAV?$xalloc@PAVIRender_Sector@@@@PAPAVIRender_Sector@@AAPAV3@@Z 10022350 f i r2_loader.obj
 0001:00021390       ??$_Fn@V?$xalloc@PAVIRender_Sector@@@@PAVIRender_Sector@@ABQAV2@@_Alloc_construct@std@@SAXHAAV?$xalloc@PAVIRender_Sector@@@@PAPAVIRender_Sector@@ABQAV3@@Z 10022390 f i r2_loader.obj
 0001:000213d0       ??$_Uninit_def_fill_n@PAPAVIRender_Visual@@IV?$xalloc@PAVIRender_Visual@@@@PAV1@@std@@YAXPAPAVIRender_Visual@@IAAU?$_Wrap_alloc@V?$xalloc@PAVIRender_Visual@@@@@0@0U_Nonscalar_ptr_iterator_tag@0@@Z 100223d0 f i r2_loader.obj
 0001:000214b0       ??$_Uninit_def_fill_n@PAPAVIRender_Portal@@IV?$xalloc@PAVIRender_Portal@@@@PAV1@@std@@YAXPAPAVIRender_Portal@@IAAU?$_Wrap_alloc@V?$xalloc@PAVIRender_Portal@@@@@0@0U_Nonscalar_ptr_iterator_tag@0@@Z 100224b0 f i r2_loader.obj
 0001:00021580       ??$_Uninit_def_fill_n@PAPAUIDirect3DVertexBuffer9@@IV?$xalloc@PAUIDirect3DVertexBuffer9@@@@PAU1@@std@@YAXPAPAUIDirect3DVertexBuffer9@@IAAU?$_Wrap_alloc@V?$xalloc@PAUIDirect3DVertexBuffer9@@@@@0@0U_Nonscalar_ptr_iterator_tag@0@@Z 10022580 f i r2_loader.obj
 0001:00021650       ??$_Uninit_def_fill_n@PAPAUIDirect3DIndexBuffer9@@IV?$xalloc@PAUIDirect3DIndexBuffer9@@@@PAU1@@std@@YAXPAPAUIDirect3DIndexBuffer9@@IAAU?$_Wrap_alloc@V?$xalloc@PAUIDirect3DIndexBuffer9@@@@@0@0U_Nonscalar_ptr_iterator_tag@0@@Z 10022650 f i r2_loader.obj
 0001:00021720       ??$move@AAUFSlideWindowItem@@@std@@YA$$QAUFSlideWindowItem@@AAU1@@Z 10022720 f i r2_loader.obj
 0001:00021730       ??$_Unchecked@PAPAVIRender_Sector@@@std@@YAPAPAVIRender_Sector@@PAPAV1@@Z 10022730 f i r2_loader.obj
 0001:00021740       ??$_Uninit_move@PAPAVIRender_Sector@@PAPAV1@U?$_Wrap_alloc@V?$xalloc@PAVIRender_Sector@@@@@std@@@std@@YAPAPAVIRender_Sector@@PAPAV1@00AAU?$_Wrap_alloc@V?$xalloc@PAVIRender_Sector@@@@@0@@Z 10022740 f i r2_loader.obj
 0001:00021780       ??$_Rechecked@PAPAVIRender_Sector@@PAPAV1@@std@@YAAAPAPAVIRender_Sector@@AAPAPAV1@PAPAV1@@Z 10022780 f i r2_loader.obj
 0001:00021790       ??$_Unchecked@PAPAVIRender_Portal@@@std@@YAPAPAVIRender_Portal@@PAPAV1@@Z 10022790 f i r2_loader.obj
 0001:000217a0       ??$_Uninit_move@PAPAVIRender_Portal@@PAPAV1@U?$_Wrap_alloc@V?$xalloc@PAVIRender_Portal@@@@@std@@@std@@YAPAPAVIRender_Portal@@PAPAV1@00AAU?$_Wrap_alloc@V?$xalloc@PAVIRender_Portal@@@@@0@@Z 100227a0 f i r2_loader.obj
 0001:000217e0       ??$_Rechecked@PAPAVIRender_Portal@@PAPAV1@@std@@YAAAPAPAVIRender_Portal@@AAPAPAV1@PAPAV1@@Z 100227e0 f i r2_loader.obj
 0001:000217f0       ??$_Unchecked@PAUFSlideWindowItem@@@std@@YAPAUFSlideWindowItem@@PAU1@@Z 100227f0 f i r2_loader.obj
 0001:00021800       ??$_Uninit_move@PAUFSlideWindowItem@@PAU1@U?$_Wrap_alloc@V?$xalloc@UFSlideWindowItem@@@@@std@@@std@@YAPAUFSlideWindowItem@@PAU1@00AAU?$_Wrap_alloc@V?$xalloc@UFSlideWindowItem@@@@@0@@Z 10022800 f i r2_loader.obj
 0001:00021840       ??$_Rechecked@PAUFSlideWindowItem@@PAU1@@std@@YAAAPAUFSlideWindowItem@@AAPAU1@PAU1@@Z 10022840 f i r2_loader.obj
 0001:00021850       ??$_Unchecked@PAV?$svector@U_D3DVERTEXELEMENT9@@$0EB@@@@std@@YAPAV?$svector@U_D3DVERTEXELEMENT9@@$0EB@@@PAV1@@Z 10022850 f i r2_loader.obj
 0001:00021860       ??$_Uninit_move@PAV?$svector@U_D3DVERTEXELEMENT9@@$0EB@@@PAV1@U?$_Wrap_alloc@V?$xalloc@V?$svector@U_D3DVERTEXELEMENT9@@$0EB@@@@@@std@@@std@@YAPAV?$svector@U_D3DVERTEXELEMENT9@@$0EB@@@PAV1@00AAU?$_Wrap_alloc@V?$xalloc@V?$svector@U_D3DVERTEXELEMENT9@@$0EB@@@@@@0@@Z 10022860 f i r2_loader.obj
 0001:000218a0       ??$_Rechecked@PAV?$svector@U_D3DVERTEXELEMENT9@@$0EB@@@PAV1@@std@@YAAAPAV?$svector@U_D3DVERTEXELEMENT9@@$0EB@@@AAPAV1@PAV1@@Z 100228a0 f i r2_loader.obj
 0001:000218b0       ??$_Unchecked@PAPAUIDirect3DVertexBuffer9@@@std@@YAPAPAUIDirect3DVertexBuffer9@@PAPAU1@@Z 100228b0 f i r2_loader.obj
 0001:000218c0       ??$_Uninit_move@PAPAUIDirect3DVertexBuffer9@@PAPAU1@U?$_Wrap_alloc@V?$xalloc@PAUIDirect3DVertexBuffer9@@@@@std@@@std@@YAPAPAUIDirect3DVertexBuffer9@@PAPAU1@00AAU?$_Wrap_alloc@V?$xalloc@PAUIDirect3DVertexBuffer9@@@@@0@@Z 100228c0 f i r2_loader.obj
 0001:00021900       ??$_Rechecked@PAPAUIDirect3DVertexBuffer9@@PAPAU1@@std@@YAAAPAPAUIDirect3DVertexBuffer9@@AAPAPAU1@PAPAU1@@Z 10022900 f i r2_loader.obj
 0001:00021910       ??$_Unchecked@PAPAUIDirect3DIndexBuffer9@@@std@@YAPAPAUIDirect3DIndexBuffer9@@PAPAU1@@Z 10022910 f i r2_loader.obj
 0001:00021920       ??$_Uninit_move@PAPAUIDirect3DIndexBuffer9@@PAPAU1@U?$_Wrap_alloc@V?$xalloc@PAUIDirect3DIndexBuffer9@@@@@std@@@std@@YAPAPAUIDirect3DIndexBuffer9@@PAPAU1@00AAU?$_Wrap_alloc@V?$xalloc@PAUIDirect3DIndexBuffer9@@@@@0@@Z 10022920 f i r2_loader.obj
 0001:00021960       ??$_Rechecked@PAPAUIDirect3DIndexBuffer9@@PAPAU1@@std@@YAAAPAPAUIDirect3DIndexBuffer9@@AAPAPAU1@PAPAU1@@Z 10022960 f i r2_loader.obj
 0001:00021970       ??$construct@UFSlideWindowItem@@$$$V@?$allocator_traits@V?$xalloc@UFSlideWindowItem@@@@@std@@SAXAAV?$xalloc@UFSlideWindowItem@@@@PAUFSlideWindowItem@@@Z 10022970 f i r2_loader.obj
 0001:000219b0       ??$construct@V?$resptr_core@UShader@@Uresptrcode_shader@@@@$$$V@?$allocator_traits@V?$xalloc@V?$resptr_core@UShader@@Uresptrcode_shader@@@@@@@std@@SAXAAV?$xalloc@V?$resptr_core@UShader@@Uresptrcode_shader@@@@@@PAV?$resptr_core@UShader@@Uresptrcode_shader@@@@@Z 100229b0 f i r2_loader.obj
 0001:000219f0       ??$construct@V?$svector@U_D3DVERTEXELEMENT9@@$0EB@@@$$$V@?$allocator_traits@V?$xalloc@V?$svector@U_D3DVERTEXELEMENT9@@$0EB@@@@@@std@@SAXAAV?$xalloc@V?$svector@U_D3DVERTEXELEMENT9@@$0EB@@@@@PAV?$svector@U_D3DVERTEXELEMENT9@@$0EB@@@@Z 100229f0 f i r2_loader.obj
 0001:00021a40       ?construct@?$xalloc@PAVIRender_Sector@@@@QAEXPAPAVIRender_Sector@@ABQAV2@@Z 10022a40 f i r2_loader.obj
 0001:00021a90       ?construct@?$_Wrap_alloc@V?$xalloc@PAVIRender_Visual@@@@@std@@QAEXPAPAVIRender_Visual@@@Z 10022a90 f i r2_loader.obj
 0001:00021ae0       ?construct@?$_Wrap_alloc@V?$xalloc@PAVIRender_Portal@@@@@std@@QAEXPAPAVIRender_Portal@@@Z 10022ae0 f i r2_loader.obj
 0001:00021b30       ?construct@?$_Wrap_alloc@V?$xalloc@PAUIDirect3DVertexBuffer9@@@@@std@@QAEXPAPAUIDirect3DVertexBuffer9@@@Z 10022b30 f i r2_loader.obj
 0001:00021b80       ?construct@?$_Wrap_alloc@V?$xalloc@PAUIDirect3DIndexBuffer9@@@@@std@@QAEXPAPAUIDirect3DIndexBuffer9@@@Z 10022b80 f i r2_loader.obj
 0001:00021bd0       ??$destroy@PAVIRender_Portal@@@?$_Wrap_alloc@V?$xalloc@PAVIRender_Portal@@@@@std@@QAEXPAPAVIRender_Portal@@@Z 10022bd0 f i r2_loader.obj
 0001:00021be0       ??$destroy@PAUIDirect3DVertexBuffer9@@@?$_Wrap_alloc@V?$xalloc@PAUIDirect3DVertexBuffer9@@@@@std@@QAEXPAPAUIDirect3DVertexBuffer9@@@Z 10022be0 f i r2_loader.obj
 0001:00021bf0       ??$destroy@PAUIDirect3DIndexBuffer9@@@?$_Wrap_alloc@V?$xalloc@PAUIDirect3DIndexBuffer9@@@@@std@@QAEXPAPAUIDirect3DIndexBuffer9@@@Z 10022bf0 f i r2_loader.obj
 0001:00021c00       ??$_Val_type@PAPAVIRender_Sector@@@std@@YAPAPAVIRender_Sector@@PAPAV1@@Z 10022c00 f i r2_loader.obj
 0001:00021c10       ??$_Uninit_move@PAPAVIRender_Sector@@PAPAV1@V?$xalloc@PAVIRender_Sector@@@@PAV1@@std@@YAPAPAVIRender_Sector@@PAPAV1@00AAU?$_Wrap_alloc@V?$xalloc@PAVIRender_Sector@@@@@0@0U_Scalar_ptr_iterator_tag@0@@Z 10022c10 f i r2_loader.obj
 0001:00021c40       ??$_Uninit_move@PAPAVIRender_Portal@@PAPAV1@V?$xalloc@PAVIRender_Portal@@@@PAV1@@std@@YAPAPAVIRender_Portal@@PAPAV1@00AAU?$_Wrap_alloc@V?$xalloc@PAVIRender_Portal@@@@@0@0U_Scalar_ptr_iterator_tag@0@@Z 10022c40 f i r2_loader.obj
 0001:00021c70       ??$_Uninit_move@PAUFSlideWindowItem@@PAU1@V?$xalloc@UFSlideWindowItem@@@@U1@@std@@YAPAUFSlideWindowItem@@PAU1@00AAU?$_Wrap_alloc@V?$xalloc@UFSlideWindowItem@@@@@0@0U_Nonscalar_ptr_iterator_tag@0@@Z 10022c70 f i r2_loader.obj
 0001:00021d70       ??$_Uninit_move@PAV?$svector@U_D3DVERTEXELEMENT9@@$0EB@@@PAV1@V?$xalloc@V?$svector@U_D3DVERTEXELEMENT9@@$0EB@@@@@V1@@std@@YAPAV?$svector@U_D3DVERTEXELEMENT9@@$0EB@@@PAV1@00AAU?$_Wrap_alloc@V?$xalloc@V?$svector@U_D3DVERTEXELEMENT9@@$0EB@@@@@@0@0U_Nonscalar_ptr_iterator_tag@0@@Z 10022d70 f i r2_loader.obj
 0001:00021e60       ??$_Uninit_move@PAPAUIDirect3DVertexBuffer9@@PAPAU1@V?$xalloc@PAUIDirect3DVertexBuffer9@@@@PAU1@@std@@YAPAPAUIDirect3DVertexBuffer9@@PAPAU1@00AAU?$_Wrap_alloc@V?$xalloc@PAUIDirect3DVertexBuffer9@@@@@0@0U_Scalar_ptr_iterator_tag@0@@Z 10022e60 f i r2_loader.obj
 0001:00021e90       ??$_Uninit_move@PAPAUIDirect3DIndexBuffer9@@PAPAU1@V?$xalloc@PAUIDirect3DIndexBuffer9@@@@PAU1@@std@@YAPAPAUIDirect3DIndexBuffer9@@PAPAU1@00AAU?$_Wrap_alloc@V?$xalloc@PAUIDirect3DIndexBuffer9@@@@@0@0U_Scalar_ptr_iterator_tag@0@@Z 10022e90 f i r2_loader.obj
 0001:00021ec0       ??$_Fn@V?$xalloc@UFSlideWindowItem@@@@UFSlideWindowItem@@$$$V@_Alloc_construct@std@@SAXU_Wrap_int@1@AAV?$xalloc@UFSlideWindowItem@@@@PAUFSlideWindowItem@@@Z 10022ec0 f i r2_loader.obj
 0001:00021f00       ??$_Fn@V?$xalloc@V?$resptr_core@UShader@@Uresptrcode_shader@@@@@@V?$resptr_core@UShader@@Uresptrcode_shader@@@@$$$V@_Alloc_construct@std@@SAXU_Wrap_int@1@AAV?$xalloc@V?$resptr_core@UShader@@Uresptrcode_shader@@@@@@PAV?$resptr_core@UShader@@Uresptrcode_shader@@@@@Z 10022f00 f i r2_loader.obj
 0001:00021f40       ??$_Fn@V?$xalloc@V?$svector@U_D3DVERTEXELEMENT9@@$0EB@@@@@V?$svector@U_D3DVERTEXELEMENT9@@$0EB@@@$$$V@_Alloc_construct@std@@SAXU_Wrap_int@1@AAV?$xalloc@V?$svector@U_D3DVERTEXELEMENT9@@$0EB@@@@@PAV?$svector@U_D3DVERTEXELEMENT9@@$0EB@@@@Z 10022f40 f i r2_loader.obj
 0001:00021f80       ??$_Construct@PAVIRender_Sector@@ABQAV1@@std@@YAXPAPAVIRender_Sector@@ABQAV1@@Z 10022f80 f i r2_loader.obj
 0001:00021fc0       ??$construct@PAVIRender_Visual@@$$$V@?$allocator_traits@V?$xalloc@PAVIRender_Visual@@@@@std@@SAXAAV?$xalloc@PAVIRender_Visual@@@@PAPAVIRender_Visual@@@Z 10022fc0 f i r2_loader.obj
 0001:00022010       ??$construct@PAVIRender_Portal@@$$$V@?$allocator_traits@V?$xalloc@PAVIRender_Portal@@@@@std@@SAXAAV?$xalloc@PAVIRender_Portal@@@@PAPAVIRender_Portal@@@Z 10023010 f i r2_loader.obj
 0001:00022060       ??$construct@PAUIDirect3DVertexBuffer9@@$$$V@?$allocator_traits@V?$xalloc@PAUIDirect3DVertexBuffer9@@@@@std@@SAXAAV?$xalloc@PAUIDirect3DVertexBuffer9@@@@PAPAUIDirect3DVertexBuffer9@@@Z 10023060 f i r2_loader.obj
 0001:000220b0       ??$construct@PAUIDirect3DIndexBuffer9@@$$$V@?$allocator_traits@V?$xalloc@PAUIDirect3DIndexBuffer9@@@@@std@@SAXAAV?$xalloc@PAUIDirect3DIndexBuffer9@@@@PAPAUIDirect3DIndexBuffer9@@@Z 100230b0 f i r2_loader.obj
 0001:00022100       ??0?$svector@U_D3DVERTEXELEMENT9@@$0EB@@@QAE@XZ 10023100 f i r2_loader.obj
 0001:00022120       ??$destroy@PAVIRender_Portal@@@?$allocator_traits@V?$xalloc@PAVIRender_Portal@@@@@std@@SAXAAV?$xalloc@PAVIRender_Portal@@@@PAPAVIRender_Portal@@@Z 10023120 f i r2_loader.obj
 0001:00022130       ??$destroy@PAUIDirect3DVertexBuffer9@@@?$allocator_traits@V?$xalloc@PAUIDirect3DVertexBuffer9@@@@@std@@SAXAAV?$xalloc@PAUIDirect3DVertexBuffer9@@@@PAPAUIDirect3DVertexBuffer9@@@Z 10023130 f i r2_loader.obj
 0001:00022140       ??$destroy@PAUIDirect3DIndexBuffer9@@@?$allocator_traits@V?$xalloc@PAUIDirect3DIndexBuffer9@@@@@std@@SAXAAV?$xalloc@PAUIDirect3DIndexBuffer9@@@@PAPAUIDirect3DIndexBuffer9@@@Z 10023140 f i r2_loader.obj
 0001:00022150       ??$_Uninit_move@PAPAVIRender_Sector@@PAPAV1@V?$xalloc@PAVIRender_Sector@@@@PAV1@@std@@YAPAPAVIRender_Sector@@PAPAV1@00AAU?$_Wrap_alloc@V?$xalloc@PAVIRender_Sector@@@@@0@0U_Nonscalar_ptr_iterator_tag@0@@Z 10023150 f i r2_loader.obj
 0001:00022220       ??$_Uninit_move@PAPAVIRender_Portal@@PAPAV1@V?$xalloc@PAVIRender_Portal@@@@PAV1@@std@@YAPAPAVIRender_Portal@@PAPAV1@00AAU?$_Wrap_alloc@V?$xalloc@PAVIRender_Portal@@@@@0@0U_Nonscalar_ptr_iterator_tag@0@@Z 10023220 f i r2_loader.obj
 0001:000222f0       ??$construct@UFSlideWindowItem@@U1@@?$_Wrap_alloc@V?$xalloc@UFSlideWindowItem@@@@@std@@QAEXPAUFSlideWindowItem@@$$QAU2@@Z 100232f0 f i r2_loader.obj
 0001:00022360       ??$construct@V?$svector@U_D3DVERTEXELEMENT9@@$0EB@@@V1@@?$_Wrap_alloc@V?$xalloc@V?$svector@U_D3DVERTEXELEMENT9@@$0EB@@@@@@std@@QAEXPAV?$svector@U_D3DVERTEXELEMENT9@@$0EB@@@$$QAV2@@Z 10023360 f i r2_loader.obj
 0001:000223b0       ??$_Uninit_move@PAPAUIDirect3DVertexBuffer9@@PAPAU1@V?$xalloc@PAUIDirect3DVertexBuffer9@@@@PAU1@@std@@YAPAPAUIDirect3DVertexBuffer9@@PAPAU1@00AAU?$_Wrap_alloc@V?$xalloc@PAUIDirect3DVertexBuffer9@@@@@0@0U_Nonscalar_ptr_iterator_tag@0@@Z 100233b0 f i r2_loader.obj
 0001:00022480       ??$_Uninit_move@PAPAUIDirect3DIndexBuffer9@@PAPAU1@V?$xalloc@PAUIDirect3DIndexBuffer9@@@@PAU1@@std@@YAPAPAUIDirect3DIndexBuffer9@@PAPAU1@00AAU?$_Wrap_alloc@V?$xalloc@PAUIDirect3DIndexBuffer9@@@@@0@0U_Nonscalar_ptr_iterator_tag@0@@Z 10023480 f i r2_loader.obj
 0001:00022550       ??$_Fn@V?$xalloc@PAVIRender_Visual@@@@PAVIRender_Visual@@$$$V@_Alloc_construct@std@@SAXU_Wrap_int@1@AAV?$xalloc@PAVIRender_Visual@@@@PAPAVIRender_Visual@@@Z 10023550 f i r2_loader.obj
 0001:00022590       ??$_Fn@V?$xalloc@PAVIRender_Portal@@@@PAVIRender_Portal@@$$$V@_Alloc_construct@std@@SAXU_Wrap_int@1@AAV?$xalloc@PAVIRender_Portal@@@@PAPAVIRender_Portal@@@Z 10023590 f i r2_loader.obj
 0001:000225d0       ??$_Fn@V?$xalloc@PAUIDirect3DVertexBuffer9@@@@PAUIDirect3DVertexBuffer9@@$$$V@_Alloc_construct@std@@SAXU_Wrap_int@1@AAV?$xalloc@PAUIDirect3DVertexBuffer9@@@@PAPAUIDirect3DVertexBuffer9@@@Z 100235d0 f i r2_loader.obj
 0001:00022610       ??$_Fn@V?$xalloc@PAUIDirect3DIndexBuffer9@@@@PAUIDirect3DIndexBuffer9@@$$$V@_Alloc_construct@std@@SAXU_Wrap_int@1@AAV?$xalloc@PAUIDirect3DIndexBuffer9@@@@PAPAUIDirect3DIndexBuffer9@@@Z 10023610 f i r2_loader.obj
 0001:00022650       ??$_Fn@V?$xalloc@PAVIRender_Portal@@@@PAVIRender_Portal@@@_Alloc_destroy@std@@SAXHAAV?$xalloc@PAVIRender_Portal@@@@PAPAVIRender_Portal@@@Z 10023650 f i r2_loader.obj
 0001:00022660       ??$_Fn@V?$xalloc@PAUIDirect3DVertexBuffer9@@@@PAUIDirect3DVertexBuffer9@@@_Alloc_destroy@std@@SAXHAAV?$xalloc@PAUIDirect3DVertexBuffer9@@@@PAPAUIDirect3DVertexBuffer9@@@Z 10023660 f i r2_loader.obj
 0001:00022670       ??$_Fn@V?$xalloc@PAUIDirect3DIndexBuffer9@@@@PAUIDirect3DIndexBuffer9@@@_Alloc_destroy@std@@SAXHAAV?$xalloc@PAUIDirect3DIndexBuffer9@@@@PAPAUIDirect3DIndexBuffer9@@@Z 10023670 f i r2_loader.obj
 0001:00022680       ??$construct@PAVIRender_Sector@@PAV1@@?$_Wrap_alloc@V?$xalloc@PAVIRender_Sector@@@@@std@@QAEXPAPAVIRender_Sector@@$$QAPAV2@@Z 10023680 f i r2_loader.obj
 0001:000226d0       ??$destroy@PAVIRender_Sector@@@?$_Wrap_alloc@V?$xalloc@PAVIRender_Sector@@@@@std@@QAEXPAPAVIRender_Sector@@@Z 100236d0 f i r2_loader.obj
 0001:000226e0       ??$construct@PAVIRender_Portal@@PAV1@@?$_Wrap_alloc@V?$xalloc@PAVIRender_Portal@@@@@std@@QAEXPAPAVIRender_Portal@@$$QAPAV2@@Z 100236e0 f i r2_loader.obj
 0001:00022730       ??$forward@UFSlideWindowItem@@@std@@YA$$QAUFSlideWindowItem@@AAU1@@Z 10023730 f i r2_loader.obj
 0001:00022740       ??$construct@UFSlideWindowItem@@U1@@?$allocator_traits@V?$xalloc@UFSlideWindowItem@@@@@std@@SAXAAV?$xalloc@UFSlideWindowItem@@@@PAUFSlideWindowItem@@$$QAU3@@Z 10023740 f i r2_loader.obj
 0001:000227a0       ??$forward@V?$svector@U_D3DVERTEXELEMENT9@@$0EB@@@@std@@YA$$QAV?$svector@U_D3DVERTEXELEMENT9@@$0EB@@@AAV1@@Z 100237a0 f i r2_loader.obj
 0001:000227b0       ??$construct@V?$svector@U_D3DVERTEXELEMENT9@@$0EB@@@V1@@?$allocator_traits@V?$xalloc@V?$svector@U_D3DVERTEXELEMENT9@@$0EB@@@@@@std@@SAXAAV?$xalloc@V?$svector@U_D3DVERTEXELEMENT9@@$0EB@@@@@PAV?$svector@U_D3DVERTEXELEMENT9@@$0EB@@@$$QAV3@@Z 100237b0 f i r2_loader.obj
 0001:00022800       ??$construct@PAUIDirect3DVertexBuffer9@@PAU1@@?$_Wrap_alloc@V?$xalloc@PAUIDirect3DVertexBuffer9@@@@@std@@QAEXPAPAUIDirect3DVertexBuffer9@@$$QAPAU2@@Z 10023800 f i r2_loader.obj
 0001:00022850       ??$construct@PAUIDirect3DIndexBuffer9@@PAU1@@?$_Wrap_alloc@V?$xalloc@PAUIDirect3DIndexBuffer9@@@@@std@@QAEXPAPAUIDirect3DIndexBuffer9@@$$QAPAU2@@Z 10023850 f i r2_loader.obj
 0001:000228a0       ?destroy@?$xalloc@PAVIRender_Portal@@@@QAEXPAPAVIRender_Portal@@@Z 100238a0 f i r2_loader.obj
 0001:000228b0       ?destroy@?$xalloc@PAUIDirect3DVertexBuffer9@@@@QAEXPAPAUIDirect3DVertexBuffer9@@@Z 100238b0 f i r2_loader.obj
 0001:000228c0       ?destroy@?$xalloc@PAUIDirect3DIndexBuffer9@@@@QAEXPAPAUIDirect3DIndexBuffer9@@@Z 100238c0 f i r2_loader.obj
 0001:000228d0       ??$forward@PAVIRender_Sector@@@std@@YA$$QAPAVIRender_Sector@@AAPAV1@@Z 100238d0 f i r2_loader.obj
 0001:000228e0       ??$construct@PAVIRender_Sector@@PAV1@@?$allocator_traits@V?$xalloc@PAVIRender_Sector@@@@@std@@SAXAAV?$xalloc@PAVIRender_Sector@@@@PAPAVIRender_Sector@@$$QAPAV3@@Z 100238e0 f i r2_loader.obj
 0001:00022920       ??$destroy@PAVIRender_Sector@@@?$allocator_traits@V?$xalloc@PAVIRender_Sector@@@@@std@@SAXAAV?$xalloc@PAVIRender_Sector@@@@PAPAVIRender_Sector@@@Z 10023920 f i r2_loader.obj
 0001:00022930       ??$forward@PAVIRender_Portal@@@std@@YA$$QAPAVIRender_Portal@@AAPAV1@@Z 10023930 f i r2_loader.obj
 0001:00022940       ??$construct@PAVIRender_Portal@@PAV1@@?$allocator_traits@V?$xalloc@PAVIRender_Portal@@@@@std@@SAXAAV?$xalloc@PAVIRender_Portal@@@@PAPAVIRender_Portal@@$$QAPAV3@@Z 10023940 f i r2_loader.obj
 0001:00022980       ??$_Fn@V?$xalloc@UFSlideWindowItem@@@@UFSlideWindowItem@@U2@@_Alloc_construct@std@@SAXHAAV?$xalloc@UFSlideWindowItem@@@@PAUFSlideWindowItem@@$$QAU3@@Z 10023980 f i r2_loader.obj
 0001:000229e0       ??$_Fn@V?$xalloc@V?$svector@U_D3DVERTEXELEMENT9@@$0EB@@@@@V?$svector@U_D3DVERTEXELEMENT9@@$0EB@@@V2@@_Alloc_construct@std@@SAXHAAV?$xalloc@V?$svector@U_D3DVERTEXELEMENT9@@$0EB@@@@@PAV?$svector@U_D3DVERTEXELEMENT9@@$0EB@@@$$QAV3@@Z 100239e0 f i r2_loader.obj
 0001:00022a30       ??$forward@PAUIDirect3DVertexBuffer9@@@std@@YA$$QAPAUIDirect3DVertexBuffer9@@AAPAU1@@Z 10023a30 f i r2_loader.obj
 0001:00022a40       ??$construct@PAUIDirect3DVertexBuffer9@@PAU1@@?$allocator_traits@V?$xalloc@PAUIDirect3DVertexBuffer9@@@@@std@@SAXAAV?$xalloc@PAUIDirect3DVertexBuffer9@@@@PAPAUIDirect3DVertexBuffer9@@$$QAPAU3@@Z 10023a40 f i r2_loader.obj
 0001:00022a80       ??$forward@PAUIDirect3DIndexBuffer9@@@std@@YA$$QAPAUIDirect3DIndexBuffer9@@AAPAU1@@Z 10023a80 f i r2_loader.obj
 0001:00022a90       ??$construct@PAUIDirect3DIndexBuffer9@@PAU1@@?$allocator_traits@V?$xalloc@PAUIDirect3DIndexBuffer9@@@@@std@@SAXAAV?$xalloc@PAUIDirect3DIndexBuffer9@@@@PAPAUIDirect3DIndexBuffer9@@$$QAPAU3@@Z 10023a90 f i r2_loader.obj
 0001:00022ad0       ??$_Destroy@PAVIRender_Portal@@@std@@YAXPAPAVIRender_Portal@@@Z 10023ad0 f i r2_loader.obj
 0001:00022ae0       ??$_Destroy@PAUIDirect3DVertexBuffer9@@@std@@YAXPAPAUIDirect3DVertexBuffer9@@@Z 10023ae0 f i r2_loader.obj
 0001:00022af0       ??$_Destroy@PAUIDirect3DIndexBuffer9@@@std@@YAXPAPAUIDirect3DIndexBuffer9@@@Z 10023af0 f i r2_loader.obj
 0001:00022b00       ?construct@?$xalloc@UFSlideWindowItem@@@@QAEXPAUFSlideWindowItem@@ABU2@@Z 10023b00 f i r2_loader.obj
 0001:00022b70       ?construct@?$xalloc@V?$svector@U_D3DVERTEXELEMENT9@@$0EB@@@@@QAEXPAV?$svector@U_D3DVERTEXELEMENT9@@$0EB@@@ABV2@@Z 10023b70 f i r2_loader.obj
 0001:00022bc0       ??$_Fn@V?$xalloc@PAVIRender_Sector@@@@PAVIRender_Sector@@PAV2@@_Alloc_construct@std@@SAXHAAV?$xalloc@PAVIRender_Sector@@@@PAPAVIRender_Sector@@$$QAPAV3@@Z 10023bc0 f i r2_loader.obj
 0001:00022c00       ??$_Fn@V?$xalloc@PAVIRender_Sector@@@@PAVIRender_Sector@@@_Alloc_destroy@std@@SAXHAAV?$xalloc@PAVIRender_Sector@@@@PAPAVIRender_Sector@@@Z 10023c00 f i r2_loader.obj
 0001:00022c10       ??$_Fn@V?$xalloc@PAVIRender_Portal@@@@PAVIRender_Portal@@PAV2@@_Alloc_construct@std@@SAXHAAV?$xalloc@PAVIRender_Portal@@@@PAPAVIRender_Portal@@$$QAPAV3@@Z 10023c10 f i r2_loader.obj
 0001:00022c50       ??$_Fn@V?$xalloc@PAUIDirect3DVertexBuffer9@@@@PAUIDirect3DVertexBuffer9@@PAU2@@_Alloc_construct@std@@SAXHAAV?$xalloc@PAUIDirect3DVertexBuffer9@@@@PAPAUIDirect3DVertexBuffer9@@$$QAPAU3@@Z 10023c50 f i r2_loader.obj
 0001:00022c90       ??$_Fn@V?$xalloc@PAUIDirect3DIndexBuffer9@@@@PAUIDirect3DIndexBuffer9@@PAU2@@_Alloc_construct@std@@SAXHAAV?$xalloc@PAUIDirect3DIndexBuffer9@@@@PAPAUIDirect3DIndexBuffer9@@$$QAPAU3@@Z 10023c90 f i r2_loader.obj
 0001:00022cd0       ??$_Construct@UFSlideWindowItem@@ABU1@@std@@YAXPAUFSlideWindowItem@@ABU1@@Z 10023cd0 f i r2_loader.obj
 0001:00022d30       ??$_Construct@V?$svector@U_D3DVERTEXELEMENT9@@$0EB@@@ABV1@@std@@YAXPAV?$svector@U_D3DVERTEXELEMENT9@@$0EB@@@ABV1@@Z 10023d30 f i r2_loader.obj
 0001:00022d80       ?destroy@?$xalloc@PAVIRender_Sector@@@@QAEXPAPAVIRender_Sector@@@Z 10023d80 f i r2_loader.obj
 0001:00022d90       ?construct@?$xalloc@PAVIRender_Portal@@@@QAEXPAPAVIRender_Portal@@ABQAV2@@Z 10023d90 f i r2_loader.obj
 0001:00022de0       ?construct@?$xalloc@PAUIDirect3DVertexBuffer9@@@@QAEXPAPAUIDirect3DVertexBuffer9@@ABQAU2@@Z 10023de0 f i r2_loader.obj
 0001:00022e30       ?construct@?$xalloc@PAUIDirect3DIndexBuffer9@@@@QAEXPAPAUIDirect3DIndexBuffer9@@ABQAU2@@Z 10023e30 f i r2_loader.obj
 0001:00022e80       ??$forward@ABUFSlideWindowItem@@@std@@YAABUFSlideWindowItem@@ABU1@@Z 10023e80 f i r2_loader.obj
 0001:00022e90       ??$forward@ABV?$svector@U_D3DVERTEXELEMENT9@@$0EB@@@@std@@YAABV?$svector@U_D3DVERTEXELEMENT9@@$0EB@@@ABV1@@Z 10023e90 f i r2_loader.obj
 0001:00022ea0       ??$_Destroy@PAVIRender_Sector@@@std@@YAXPAPAVIRender_Sector@@@Z 10023ea0 f i r2_loader.obj
 0001:00022eb0       ??$_Construct@PAVIRender_Portal@@ABQAV1@@std@@YAXPAPAVIRender_Portal@@ABQAV1@@Z 10023eb0 f i r2_loader.obj
 0001:00022ef0       ??$_Construct@PAUIDirect3DVertexBuffer9@@ABQAU1@@std@@YAXPAPAUIDirect3DVertexBuffer9@@ABQAU1@@Z 10023ef0 f i r2_loader.obj
 0001:00022f30       ??$_Construct@PAUIDirect3DIndexBuffer9@@ABQAU1@@std@@YAXPAPAUIDirect3DIndexBuffer9@@ABQAU1@@Z 10023f30 f i r2_loader.obj
 0001:00022f70       ??$forward@ABQAVIRender_Portal@@@std@@YAABQAVIRender_Portal@@ABQAV1@@Z 10023f70 f i r2_loader.obj
 0001:00022f80       ??$forward@ABQAUIDirect3DVertexBuffer9@@@std@@YAABQAUIDirect3DVertexBuffer9@@ABQAU1@@Z 10023f80 f i r2_loader.obj
 0001:00022f90       ??$forward@ABQAUIDirect3DIndexBuffer9@@@std@@YAABQAUIDirect3DIndexBuffer9@@ABQAU1@@Z 10023f90 f i r2_loader.obj
 0001:00022fa0       ??_ECSector@@UAEPAXI@Z     10023fa0 f i * CIL library *:* CIL module *
 0001:00022fa0       ??_GCSector@@UAEPAXI@Z     10023fa0 f i r2_loader.obj
 0001:00022fd0       ??0?$_Vector_val@U?$_Simple_types@PAVCPortal@@@std@@@std@@QAE@XZ 10023fd0 f i r2_loader.obj
 0001:00022ff0       ??0?$_Vector_alloc@$0A@U?$_Vec_base_types@PAVCPortal@@V?$xalloc@PAVCPortal@@@@@std@@@std@@QAE@ABV?$xalloc@PAVCPortal@@@@@Z 10023ff0 f i r2_loader.obj
 0001:00023010       ??0?$vector@PAVCPortal@@V?$xalloc@PAVCPortal@@@@@std@@QAE@XZ 10024010 f i r2_loader.obj
 0001:00023030       ??0?$xr_vector@PAVCPortal@@V?$xalloc@PAVCPortal@@@@@@QAE@XZ 10024030 f i r2_loader.obj
 0001:00023050       ??$_Destroy_range@U?$_Wrap_alloc@V?$xalloc@PAVCPortal@@@@@std@@@std@@YAXPAPAVCPortal@@0AAU?$_Wrap_alloc@V?$xalloc@PAVCPortal@@@@@0@U_Scalar_ptr_iterator_tag@0@@Z 10024050 f i r2_loader.obj
 0001:00023060       ??$_Ptr_cat@PAVCPortal@@PAV1@@std@@YA?AU_Scalar_ptr_iterator_tag@0@PAPAVCPortal@@0@Z 10024060 f i r2_loader.obj
 0001:00023070       ??$_Destroy_range@U?$_Wrap_alloc@V?$xalloc@PAVCPortal@@@@@std@@@std@@YAXPAPAVCPortal@@0AAU?$_Wrap_alloc@V?$xalloc@PAVCPortal@@@@@0@@Z 10024070 f i r2_loader.obj
 0001:00023080       ?_Destroy@?$vector@PAVCPortal@@V?$xalloc@PAVCPortal@@@@@std@@IAEXPAPAVCPortal@@0@Z 10024080 f i r2_loader.obj
 0001:00023090       ??$xr_free@PAVCPortal@@@@YAXAAPAPAVCPortal@@@Z 10024090 f i r2_loader.obj
 0001:000230b0       ?deallocate@?$xalloc@PAVCPortal@@@@QBEXPAPAVCPortal@@I@Z 100240b0 f i r2_loader.obj
 0001:000230d0       ?deallocate@?$_Wrap_alloc@V?$xalloc@PAVCPortal@@@@@std@@QAEXPAPAVCPortal@@I@Z 100240d0 f i r2_loader.obj
 0001:000230f0       ??0?$xalloc@PAVCPortal@@@@QAE@XZ 100240f0 f i r2_loader.obj
 0001:00023100       ??0?$_Wrap_alloc@V?$xalloc@PAVCPortal@@@@@std@@QAE@XZ 10024100 f i r2_loader.obj
 0001:00023110       ?_Getal@?$_Vector_alloc@$0A@U?$_Vec_base_types@PAVCPortal@@V?$xalloc@PAVCPortal@@@@@std@@@std@@QBE?AU?$_Wrap_alloc@V?$xalloc@PAVCPortal@@@@@2@XZ 10024110 f i r2_loader.obj
 0001:00023120       ?_Tidy@?$vector@PAVCPortal@@V?$xalloc@PAVCPortal@@@@@std@@IAEXXZ 10024120 f i r2_loader.obj
 0001:00023150       ??1?$vector@PAVCPortal@@V?$xalloc@PAVCPortal@@@@@std@@QAE@XZ 10024150 f i r2_loader.obj
 0001:00023180       ??1?$xr_vector@PAVCPortal@@V?$xalloc@PAVCPortal@@@@@@QAE@XZ 10024180 f i r2_loader.obj
 0001:000231b0       ??0?$_Vector_val@U?$_Simple_types@VCFrustum@@@std@@@std@@QAE@XZ 100241b0 f i r2_loader.obj
 0001:000231d0       ??0?$_Vector_alloc@$0A@U?$_Vec_base_types@VCFrustum@@V?$xalloc@VCFrustum@@@@@std@@@std@@QAE@ABV?$xalloc@VCFrustum@@@@@Z 100241d0 f i r2_loader.obj
 0001:000231f0       ??0?$vector@VCFrustum@@V?$xalloc@VCFrustum@@@@@std@@QAE@XZ 100241f0 f i r2_loader.obj
 0001:00023210       ??0?$xr_vector@VCFrustum@@V?$xalloc@VCFrustum@@@@@@QAE@XZ 10024210 f i r2_loader.obj
 0001:00023230       ??$_Destroy@VCFrustum@@@std@@YAXPAVCFrustum@@@Z 10024230 f i r2_loader.obj
 0001:00023240       ?destroy@?$xalloc@VCFrustum@@@@QAEXPAVCFrustum@@@Z 10024240 f i r2_loader.obj
 0001:00023250       ??$_Fn@V?$xalloc@VCFrustum@@@@VCFrustum@@@_Alloc_destroy@std@@SAXHAAV?$xalloc@VCFrustum@@@@PAVCFrustum@@@Z 10024250 f i r2_loader.obj
 0001:00023260       ??$destroy@VCFrustum@@@?$allocator_traits@V?$xalloc@VCFrustum@@@@@std@@SAXAAV?$xalloc@VCFrustum@@@@PAVCFrustum@@@Z 10024260 f i r2_loader.obj
 0001:00023270       ??$destroy@VCFrustum@@@?$_Wrap_alloc@V?$xalloc@VCFrustum@@@@@std@@QAEXPAVCFrustum@@@Z 10024270 f i r2_loader.obj
 0001:00023280       ??$_Destroy_range@U?$_Wrap_alloc@V?$xalloc@VCFrustum@@@@@std@@@std@@YAXPAVCFrustum@@0AAU?$_Wrap_alloc@V?$xalloc@VCFrustum@@@@@0@U_Nonscalar_ptr_iterator_tag@0@@Z 10024280 f i r2_loader.obj
 0001:00023290       ??$_Ptr_cat@VCFrustum@@V1@@std@@YA?AU_Nonscalar_ptr_iterator_tag@0@PAVCFrustum@@0@Z 10024290 f i r2_loader.obj
 0001:000232a0       ??$_Destroy_range@U?$_Wrap_alloc@V?$xalloc@VCFrustum@@@@@std@@@std@@YAXPAVCFrustum@@0AAU?$_Wrap_alloc@V?$xalloc@VCFrustum@@@@@0@@Z 100242a0 f i r2_loader.obj
 0001:000232b0       ?_Destroy@?$vector@VCFrustum@@V?$xalloc@VCFrustum@@@@@std@@IAEXPAVCFrustum@@0@Z 100242b0 f i r2_loader.obj
 0001:000232c0       ??$xr_free@VCFrustum@@@@YAXAAPAVCFrustum@@@Z 100242c0 f i r2_loader.obj
 0001:000232e0       ?deallocate@?$xalloc@VCFrustum@@@@QBEXPAVCFrustum@@I@Z 100242e0 f i r2_loader.obj
 0001:00023300       ?deallocate@?$_Wrap_alloc@V?$xalloc@VCFrustum@@@@@std@@QAEXPAVCFrustum@@I@Z 10024300 f i r2_loader.obj
 0001:00023320       ??0?$xalloc@VCFrustum@@@@QAE@XZ 10024320 f i r2_loader.obj
 0001:00023330       ??0?$_Wrap_alloc@V?$xalloc@VCFrustum@@@@@std@@QAE@XZ 10024330 f i r2_loader.obj
 0001:00023340       ?_Getal@?$_Vector_alloc@$0A@U?$_Vec_base_types@VCFrustum@@V?$xalloc@VCFrustum@@@@@std@@@std@@QBE?AU?$_Wrap_alloc@V?$xalloc@VCFrustum@@@@@2@XZ 10024340 f i r2_loader.obj
 0001:00023350       ?_Tidy@?$vector@VCFrustum@@V?$xalloc@VCFrustum@@@@@std@@IAEXXZ 10024350 f i r2_loader.obj
 0001:00023380       ??1?$vector@VCFrustum@@V?$xalloc@VCFrustum@@@@@std@@QAE@XZ 10024380 f i r2_loader.obj
 0001:000233b0       ??1?$xr_vector@VCFrustum@@V?$xalloc@VCFrustum@@@@@@QAE@XZ 100243b0 f i r2_loader.obj
 0001:000233e0       ??0?$_Vector_val@U?$_Simple_types@U_scissor@@@std@@@std@@QAE@XZ 100243e0 f i r2_loader.obj
 0001:00023400       ??0?$_Vector_alloc@$0A@U?$_Vec_base_types@U_scissor@@V?$xalloc@U_scissor@@@@@std@@@std@@QAE@ABV?$xalloc@U_scissor@@@@@Z 10024400 f i r2_loader.obj
 0001:00023420       ??0?$vector@U_scissor@@V?$xalloc@U_scissor@@@@@std@@QAE@XZ 10024420 f i r2_loader.obj
 0001:00023440       ??0?$xr_vector@U_scissor@@V?$xalloc@U_scissor@@@@@@QAE@XZ 10024440 f i r2_loader.obj
 0001:00023460       ??$_Destroy@U_scissor@@@std@@YAXPAU_scissor@@@Z 10024460 f i r2_loader.obj
 0001:00023470       ?destroy@?$xalloc@U_scissor@@@@QAEXPAU_scissor@@@Z 10024470 f i r2_loader.obj
 0001:00023480       ??$_Fn@V?$xalloc@U_scissor@@@@U_scissor@@@_Alloc_destroy@std@@SAXHAAV?$xalloc@U_scissor@@@@PAU_scissor@@@Z 10024480 f i r2_loader.obj
 0001:00023490       ??$destroy@U_scissor@@@?$allocator_traits@V?$xalloc@U_scissor@@@@@std@@SAXAAV?$xalloc@U_scissor@@@@PAU_scissor@@@Z 10024490 f i r2_loader.obj
 0001:000234a0       ??$destroy@U_scissor@@@?$_Wrap_alloc@V?$xalloc@U_scissor@@@@@std@@QAEXPAU_scissor@@@Z 100244a0 f i r2_loader.obj
 0001:000234b0       ??$_Destroy_range@U?$_Wrap_alloc@V?$xalloc@U_scissor@@@@@std@@@std@@YAXPAU_scissor@@0AAU?$_Wrap_alloc@V?$xalloc@U_scissor@@@@@0@U_Nonscalar_ptr_iterator_tag@0@@Z 100244b0 f i r2_loader.obj
 0001:000234c0       ??$_Ptr_cat@U_scissor@@U1@@std@@YA?AU_Nonscalar_ptr_iterator_tag@0@PAU_scissor@@0@Z 100244c0 f i r2_loader.obj
 0001:000234d0       ??$_Destroy_range@U?$_Wrap_alloc@V?$xalloc@U_scissor@@@@@std@@@std@@YAXPAU_scissor@@0AAU?$_Wrap_alloc@V?$xalloc@U_scissor@@@@@0@@Z 100244d0 f i r2_loader.obj
 0001:000234e0       ?_Destroy@?$vector@U_scissor@@V?$xalloc@U_scissor@@@@@std@@IAEXPAU_scissor@@0@Z 100244e0 f i r2_loader.obj
 0001:000234f0       ??$xr_free@U_scissor@@@@YAXAAPAU_scissor@@@Z 100244f0 f i r2_loader.obj
 0001:00023510       ?deallocate@?$xalloc@U_scissor@@@@QBEXPAU_scissor@@I@Z 10024510 f i r2_loader.obj
 0001:00023530       ?deallocate@?$_Wrap_alloc@V?$xalloc@U_scissor@@@@@std@@QAEXPAU_scissor@@I@Z 10024530 f i r2_loader.obj
 0001:00023550       ??0?$xalloc@U_scissor@@@@QAE@XZ 10024550 f i r2_loader.obj
 0001:00023560       ??0?$_Wrap_alloc@V?$xalloc@U_scissor@@@@@std@@QAE@XZ 10024560 f i r2_loader.obj
 0001:00023570       ?_Getal@?$_Vector_alloc@$0A@U?$_Vec_base_types@U_scissor@@V?$xalloc@U_scissor@@@@@std@@@std@@QBE?AU?$_Wrap_alloc@V?$xalloc@U_scissor@@@@@2@XZ 10024570 f i r2_loader.obj
 0001:00023580       ?_Tidy@?$vector@U_scissor@@V?$xalloc@U_scissor@@@@@std@@IAEXXZ 10024580 f i r2_loader.obj
 0001:000235b0       ??1?$vector@U_scissor@@V?$xalloc@U_scissor@@@@@std@@QAE@XZ 100245b0 f i r2_loader.obj
 0001:000235e0       ??1?$xr_vector@U_scissor@@V?$xalloc@U_scissor@@@@@@QAE@XZ 100245e0 f i r2_loader.obj
 0001:00023610       ??0CSector@@QAE@XZ         10024610 f i r2_loader.obj
 0001:00023660       ?_Unused_capacity@?$vector@PAVIRender_Visual@@V?$xalloc@PAVIRender_Visual@@@@@std@@QBEIXZ 10024660 f i r2_loader.obj
 0001:00023670       ?_Xlen@?$vector@PAVIRender_Visual@@V?$xalloc@PAVIRender_Visual@@@@@std@@IBEXXZ 10024670 f i r2_loader.obj
 0001:00023680       ??$xr_alloc@PAVIRender_Visual@@@@YAPAPAVIRender_Visual@@I@Z 10024680 f i r2_loader.obj
 0001:000236a0       ?allocate@?$xalloc@PAVIRender_Visual@@@@QBEPAPAVIRender_Visual@@IPBX@Z 100246a0 f i r2_loader.obj
 0001:000236c0       ?allocate@?$_Wrap_alloc@V?$xalloc@PAVIRender_Visual@@@@@std@@QAEPAPAVIRender_Visual@@I@Z 100246c0 f i r2_loader.obj
 0001:000236e0       ??$_Rechecked@PAPAVIRender_Visual@@PAPAV1@@std@@YAAAPAPAVIRender_Visual@@AAPAPAV1@PAPAV1@@Z 100246e0 f i r2_loader.obj
 0001:000236f0       ??$forward@ABQAVIRender_Visual@@@std@@YAABQAVIRender_Visual@@ABQAV1@@Z 100246f0 f i r2_loader.obj
 0001:00023700       ??$_Construct@PAVIRender_Visual@@ABQAV1@@std@@YAXPAPAVIRender_Visual@@ABQAV1@@Z 10024700 f i r2_loader.obj
 0001:00023710       ?construct@?$xalloc@PAVIRender_Visual@@@@QAEXPAPAVIRender_Visual@@ABQAV2@@Z 10024710 f i r2_loader.obj
 0001:00023730       ??$_Fn@V?$xalloc@PAVIRender_Visual@@@@PAVIRender_Visual@@PAV2@@_Alloc_construct@std@@SAXHAAV?$xalloc@PAVIRender_Visual@@@@PAPAVIRender_Visual@@$$QAPAV3@@Z 10024730 f i r2_loader.obj
 0001:00023750       ??$construct@PAVIRender_Visual@@PAV1@@?$allocator_traits@V?$xalloc@PAVIRender_Visual@@@@@std@@SAXAAV?$xalloc@PAVIRender_Visual@@@@PAPAVIRender_Visual@@$$QAPAV3@@Z 10024750 f i r2_loader.obj
 0001:00023760       ??$forward@PAVIRender_Visual@@@std@@YA$$QAPAVIRender_Visual@@AAPAV1@@Z 10024760 f i r2_loader.obj
 0001:00023770       ??$construct@PAVIRender_Visual@@PAV1@@?$_Wrap_alloc@V?$xalloc@PAVIRender_Visual@@@@@std@@QAEXPAPAVIRender_Visual@@$$QAPAV2@@Z 10024770 f i r2_loader.obj
 0001:00023790       ??$_Destroy@PAVIRender_Visual@@@std@@YAXPAPAVIRender_Visual@@@Z 10024790 f i r2_loader.obj
 0001:000237a0       ?destroy@?$xalloc@PAVIRender_Visual@@@@QAEXPAPAVIRender_Visual@@@Z 100247a0 f i r2_loader.obj
 0001:000237b0       ??$_Fn@V?$xalloc@PAVIRender_Visual@@@@PAVIRender_Visual@@@_Alloc_destroy@std@@SAXHAAV?$xalloc@PAVIRender_Visual@@@@PAPAVIRender_Visual@@@Z 100247b0 f i r2_loader.obj
 0001:000237c0       ??$destroy@PAVIRender_Visual@@@?$allocator_traits@V?$xalloc@PAVIRender_Visual@@@@@std@@SAXAAV?$xalloc@PAVIRender_Visual@@@@PAPAVIRender_Visual@@@Z 100247c0 f i r2_loader.obj
 0001:000237d0       ??$destroy@PAVIRender_Visual@@@?$_Wrap_alloc@V?$xalloc@PAVIRender_Visual@@@@@std@@QAEXPAPAVIRender_Visual@@@Z 100247d0 f i r2_loader.obj
 0001:000237e0       ??$_Uninit_move@PAPAVIRender_Visual@@PAPAV1@V?$xalloc@PAVIRender_Visual@@@@PAV1@@std@@YAPAPAVIRender_Visual@@PAPAV1@00AAU?$_Wrap_alloc@V?$xalloc@PAVIRender_Visual@@@@@0@0U_Nonscalar_ptr_iterator_tag@0@@Z 100247e0 f i r2_loader.obj
 0001:00023850       ??$_Uninit_move@PAPAVIRender_Visual@@PAPAV1@V?$xalloc@PAVIRender_Visual@@@@PAV1@@std@@YAPAPAVIRender_Visual@@PAPAV1@00AAU?$_Wrap_alloc@V?$xalloc@PAVIRender_Visual@@@@@0@0U_Scalar_ptr_iterator_tag@0@@Z 10024850 f i r2_loader.obj
 0001:00023870       ??$_Val_type@PAPAVIRender_Visual@@@std@@YAPAPAVIRender_Visual@@PAPAV1@@Z 10024870 f i r2_loader.obj
 0001:00023880       ??$_Uninit_move@PAPAVIRender_Visual@@PAPAV1@U?$_Wrap_alloc@V?$xalloc@PAVIRender_Visual@@@@@std@@@std@@YAPAPAVIRender_Visual@@PAPAV1@00AAU?$_Wrap_alloc@V?$xalloc@PAVIRender_Visual@@@@@0@@Z 10024880 f i r2_loader.obj
 0001:000238a0       ??$_Unchecked@PAPAVIRender_Visual@@@std@@YAPAPAVIRender_Visual@@PAPAV1@@Z 100248a0 f i r2_loader.obj
 0001:000238b0       ??$_Uninitialized_move@PAPAVIRender_Visual@@PAPAV1@U?$_Wrap_alloc@V?$xalloc@PAVIRender_Visual@@@@@std@@@std@@YAPAPAVIRender_Visual@@PAPAV1@00AAU?$_Wrap_alloc@V?$xalloc@PAVIRender_Visual@@@@@0@@Z 100248b0 f i r2_loader.obj
 0001:000238d0       ??$_Umove@PAPAVIRender_Visual@@@?$vector@PAVIRender_Visual@@V?$xalloc@PAVIRender_Visual@@@@@std@@IAEPAPAVIRender_Visual@@PAPAV2@00@Z 100248d0 f i r2_loader.obj
 0001:00023900       ?_Reallocate@?$vector@PAVIRender_Visual@@V?$xalloc@PAVIRender_Visual@@@@@std@@IAEXI@Z 10024900 f i r2_loader.obj
 0001:000239c0       ?capacity@?$vector@PAVIRender_Visual@@V?$xalloc@PAVIRender_Visual@@@@@std@@QBEIXZ 100249c0 f i r2_loader.obj
 0001:000239d0       ?max_size@?$xalloc@PAVIRender_Visual@@@@QBEIXZ 100249d0 f i r2_loader.obj
 0001:000239e0       ??$_Fn@V?$xalloc@PAVIRender_Visual@@@@@_Alloc_max_size@std@@SAIHABV?$xalloc@PAVIRender_Visual@@@@@Z 100249e0 f i r2_loader.obj
 0001:000239f0       ?max_size@?$allocator_traits@V?$xalloc@PAVIRender_Visual@@@@@std@@SAIABV?$xalloc@PAVIRender_Visual@@@@@Z 100249f0 f i r2_loader.obj
 0001:00023a00       ?max_size@?$_Wrap_alloc@V?$xalloc@PAVIRender_Visual@@@@@std@@QBEIXZ 10024a00 f i r2_loader.obj
 0001:00023a10       ?max_size@?$vector@PAVIRender_Visual@@V?$xalloc@PAVIRender_Visual@@@@@std@@QBEIXZ 10024a10 f i r2_loader.obj
 0001:00023a20       ?_Grow_to@?$vector@PAVIRender_Visual@@V?$xalloc@PAVIRender_Visual@@@@@std@@IBEII@Z 10024a20 f i r2_loader.obj
 0001:00023a60       ?_Reserve@?$vector@PAVIRender_Visual@@V?$xalloc@PAVIRender_Visual@@@@@std@@IAEXI@Z 10024a60 f i r2_loader.obj
 0001:00023ae0       ?InterlockedIncrement@@YAKPCK@Z 10024ae0 f i r2_loader.obj
 0001:00023af0       ?InterlockedDecrement@@YAKPCK@Z 10024af0 f i r2_loader.obj
 0001:00023b00       ?InterlockedExchange@@YAKPCKK@Z 10024b00 f i r2_loader.obj
 0001:00023b10       ?resize@?$svector@U_D3DVERTEXELEMENT9@@$0EB@@@QAEXH@Z 10024b10 f i r2_loader.obj
 0001:00023b20       ?size@?$vector@PAVIRender_Visual@@V?$xalloc@PAVIRender_Visual@@@@@std@@QBEIXZ 10024b20 f i r2_loader.obj
 0001:00023b30       ?size@?$xr_vector@PAVIRender_Visual@@V?$xalloc@PAVIRender_Visual@@@@@@QBEIXZ 10024b30 f i r2_loader.obj
 0001:00023b40       ?strchr@@YAPADPADH@Z       10024b40 f i r2_loader.obj
 0001:00023b50       ?Calculate@CRender@@UAEXXZ 10024b50 f   r2_R_calculate.obj
 0001:00023f40       ?size@?$xr_vector@PAVISpatial@@V?$xalloc@PAVISpatial@@@@@@QBEIXZ 10024f40 f i r2_R_calculate.obj
 0001:00023f50       ??A?$xr_vector@PAVISpatial@@V?$xalloc@PAVISpatial@@@@@@QAEAAPAVISpatial@@I@Z 10024f50 f i r2_R_calculate.obj
 0001:00023f60       ?begin@?$vector@PAVISpatial@@V?$xalloc@PAVISpatial@@@@@std@@QAE?AV?$_Vector_iterator@V?$_Vector_val@U?$_Simple_types@PAVISpatial@@@std@@@std@@@2@XZ 10024f60 f i r2_R_calculate.obj
 0001:00023f70       ?size@?$vector@PAVISpatial@@V?$xalloc@PAVISpatial@@@@@std@@QBEIXZ 10024f70 f i r2_R_calculate.obj
 0001:00023f80       ??D?$_Vector_iterator@V?$_Vector_val@U?$_Simple_types@PAVISpatial@@@std@@@std@@@std@@QBEAAPAVISpatial@@XZ 10024f80 f i r2_R_calculate.obj
 0001:00023f90       ??H?$_Vector_iterator@V?$_Vector_val@U?$_Simple_types@PAVISpatial@@@std@@@std@@@std@@QBE?AV01@H@Z 10024f90 f i r2_R_calculate.obj
 0001:00023fb0       ??0?$_Vector_iterator@V?$_Vector_val@U?$_Simple_types@PAVISpatial@@@std@@@std@@@std@@QAE@PAPAVISpatial@@PBU_Container_base0@1@@Z 10024fb0 f i r2_R_calculate.obj
 0001:00023fc0       ??Y?$_Vector_iterator@V?$_Vector_val@U?$_Simple_types@PAVISpatial@@@std@@@std@@@std@@QAEAAV01@H@Z 10024fc0 f i r2_R_calculate.obj
 0001:00023fd0       ??D?$_Vector_const_iterator@V?$_Vector_val@U?$_Simple_types@PAVISpatial@@@std@@@std@@@std@@QBEABQAVISpatial@@XZ 10024fd0 f i r2_R_calculate.obj
 0001:00023fe0       ??0?$_Vector_const_iterator@V?$_Vector_val@U?$_Simple_types@PAVISpatial@@@std@@@std@@@std@@QAE@PAPAVISpatial@@PBU_Container_base0@1@@Z 10024fe0 f i r2_R_calculate.obj
 0001:00023ff0       ??Y?$_Vector_const_iterator@V?$_Vector_val@U?$_Simple_types@PAVISpatial@@@std@@@std@@@std@@QAEAAV01@H@Z 10024ff0 f i r2_R_calculate.obj
 0001:00024000       ??$_sqr@M@@YAMM@Z          10025000 f i r2_R_calculate.obj
 0001:00024010       ??D?$_Vector_const_iterator@V?$_Vector_val@U?$_Simple_types@URESULT@CDB@@@std@@@std@@@std@@QBEABURESULT@CDB@@XZ 10025010 f i r2_R_calculate.obj
 0001:00024020       ??D?$_Vector_iterator@V?$_Vector_val@U?$_Simple_types@URESULT@CDB@@@std@@@std@@@std@@QBEAAURESULT@CDB@@XZ 10025020 f i r2_R_calculate.obj
 0001:00024030       ??0?$_Vector_const_iterator@V?$_Vector_val@U?$_Simple_types@URESULT@CDB@@@std@@@std@@@std@@QAE@PAURESULT@CDB@@PBU_Container_base0@1@@Z 10025030 f i r2_R_calculate.obj
 0001:00024040       ??0?$_Vector_iterator@V?$_Vector_val@U?$_Simple_types@URESULT@CDB@@@std@@@std@@@std@@QAE@PAURESULT@CDB@@PBU_Container_base0@1@@Z 10025040 f i r2_R_calculate.obj
 0001:00024050       ?begin@?$vector@URESULT@CDB@@V?$xalloc@URESULT@CDB@@@@@std@@QAE?AV?$_Vector_iterator@V?$_Vector_val@U?$_Simple_types@URESULT@CDB@@@std@@@std@@@2@XZ 10025050 f i r2_R_calculate.obj
 0001:00024060       ?size@?$vector@URESULT@CDB@@V?$xalloc@URESULT@CDB@@@@@std@@QBEIXZ 10025060 f i r2_R_calculate.obj
 0001:00024080       ?size@?$xr_vector@URESULT@CDB@@V?$xalloc@URESULT@CDB@@@@@@QBEIXZ 10025080 f i r2_R_calculate.obj
 0001:000240a0       ?set@?$_vector3@M@@QAEAAU1@ABU1@@Z 100250a0 f i r2_R_calculate.obj
 0001:000240c0       _fabsf                     100250c0 f i r2_R_calculate.obj
 0001:000240d0       ?_abs@@YAMM@Z              100250d0 f i r2_R_calculate.obj
 0001:000240e0       ?similar@?$_vector3@M@@QBEHABU1@M@Z 100250e0 f i r2_R_calculate.obj
 0001:00024130       ?pred_area@@YA_NPAVlight@@0@Z 10025130 f i r2_R_lights.obj
 0001:00024150       ?render_lights@CRender@@QAEXAAVlight_Package@@@Z 10025150 f   r2_R_lights.obj
 0001:00024db0       ??4?$xr_vector@PAVlight@@V?$xalloc@PAVlight@@@@@@QAEAAV0@ABV0@@Z 10025db0 f i r2_R_lights.obj
 0001:00024dd0       ?render_indirect@CRender@@QAEXPAVlight@@@Z 10025dd0 f   r2_R_lights.obj
 0001:000252b0       ?normalize@?$_vector3@M@@QAEAAU1@XZ 100262b0 f i r2_R_lights.obj
 0001:00025310       ?intensity@?$_color@M@@QBEMXZ 10026310 f i r2_R_lights.obj
 0001:00025330       ?size@?$FixedMAP@PAUIDirect3DVertexShader9@@UmapNormalPS@R_dsgraph@@Udoug_lea_allocator@@@@QAEIXZ 10026330 f i r2_R_lights.obj
 0001:00025340       ?size@?$FixedMAP@PAUIDirect3DVertexShader9@@UmapMatrixPS@R_dsgraph@@Udoug_lea_allocator@@@@QAEIXZ 10026340 f i r2_R_lights.obj
 0001:00025350       ?size@?$FixedMAP@MU_MatrixItemS@R_dsgraph@@Udoug_lea_allocator@@@@QAEIXZ 10026350 f i r2_R_lights.obj
 0001:00025360       ??4?$vector@PAVlight@@V?$xalloc@PAVlight@@@@@std@@QAEAAV01@ABV01@@Z 10026360 f i r2_R_lights.obj
 0001:00025490       ?reserve@?$vector@PAVlight@@V?$xalloc@PAVlight@@@@@std@@QAEXI@Z 10026490 f i r2_R_lights.obj
 0001:000254c0       ?end@?$vector@PAVlight@@V?$xalloc@PAVlight@@@@@std@@QAE?AV?$_Vector_iterator@V?$_Vector_val@U?$_Simple_types@PAVlight@@@std@@@std@@@2@XZ 100264c0 f i r2_R_lights.obj
 0001:000254d0       ?empty@?$vector@PAVlight@@V?$xalloc@PAVlight@@@@@std@@QBE_NXZ 100264d0 f i r2_R_lights.obj
 0001:000254e0       ?back@?$vector@PAVlight@@V?$xalloc@PAVlight@@@@@std@@QAEAAPAVlight@@XZ 100264e0 f i r2_R_lights.obj
 0001:000254f0       ?push_back@?$vector@PAVlight@@V?$xalloc@PAVlight@@@@@std@@QAEXABQAVlight@@@Z 100264f0 f i r2_R_lights.obj
 0001:00025550       ?pop_back@?$vector@PAVlight@@V?$xalloc@PAVlight@@@@@std@@QAEXXZ 10026550 f i r2_R_lights.obj
 0001:00025560       ?erase@?$vector@PAVlight@@V?$xalloc@PAVlight@@@@@std@@QAE?AV?$_Vector_iterator@V?$_Vector_val@U?$_Simple_types@PAVlight@@@std@@@std@@@2@V?$_Vector_const_iterator@V?$_Vector_val@U?$_Simple_types@PAVlight@@@std@@@std@@@2@@Z 10026560 f i r2_R_lights.obj
 0001:000255a0       ?size@?$xr_vector@Ulight_indirect@@V?$xalloc@Ulight_indirect@@@@@@QBEIXZ 100265a0 f i r2_R_lights.obj
 0001:000255b0       ??A?$xr_vector@Ulight_indirect@@V?$xalloc@Ulight_indirect@@@@@@QAEAAUlight_indirect@@I@Z 100265b0 f i r2_R_lights.obj
 0001:000255c0       ?empty@?$vector@Ulight_indirect@@V?$xalloc@Ulight_indirect@@@@@std@@QBE_NXZ 100265c0 f i r2_R_lights.obj
 0001:000255d0       ?capacity@?$vector@PAVlight@@V?$xalloc@PAVlight@@@@@std@@QBEIXZ 100265d0 f i r2_R_lights.obj
 0001:000255e0       ?_Make_iter@?$vector@PAVlight@@V?$xalloc@PAVlight@@@@@std@@QBE?AV?$_Vector_iterator@V?$_Vector_val@U?$_Simple_types@PAVlight@@@std@@@std@@@2@V?$_Vector_const_iterator@V?$_Vector_val@U?$_Simple_types@PAVlight@@@std@@@std@@@2@@Z 100265e0 f i r2_R_lights.obj
 0001:000255f0       ?max_size@?$vector@PAVlight@@V?$xalloc@PAVlight@@@@@std@@QBEIXZ 100265f0 f i r2_R_lights.obj
 0001:00025600       ?_Buy@?$vector@PAVlight@@V?$xalloc@PAVlight@@@@@std@@IAE_NI@Z 10026600 f i r2_R_lights.obj
 0001:00025660       ?_Inside@?$vector@PAVlight@@V?$xalloc@PAVlight@@@@@std@@IBE_NPBQAVlight@@@Z 10026660 f i r2_R_lights.obj
 0001:00025680       ?_Reallocate@?$vector@PAVlight@@V?$xalloc@PAVlight@@@@@std@@IAEXI@Z 10026680 f i r2_R_lights.obj
 0001:00025740       ?_Reserve@?$vector@PAVlight@@V?$xalloc@PAVlight@@@@@std@@IAEXI@Z 10026740 f i r2_R_lights.obj
 0001:000257b0       ?_Xlen@?$vector@PAVlight@@V?$xalloc@PAVlight@@@@@std@@IBEXXZ 100267b0 f i r2_R_lights.obj
 0001:000257c0       ?_Orphan_range@?$vector@PAVlight@@V?$xalloc@PAVlight@@@@@std@@IBEXPAPAVlight@@0@Z 100267c0 f i r2_R_lights.obj
 0001:000257d0       ?_Change_alloc@?$_Vector_alloc@$0A@U?$_Vec_base_types@PAVlight@@V?$xalloc@PAVlight@@@@@std@@@std@@QAEXABU?$_Wrap_alloc@V?$xalloc@PAVlight@@@@@2@@Z 100267d0 f i r2_R_lights.obj
 0001:000257e0       ?begin@?$vector@Ulight_indirect@@V?$xalloc@Ulight_indirect@@@@@std@@QAE?AV?$_Vector_iterator@V?$_Vector_val@U?$_Simple_types@Ulight_indirect@@@std@@@std@@@2@XZ 100267e0 f i r2_R_lights.obj
 0001:000257f0       ?size@?$vector@Ulight_indirect@@V?$xalloc@Ulight_indirect@@@@@std@@QBEIXZ 100267f0 f i r2_R_lights.obj
 0001:00025800       ??G?$_Vector_iterator@V?$_Vector_val@U?$_Simple_types@PAVlight@@@std@@@std@@@std@@QBE?AV01@H@Z 10026800 f i r2_R_lights.obj
 0001:00025810       ??D?$_Vector_iterator@V?$_Vector_val@U?$_Simple_types@Ulight_indirect@@@std@@@std@@@std@@QBEAAUlight_indirect@@XZ 10026810 f i r2_R_lights.obj
 0001:00025820       ??H?$_Vector_iterator@V?$_Vector_val@U?$_Simple_types@Ulight_indirect@@@std@@@std@@@std@@QBE?AV01@H@Z 10026820 f i r2_R_lights.obj
 0001:00025840       ?_Unused_capacity@?$vector@PAVlight@@V?$xalloc@PAVlight@@@@@std@@QBEIXZ 10026840 f i r2_R_lights.obj
 0001:00025850       ?_Grow_to@?$vector@PAVlight@@V?$xalloc@PAVlight@@@@@std@@IBEII@Z 10026850 f i r2_R_lights.obj
 0001:00025890       ?allocate@?$_Wrap_alloc@V?$xalloc@PAVlight@@@@@std@@QAEPAPAVlight@@I@Z 10026890 f i r2_R_lights.obj
 0001:000258b0       ?max_size@?$_Wrap_alloc@V?$xalloc@PAVlight@@@@@std@@QBEIXZ 100268b0 f i r2_R_lights.obj
 0001:000258c0       ??Z?$_Vector_iterator@V?$_Vector_val@U?$_Simple_types@PAVlight@@@std@@@std@@@std@@QAEAAV01@H@Z 100268c0 f i r2_R_lights.obj
 0001:000258d0       ??0?$_Vector_iterator@V?$_Vector_val@U?$_Simple_types@Ulight_indirect@@@std@@@std@@@std@@QAE@PAUlight_indirect@@PBU_Container_base0@1@@Z 100268d0 f i r2_R_lights.obj
 0001:000258e0       ??Y?$_Vector_iterator@V?$_Vector_val@U?$_Simple_types@Ulight_indirect@@@std@@@std@@@std@@QAEAAV01@H@Z 100268e0 f i r2_R_lights.obj
 0001:000258f0       ??D?$_Vector_const_iterator@V?$_Vector_val@U?$_Simple_types@Ulight_indirect@@@std@@@std@@@std@@QBEABUlight_indirect@@XZ 100268f0 f i r2_R_lights.obj
 0001:00025900       ?allocate@?$xalloc@PAVlight@@@@QBEPAPAVlight@@IPBX@Z 10026900 f i r2_R_lights.obj
 0001:00025920       ?max_size@?$allocator_traits@V?$xalloc@PAVlight@@@@@std@@SAIABV?$xalloc@PAVlight@@@@@Z 10026920 f i r2_R_lights.obj
 0001:00025930       ??0?$_Vector_const_iterator@V?$_Vector_val@U?$_Simple_types@Ulight_indirect@@@std@@@std@@@std@@QAE@PAUlight_indirect@@PBU_Container_base0@1@@Z 10026930 f i r2_R_lights.obj
 0001:00025940       ??Y?$_Vector_const_iterator@V?$_Vector_val@U?$_Simple_types@Ulight_indirect@@@std@@@std@@@std@@QAEAAV01@H@Z 10026940 f i r2_R_lights.obj
 0001:00025950       ??$sort@V?$_Vector_iterator@V?$_Vector_val@U?$_Simple_types@PAVlight@@@std@@@std@@@std@@P6A_NPAVlight@@0@Z@std@@YAXV?$_Vector_iterator@V?$_Vector_val@U?$_Simple_types@PAVlight@@@std@@@std@@@0@0P6A_NPAVlight@@1@Z@Z 10026950 f i r2_R_lights.obj
 0001:00025970       ??$reverse@V?$_Vector_iterator@V?$_Vector_val@U?$_Simple_types@PAVlight@@@std@@@std@@@std@@@std@@YAXV?$_Vector_iterator@V?$_Vector_val@U?$_Simple_types@PAVlight@@@std@@@std@@@0@0@Z 10026970 f i r2_R_lights.obj
 0001:000259a0       ??$?9V?$xalloc@PAVlight@@@@V0@@std@@YA_NABU?$_Wrap_alloc@V?$xalloc@PAVlight@@@@@0@0@Z 100269a0 f i r2_R_lights.obj
 0001:000259b0       ??$_Copy_impl@PAPAVlight@@PAPAV1@@std@@YAPAPAVlight@@PAPAV1@00@Z 100269b0 f i r2_R_lights.obj
 0001:000259e0       ??$_Ucopy@PAPAVlight@@@?$vector@PAVlight@@V?$xalloc@PAVlight@@@@@std@@IAEPAPAVlight@@PAPAV2@00@Z 100269e0 f i r2_R_lights.obj
 0001:00025a00       ??$addressof@QAVlight@@@std@@YAPBQAVlight@@ABQAV1@@Z 10026a00 f i r2_R_lights.obj
 0001:00025a10       ??$construct@PAVlight@@AAPAV1@@?$_Wrap_alloc@V?$xalloc@PAVlight@@@@@std@@QAEXPAPAVlight@@AAPAV2@@Z 10026a10 f i r2_R_lights.obj
 0001:00025a30       ??$construct@PAVlight@@ABQAV1@@?$_Wrap_alloc@V?$xalloc@PAVlight@@@@@std@@QAEXPAPAVlight@@ABQAV2@@Z 10026a30 f i r2_R_lights.obj
 0001:00025a50       ??$destroy@PAVlight@@@?$_Wrap_alloc@V?$xalloc@PAVlight@@@@@std@@QAEXPAPAVlight@@@Z 10026a50 f i r2_R_lights.obj
 0001:00025a60       ??$_Move@PAPAVlight@@PAPAV1@@std@@YAPAPAVlight@@PAPAV1@00@Z 10026a60 f i r2_R_lights.obj
 0001:00025a90       ??$_Umove@PAPAVlight@@@?$vector@PAVlight@@V?$xalloc@PAVlight@@@@@std@@IAEPAPAVlight@@PAPAV2@00@Z 10026a90 f i r2_R_lights.obj
 0001:00025ac0       ??$xr_alloc@PAVlight@@@@YAPAPAVlight@@I@Z 10026ac0 f i r2_R_lights.obj
 0001:00025ae0       ??$_Fn@V?$xalloc@PAVlight@@@@@_Alloc_max_size@std@@SAIHABV?$xalloc@PAVlight@@@@@Z 10026ae0 f i r2_R_lights.obj
 0001:00025af0       ?max_size@?$xalloc@PAVlight@@@@QBEIXZ 10026af0 f i r2_R_lights.obj
 0001:00025b00       ??G?$_Vector_iterator@V?$_Vector_val@U?$_Simple_types@PAVlight@@@std@@@std@@@std@@QBEHABV?$_Vector_const_iterator@V?$_Vector_val@U?$_Simple_types@PAVlight@@@std@@@std@@@1@@Z 10026b00 f i r2_R_lights.obj
 0001:00025b10       ??G?$_Vector_const_iterator@V?$_Vector_val@U?$_Simple_types@PAVlight@@@std@@@std@@@std@@QBEHABV01@@Z 10026b10 f i r2_R_lights.obj
 0001:00025b20       ?_Compat@?$_Vector_const_iterator@V?$_Vector_val@U?$_Simple_types@PAVlight@@@std@@@std@@@std@@QBEXABV12@@Z 10026b20 f i r2_R_lights.obj
 0001:00025b30       ??$_Unchecked@V?$_Vector_val@U?$_Simple_types@PAVlight@@@std@@@std@@@std@@YAPAPAVlight@@V?$_Vector_iterator@V?$_Vector_val@U?$_Simple_types@PAVlight@@@std@@@std@@@0@@Z 10026b30 f i r2_R_lights.obj
 0001:00025b40       ??$_Sort@PAPAVlight@@HP6A_NPAV1@0@Z@std@@YAXPAPAVlight@@0HP6A_NPAV1@1@Z@Z 10026b40 f i r2_R_lights.obj
 0001:00025c30       ??$_Iter_cat@V?$_Vector_iterator@V?$_Vector_val@U?$_Simple_types@PAVlight@@@std@@@std@@@std@@@std@@YA?AUrandom_access_iterator_tag@0@ABV?$_Vector_iterator@V?$_Vector_val@U?$_Simple_types@PAVlight@@@std@@@std@@@0@@Z 10026c30 f i r2_R_lights.obj
 0001:00025c40       ??$_Reverse@PAPAVlight@@@std@@YAXPAPAVlight@@0Ubidirectional_iterator_tag@0@@Z 10026c40 f i r2_R_lights.obj
 0001:00025c60       ??$?8V?$xalloc@PAVlight@@@@V0@@std@@YA_NABU?$_Wrap_alloc@V?$xalloc@PAVlight@@@@@0@0@Z 10026c60 f i r2_R_lights.obj
 0001:00025c70       ??$_Copy_impl@PAPAVlight@@PAPAV1@@std@@YAPAPAVlight@@PAPAV1@00U_Scalar_ptr_iterator_tag@0@@Z 10026c70 f i r2_R_lights.obj
 0001:00025ca0       ??$_Uninitialized_copy@PAPAVlight@@PAPAV1@U?$_Wrap_alloc@V?$xalloc@PAVlight@@@@@std@@@std@@YAPAPAVlight@@PAPAV1@00AAU?$_Wrap_alloc@V?$xalloc@PAVlight@@@@@0@@Z 10026ca0 f i r2_R_lights.obj
 0001:00025cc0       ??$forward@AAPAVlight@@@std@@YAAAPAVlight@@AAPAV1@@Z 10026cc0 f i r2_R_lights.obj
 0001:00025cd0       ??$construct@PAVlight@@AAPAV1@@?$allocator_traits@V?$xalloc@PAVlight@@@@@std@@SAXAAV?$xalloc@PAVlight@@@@PAPAVlight@@AAPAV3@@Z 10026cd0 f i r2_R_lights.obj
 0001:00025ce0       ??$forward@ABQAVlight@@@std@@YAABQAVlight@@ABQAV1@@Z 10026ce0 f i r2_R_lights.obj
 0001:00025cf0       ??$construct@PAVlight@@ABQAV1@@?$allocator_traits@V?$xalloc@PAVlight@@@@@std@@SAXAAV?$xalloc@PAVlight@@@@PAPAVlight@@ABQAV3@@Z 10026cf0 f i r2_R_lights.obj
 0001:00025d00       ??$destroy@PAVlight@@@?$allocator_traits@V?$xalloc@PAVlight@@@@@std@@SAXAAV?$xalloc@PAVlight@@@@PAPAVlight@@@Z 10026d00 f i r2_R_lights.obj
 0001:00025d10       ??$_Move@PAPAVlight@@PAPAV1@@std@@YAPAPAVlight@@PAPAV1@00U_Scalar_ptr_iterator_tag@0@@Z 10026d10 f i r2_R_lights.obj
 0001:00025d40       ??$_Uninitialized_move@PAPAVlight@@PAPAV1@U?$_Wrap_alloc@V?$xalloc@PAVlight@@@@@std@@@std@@YAPAPAVlight@@PAPAV1@00AAU?$_Wrap_alloc@V?$xalloc@PAVlight@@@@@0@@Z 10026d40 f i r2_R_lights.obj
 0001:00025d60       ??0?$xalloc@PAVlight@@@@QAE@ABV0@@Z 10026d60 f i r2_R_lights.obj
 0001:00025d70       ?_Unchecked@?$_Vector_iterator@V?$_Vector_val@U?$_Simple_types@PAVlight@@@std@@@std@@@std@@QBEPAPAVlight@@XZ 10026d70 f i r2_R_lights.obj
 0001:00025d80       ??$_Unguarded_partition@PAPAVlight@@P6A_NPAV1@0@Z@std@@YA?AU?$pair@PAPAVlight@@PAPAV1@@0@PAPAVlight@@0P6A_NPAV2@1@Z@Z 10026d80 f i r2_R_lights.obj
 0001:00025f70       ??$make_heap@PAPAVlight@@P6A_NPAV1@0@Z@std@@YAXPAPAVlight@@0P6A_NPAV1@1@Z@Z 10026f70 f i r2_R_lights.obj
 0001:00025f90       ??$sort_heap@PAPAVlight@@P6A_NPAV1@0@Z@std@@YAXPAPAVlight@@0P6A_NPAV1@1@Z@Z 10026f90 f i r2_R_lights.obj
 0001:00025fa0       ??$_Insertion_sort@PAPAVlight@@P6A_NPAV1@0@Z@std@@YAXPAPAVlight@@0P6A_NPAV1@1@Z@Z 10026fa0 f i r2_R_lights.obj
 0001:00025fb0       ??$iter_swap@PAPAVlight@@PAPAV1@@std@@YAXPAPAVlight@@0@Z 10026fb0 f i r2_R_lights.obj
 0001:00025fc0       ??$?8PAVlight@@PAV0@@@YA_NABV?$xalloc@PAVlight@@@@0@Z 10026fc0 f i r2_R_lights.obj
 0001:00025fd0       ??$_Unchecked@PAPAVlight@@@std@@YAPAPAVlight@@PAPAV1@@Z 10026fd0 f i r2_R_lights.obj
 0001:00025fe0       ??$_Uninit_copy@PAPAVlight@@PAPAV1@U?$_Wrap_alloc@V?$xalloc@PAVlight@@@@@std@@@std@@YAPAPAVlight@@PAPAV1@00AAU?$_Wrap_alloc@V?$xalloc@PAVlight@@@@@0@@Z 10026fe0 f i r2_R_lights.obj
 0001:00026000       ??$_Rechecked@PAPAVlight@@PAPAV1@@std@@YAAAPAPAVlight@@AAPAPAV1@PAPAV1@@Z 10027000 f i r2_R_lights.obj
 0001:00026010       ??$_Fn@V?$xalloc@PAVlight@@@@PAVlight@@AAPAV2@@_Alloc_construct@std@@SAXHAAV?$xalloc@PAVlight@@@@PAPAVlight@@AAPAV3@@Z 10027010 f i r2_R_lights.obj
 0001:00026030       ??$_Fn@V?$xalloc@PAVlight@@@@PAVlight@@ABQAV2@@_Alloc_construct@std@@SAXHAAV?$xalloc@PAVlight@@@@PAPAVlight@@ABQAV3@@Z 10027030 f i r2_R_lights.obj
 0001:00026050       ??$_Fn@V?$xalloc@PAVlight@@@@PAVlight@@@_Alloc_destroy@std@@SAXHAAV?$xalloc@PAVlight@@@@PAPAVlight@@@Z 10027050 f i r2_R_lights.obj
 0001:00026060       ??$_Uninit_move@PAPAVlight@@PAPAV1@U?$_Wrap_alloc@V?$xalloc@PAVlight@@@@@std@@@std@@YAPAPAVlight@@PAPAV1@00AAU?$_Wrap_alloc@V?$xalloc@PAVlight@@@@@0@@Z 10027060 f i r2_R_lights.obj
 0001:00026080       ?construct@?$xalloc@PAVlight@@@@QAEXPAPAVlight@@ABQAV2@@Z 10027080 f i r2_R_lights.obj
 0001:000260a0       ?destroy@?$xalloc@PAVlight@@@@QAEXPAPAVlight@@@Z 100270a0 f i r2_R_lights.obj
 0001:000260b0       ??$_Median@PAPAVlight@@P6A_NPAV1@0@Z@std@@YAXPAPAVlight@@00P6A_NPAV1@1@Z@Z 100270b0 f i r2_R_lights.obj
 0001:00026280       ??$?0AAPAPAVlight@@AAPAPAV0@X@?$pair@PAPAVlight@@PAPAV1@@std@@QAE@AAPAPAVlight@@0@Z 10027280 f i r2_R_lights.obj
 0001:000262a0       ??$_Dist_type@PAPAVlight@@@std@@YAPAHPAPAVlight@@@Z 100272a0 f i r2_R_lights.obj
 0001:000262b0       ??$_Val_type@PAPAVlight@@@std@@YAPAPAVlight@@PAPAV1@@Z 100272b0 f i r2_R_lights.obj
 0001:000262c0       ??$_Make_heap@PAPAVlight@@HPAV1@P6A_NPAV1@0@Z@std@@YAXPAPAVlight@@0P6A_NPAV1@1@ZPAH0@Z 100272c0 f i r2_R_lights.obj
 0001:00026380       ??$_Sort_heap@PAPAVlight@@P6A_NPAV1@0@Z@std@@YAXPAPAVlight@@0P6A_NPAV1@1@Z@Z 10027380 f i r2_R_lights.obj
 0001:000263e0       ??$_Insertion_sort1@PAPAVlight@@P6A_NPAV1@0@ZPAV1@@std@@YAXPAPAVlight@@0P6A_NPAV1@1@Z0@Z 100273e0 f i r2_R_lights.obj
 0001:00026490       ??$swap@PAVlight@@@std@@YAXAAPAVlight@@0@Z 10027490 f i r2_R_lights.obj
 0001:000264a0       ??$_Uninit_copy@PAPAVlight@@PAPAV1@V?$xalloc@PAVlight@@@@@std@@YAPAPAVlight@@PAPAV1@00AAU?$_Wrap_alloc@V?$xalloc@PAVlight@@@@@0@U_Scalar_ptr_iterator_tag@0@@Z 100274a0 f i r2_R_lights.obj
 0001:000264c0       ??$_Uninit_move@PAPAVlight@@PAPAV1@V?$xalloc@PAVlight@@@@PAV1@@std@@YAPAPAVlight@@PAPAV1@00AAU?$_Wrap_alloc@V?$xalloc@PAVlight@@@@@0@0U_Scalar_ptr_iterator_tag@0@@Z 100274c0 f i r2_R_lights.obj
 0001:000264e0       ??$_Construct@PAVlight@@ABQAV1@@std@@YAXPAPAVlight@@ABQAV1@@Z 100274e0 f i r2_R_lights.obj
 0001:000264f0       ??$_Destroy@PAVlight@@@std@@YAXPAPAVlight@@@Z 100274f0 f i r2_R_lights.obj
 0001:00026500       ??$_Med3@PAPAVlight@@P6A_NPAV1@0@Z@std@@YAXPAPAVlight@@00P6A_NPAV1@1@Z@Z 10027500 f i r2_R_lights.obj
 0001:00026560       ??$forward@AAPAPAVlight@@@std@@YAAAPAPAVlight@@AAPAPAV1@@Z 10027560 f i r2_R_lights.obj
 0001:00026570       ??$_Move@AAPAVlight@@@std@@YA$$QAPAVlight@@AAPAV1@@Z 10027570 f i r2_R_lights.obj
 0001:00026580       ??$_Adjust_heap@PAPAVlight@@HPAV1@P6A_NPAV1@0@Z@std@@YAXPAPAVlight@@HH$$QAPAV1@P6A_NPAV1@2@Z@Z 10027580 f i r2_R_lights.obj
 0001:00026630       ??$_Pop_heap@PAPAVlight@@P6A_NPAV1@0@Z@std@@YAXPAPAVlight@@0P6A_NPAV1@1@Z@Z 10027630 f i r2_R_lights.obj
 0001:00026660       ??$_Move_backward@PAPAVlight@@PAPAV1@@std@@YAPAPAVlight@@PAPAV1@00@Z 10027660 f i r2_R_lights.obj
 0001:00026680       ??$_Uninit_copy@PAPAVlight@@PAPAV1@V?$xalloc@PAVlight@@@@@std@@YAPAPAVlight@@PAPAV1@00AAU?$_Wrap_alloc@V?$xalloc@PAVlight@@@@@0@U_Nonscalar_ptr_iterator_tag@0@@Z 10027680 f i r2_R_lights.obj
 0001:000266f0       ??$_Uninit_move@PAPAVlight@@PAPAV1@V?$xalloc@PAVlight@@@@PAV1@@std@@YAPAPAVlight@@PAPAV1@00AAU?$_Wrap_alloc@V?$xalloc@PAVlight@@@@@0@0U_Nonscalar_ptr_iterator_tag@0@@Z 100276f0 f i r2_R_lights.obj
 0001:00026760       ??$_Push_heap@PAPAVlight@@HPAV1@P6A_NPAV1@0@Z@std@@YAXPAPAVlight@@HH$$QAPAV1@P6A_NPAV1@2@Z@Z 10027760 f i r2_R_lights.obj
 0001:000267d0       ??$_Pop_heap_0@PAPAVlight@@PAV1@P6A_NPAV1@0@Z@std@@YAXPAPAVlight@@0P6A_NPAV1@1@Z0@Z 100277d0 f i r2_R_lights.obj
 0001:00026800       ??$_Move_backward@PAPAVlight@@PAPAV1@@std@@YAPAPAVlight@@PAPAV1@00U_Scalar_ptr_iterator_tag@0@@Z 10027800 f i r2_R_lights.obj
 0001:00026820       ??$construct@PAVlight@@PAV1@@?$_Wrap_alloc@V?$xalloc@PAVlight@@@@@std@@QAEXPAPAVlight@@$$QAPAV2@@Z 10027820 f i r2_R_lights.obj
 0001:00026840       ??$_Pop_heap@PAPAVlight@@HPAV1@P6A_NPAV1@0@Z@std@@YAXPAPAVlight@@00$$QAPAV1@P6A_NPAV1@2@ZPAH@Z 10027840 f i r2_R_lights.obj
 0001:00026870       ??$forward@PAVlight@@@std@@YA$$QAPAVlight@@AAPAV1@@Z 10027870 f i r2_R_lights.obj
 0001:00026880       ??$construct@PAVlight@@PAV1@@?$allocator_traits@V?$xalloc@PAVlight@@@@@std@@SAXAAV?$xalloc@PAVlight@@@@PAPAVlight@@$$QAPAV3@@Z 10027880 f i r2_R_lights.obj
 0001:00026890       ??$_Fn@V?$xalloc@PAVlight@@@@PAVlight@@PAV2@@_Alloc_construct@std@@SAXHAAV?$xalloc@PAVlight@@@@PAPAVlight@@$$QAPAV3@@Z 10027890 f i r2_R_lights.obj
 0001:000268b0       ?crossproduct@?$_vector3@M@@QAEAAU1@ABU1@0@Z 100278b0 f i r2_R_lights.obj
 0001:00026910       ?dotproduct@?$_vector3@M@@QBEMABU1@@Z 10027910 f i r2_R_lights.obj
 0001:00026940       ?set@?$_color@M@@QAEAAU1@MMMM@Z 10027940 f i r2_R_lights.obj
 0001:00026960       ?set_color@light@@UAEXMMM@Z 10027960 f i r2_R_lights.obj
 0001:00026990       ?mul@?$_vector3@M@@QAEAAU1@M@Z 10027990 f i r2_R_lights.obj
 0001:000269c0       ?set_shadow@light@@UAEX_N@Z 100279c0 f i r2_R_lights.obj
 0001:000269e0       ?set_type@light@@UAEXW4LT@IRender_Light@@@Z 100279e0 f i r2_R_lights.obj
 0001:000269f0       ?is@?$_flags@I@@QBEHI@Z    100279f0 f i r2_R_lights.obj
 0001:00026a10       ?empty@?$vector@USMAP_Rect@@V?$xalloc@USMAP_Rect@@@@@std@@QBE_NXZ 10027a10 f i r2_R_lights.obj
 0001:00026a20       ?size@?$xr_vector@U?$_vector2@H@@V?$xalloc@U?$_vector2@H@@@@@@QBEIXZ 10027a20 f i r2_R_lights.obj
 0001:00026a30       ?add@?$_vector2@H@@QAEAAU1@H@Z 10027a30 f i r2_R_lights.obj
 0001:00026a40       ?setup@SMAP_Rect@@QAEXAAU?$_vector2@H@@I@Z 10027a40 f i r2_R_lights.obj
 0001:00026a70       ??D?$_Vector_const_iterator@V?$_Vector_val@U?$_Simple_types@U?$_vector2@H@@@std@@@std@@@std@@QBEABU?$_vector2@H@@XZ 10027a70 f i r2_R_lights.obj
 0001:00026a80       ??D?$_Vector_iterator@V?$_Vector_val@U?$_Simple_types@U?$_vector2@H@@@std@@@std@@@std@@QBEAAU?$_vector2@H@@XZ 10027a80 f i r2_R_lights.obj
 0001:00026a90       ??A?$xr_vector@U?$_vector2@H@@V?$xalloc@U?$_vector2@H@@@@@@QAEAAU?$_vector2@H@@I@Z 10027a90 f i r2_R_lights.obj
 0001:00026aa0       ?size@?$xr_vector@USMAP_Rect@@V?$xalloc@USMAP_Rect@@@@@@QBEIXZ 10027aa0 f i r2_R_lights.obj
 0001:00026ab0       ?intersect@SMAP_Rect@@QAE_NAAU1@@Z 10027ab0 f i r2_R_lights.obj
 0001:00026ae0       ??D?$_Vector_const_iterator@V?$_Vector_val@U?$_Simple_types@USMAP_Rect@@@std@@@std@@@std@@QBEABUSMAP_Rect@@XZ 10027ae0 f i r2_R_lights.obj
 0001:00026af0       ??D?$_Vector_iterator@V?$_Vector_val@U?$_Simple_types@USMAP_Rect@@@std@@@std@@@std@@QBEAAUSMAP_Rect@@XZ 10027af0 f i r2_R_lights.obj
 0001:00026b00       ??Y?$_Vector_const_iterator@V?$_Vector_val@U?$_Simple_types@USMAP_Rect@@@std@@@std@@@std@@QAEAAV01@H@Z 10027b00 f i r2_R_lights.obj
 0001:00026b10       ??Y?$_Vector_iterator@V?$_Vector_val@U?$_Simple_types@USMAP_Rect@@@std@@@std@@@std@@QAEAAV01@H@Z 10027b10 f i r2_R_lights.obj
 0001:00026b20       ??H?$_Vector_iterator@V?$_Vector_val@U?$_Simple_types@USMAP_Rect@@@std@@@std@@@std@@QBE?AV01@H@Z 10027b20 f i r2_R_lights.obj
 0001:00026b40       ??0?$_Vector_const_iterator@V?$_Vector_val@U?$_Simple_types@USMAP_Rect@@@std@@@std@@@std@@QAE@PAUSMAP_Rect@@PBU_Container_base0@1@@Z 10027b40 f i r2_R_lights.obj
 0001:00026b50       ??0?$_Vector_iterator@V?$_Vector_val@U?$_Simple_types@USMAP_Rect@@@std@@@std@@@std@@QAE@PAUSMAP_Rect@@PBU_Container_base0@1@@Z 10027b50 f i r2_R_lights.obj
 0001:00026b60       ?begin@?$vector@USMAP_Rect@@V?$xalloc@USMAP_Rect@@@@@std@@QAE?AV?$_Vector_iterator@V?$_Vector_val@U?$_Simple_types@USMAP_Rect@@@std@@@std@@@2@XZ 10027b60 f i r2_R_lights.obj
 0001:00026b70       ??A?$xr_vector@USMAP_Rect@@V?$xalloc@USMAP_Rect@@@@@@QAEAAUSMAP_Rect@@I@Z 10027b70 f i r2_R_lights.obj
 0001:00026b80       ??$move@AAU?$_vector2@H@@@std@@YA$$QAU?$_vector2@H@@AAU1@@Z 10027b80 f i r2_R_lights.obj
 0001:00026b90       ??$_Move@PAU?$_vector2@H@@PAU1@@std@@YAPAU?$_vector2@H@@PAU1@00U_Nonscalar_ptr_iterator_tag@0@@Z 10027b90 f i r2_R_lights.obj
 0001:00026bc0       ??$_Move@PAU?$_vector2@H@@PAU1@@std@@YAPAU?$_vector2@H@@PAU1@00@Z 10027bc0 f i r2_R_lights.obj
 0001:00026bf0       ?_Make_iter@?$vector@U?$_vector2@H@@V?$xalloc@U?$_vector2@H@@@@@std@@QBE?AV?$_Vector_iterator@V?$_Vector_val@U?$_Simple_types@U?$_vector2@H@@@std@@@std@@@2@V?$_Vector_const_iterator@V?$_Vector_val@U?$_Simple_types@U?$_vector2@H@@@std@@@std@@@2@@Z 10027bf0 f i r2_R_lights.obj
 0001:00026c00       ?erase@?$vector@U?$_vector2@H@@V?$xalloc@U?$_vector2@H@@@@@std@@QAE?AV?$_Vector_iterator@V?$_Vector_val@U?$_Simple_types@U?$_vector2@H@@@std@@@std@@@2@V?$_Vector_const_iterator@V?$_Vector_val@U?$_Simple_types@U?$_vector2@H@@@std@@@std@@@2@@Z 10027c00 f i r2_R_lights.obj
 0001:00026c40       ??Y?$_Vector_const_iterator@V?$_Vector_val@U?$_Simple_types@U?$_vector2@H@@@std@@@std@@@std@@QAEAAV01@H@Z 10027c40 f i r2_R_lights.obj
 0001:00026c50       ??Y?$_Vector_iterator@V?$_Vector_val@U?$_Simple_types@U?$_vector2@H@@@std@@@std@@@std@@QAEAAV01@H@Z 10027c50 f i r2_R_lights.obj
 0001:00026c60       ??H?$_Vector_iterator@V?$_Vector_val@U?$_Simple_types@U?$_vector2@H@@@std@@@std@@@std@@QBE?AV01@H@Z 10027c60 f i r2_R_lights.obj
 0001:00026c80       ??0?$_Vector_const_iterator@V?$_Vector_val@U?$_Simple_types@U?$_vector2@H@@@std@@@std@@@std@@QAE@PAU?$_vector2@H@@PBU_Container_base0@1@@Z 10027c80 f i r2_R_lights.obj
 0001:00026c90       ??0?$_Vector_iterator@V?$_Vector_val@U?$_Simple_types@U?$_vector2@H@@@std@@@std@@@std@@QAE@PAU?$_vector2@H@@PBU_Container_base0@1@@Z 10027c90 f i r2_R_lights.obj
 0001:00026ca0       ?begin@?$vector@U?$_vector2@H@@V?$xalloc@U?$_vector2@H@@@@@std@@QAE?AV?$_Vector_iterator@V?$_Vector_val@U?$_Simple_types@U?$_vector2@H@@@std@@@std@@@2@XZ 10027ca0 f i r2_R_lights.obj
 0001:00026cb0       ?_Inside@?$vector@USMAP_Rect@@V?$xalloc@USMAP_Rect@@@@@std@@IBE_NPBUSMAP_Rect@@@Z 10027cb0 f i r2_R_lights.obj
 0001:00026cd0       ??$addressof@$$CBUSMAP_Rect@@@std@@YAPBUSMAP_Rect@@ABU1@@Z 10027cd0 f i r2_R_lights.obj
 0001:00026ce0       ??$_Fn@V?$xalloc@USMAP_Rect@@@@USMAP_Rect@@AAU2@@_Alloc_construct@std@@SAXHAAV?$xalloc@USMAP_Rect@@@@PAUSMAP_Rect@@AAU3@@Z 10027ce0 f i r2_R_lights.obj
 0001:00026d00       ??$construct@USMAP_Rect@@AAU1@@?$allocator_traits@V?$xalloc@USMAP_Rect@@@@@std@@SAXAAV?$xalloc@USMAP_Rect@@@@PAUSMAP_Rect@@AAU3@@Z 10027d00 f i r2_R_lights.obj
 0001:00026d20       ??$forward@AAUSMAP_Rect@@@std@@YAAAUSMAP_Rect@@AAU1@@Z 10027d20 f i r2_R_lights.obj
 0001:00026d30       ??$construct@USMAP_Rect@@AAU1@@?$_Wrap_alloc@V?$xalloc@USMAP_Rect@@@@@std@@QAEXPAUSMAP_Rect@@AAU2@@Z 10027d30 f i r2_R_lights.obj
 0001:00026d50       ?_Unused_capacity@?$vector@USMAP_Rect@@V?$xalloc@USMAP_Rect@@@@@std@@QBEIXZ 10027d50 f i r2_R_lights.obj
 0001:00026d60       ?_Xlen@?$vector@USMAP_Rect@@V?$xalloc@USMAP_Rect@@@@@std@@IBEXXZ 10027d60 f i r2_R_lights.obj
 0001:00026d70       ??$xr_alloc@USMAP_Rect@@@@YAPAUSMAP_Rect@@I@Z 10027d70 f i r2_R_lights.obj
 0001:00026d90       ?allocate@?$xalloc@USMAP_Rect@@@@QBEPAUSMAP_Rect@@IPBX@Z 10027d90 f i r2_R_lights.obj
 0001:00026db0       ?allocate@?$_Wrap_alloc@V?$xalloc@USMAP_Rect@@@@@std@@QAEPAUSMAP_Rect@@I@Z 10027db0 f i r2_R_lights.obj
 0001:00026dd0       ??$_Rechecked@PAUSMAP_Rect@@PAU1@@std@@YAAAPAUSMAP_Rect@@AAPAU1@PAU1@@Z 10027dd0 f i r2_R_lights.obj
 0001:00026de0       ??$_Fn@V?$xalloc@USMAP_Rect@@@@USMAP_Rect@@U2@@_Alloc_construct@std@@SAXHAAV?$xalloc@USMAP_Rect@@@@PAUSMAP_Rect@@$$QAU3@@Z 10027de0 f i r2_R_lights.obj
 0001:00026e00       ??$construct@USMAP_Rect@@U1@@?$allocator_traits@V?$xalloc@USMAP_Rect@@@@@std@@SAXAAV?$xalloc@USMAP_Rect@@@@PAUSMAP_Rect@@$$QAU3@@Z 10027e00 f i r2_R_lights.obj
 0001:00026e20       ??$forward@USMAP_Rect@@@std@@YA$$QAUSMAP_Rect@@AAU1@@Z 10027e20 f i r2_R_lights.obj
 0001:00026e30       ??$construct@USMAP_Rect@@U1@@?$_Wrap_alloc@V?$xalloc@USMAP_Rect@@@@@std@@QAEXPAUSMAP_Rect@@$$QAU2@@Z 10027e30 f i r2_R_lights.obj
 0001:00026e50       ??$_Uninit_move@PAUSMAP_Rect@@PAU1@V?$xalloc@USMAP_Rect@@@@U1@@std@@YAPAUSMAP_Rect@@PAU1@00AAU?$_Wrap_alloc@V?$xalloc@USMAP_Rect@@@@@0@0U_Nonscalar_ptr_iterator_tag@0@@Z 10027e50 f i r2_R_lights.obj
 0001:00026ec0       ??$_Val_type@PAUSMAP_Rect@@@std@@YAPAUSMAP_Rect@@PAU1@@Z 10027ec0 f i r2_R_lights.obj
 0001:00026ed0       ??$_Uninit_move@PAUSMAP_Rect@@PAU1@U?$_Wrap_alloc@V?$xalloc@USMAP_Rect@@@@@std@@@std@@YAPAUSMAP_Rect@@PAU1@00AAU?$_Wrap_alloc@V?$xalloc@USMAP_Rect@@@@@0@@Z 10027ed0 f i r2_R_lights.obj
 0001:00026ef0       ??$_Unchecked@PAUSMAP_Rect@@@std@@YAPAUSMAP_Rect@@PAU1@@Z 10027ef0 f i r2_R_lights.obj
 0001:00026f00       ??$_Uninitialized_move@PAUSMAP_Rect@@PAU1@U?$_Wrap_alloc@V?$xalloc@USMAP_Rect@@@@@std@@@std@@YAPAUSMAP_Rect@@PAU1@00AAU?$_Wrap_alloc@V?$xalloc@USMAP_Rect@@@@@0@@Z 10027f00 f i r2_R_lights.obj
 0001:00026f20       ??$_Umove@PAUSMAP_Rect@@@?$vector@USMAP_Rect@@V?$xalloc@USMAP_Rect@@@@@std@@IAEPAUSMAP_Rect@@PAU2@00@Z 10027f20 f i r2_R_lights.obj
 0001:00026f40       ?_Reallocate@?$vector@USMAP_Rect@@V?$xalloc@USMAP_Rect@@@@@std@@IAEXI@Z 10027f40 f i r2_R_lights.obj
 0001:00027000       ?capacity@?$vector@USMAP_Rect@@V?$xalloc@USMAP_Rect@@@@@std@@QBEIXZ 10028000 f i r2_R_lights.obj
 0001:00027010       ?max_size@?$xalloc@USMAP_Rect@@@@QBEIXZ 10028010 f i r2_R_lights.obj
 0001:00027020       ??$_Fn@V?$xalloc@USMAP_Rect@@@@@_Alloc_max_size@std@@SAIHABV?$xalloc@USMAP_Rect@@@@@Z 10028020 f i r2_R_lights.obj
 0001:00027030       ?max_size@?$allocator_traits@V?$xalloc@USMAP_Rect@@@@@std@@SAIABV?$xalloc@USMAP_Rect@@@@@Z 10028030 f i r2_R_lights.obj
 0001:00027040       ?max_size@?$_Wrap_alloc@V?$xalloc@USMAP_Rect@@@@@std@@QBEIXZ 10028040 f i r2_R_lights.obj
 0001:00027050       ?max_size@?$vector@USMAP_Rect@@V?$xalloc@USMAP_Rect@@@@@std@@QBEIXZ 10028050 f i r2_R_lights.obj
 0001:00027060       ?_Grow_to@?$vector@USMAP_Rect@@V?$xalloc@USMAP_Rect@@@@@std@@IBEII@Z 10028060 f i r2_R_lights.obj
 0001:000270a0       ?size@?$vector@USMAP_Rect@@V?$xalloc@USMAP_Rect@@@@@std@@QBEIXZ 100280a0 f i r2_R_lights.obj
 0001:000270b0       ?_Reserve@?$vector@USMAP_Rect@@V?$xalloc@USMAP_Rect@@@@@std@@IAEXI@Z 100280b0 f i r2_R_lights.obj
 0001:00027120       ?_Orphan_range@?$vector@USMAP_Rect@@V?$xalloc@USMAP_Rect@@@@@std@@IBEXPAUSMAP_Rect@@0@Z 10028120 f i r2_R_lights.obj
 0001:00027130       ??$_Construct@USMAP_Rect@@ABU1@@std@@YAXPAUSMAP_Rect@@ABU1@@Z 10028130 f i r2_R_lights.obj
 0001:00027140       ?construct@?$xalloc@USMAP_Rect@@@@QAEXPAUSMAP_Rect@@ABU2@@Z 10028140 f i r2_R_lights.obj
 0001:00027160       ??$_Fn@V?$xalloc@USMAP_Rect@@@@USMAP_Rect@@ABU2@@_Alloc_construct@std@@SAXHAAV?$xalloc@USMAP_Rect@@@@PAUSMAP_Rect@@ABU3@@Z 10028160 f i r2_R_lights.obj
 0001:00027180       ??$construct@USMAP_Rect@@ABU1@@?$allocator_traits@V?$xalloc@USMAP_Rect@@@@@std@@SAXAAV?$xalloc@USMAP_Rect@@@@PAUSMAP_Rect@@ABU3@@Z 10028180 f i r2_R_lights.obj
 0001:000271a0       ??$forward@ABUSMAP_Rect@@@std@@YAABUSMAP_Rect@@ABU1@@Z 100281a0 f i r2_R_lights.obj
 0001:000271b0       ??$construct@USMAP_Rect@@ABU1@@?$_Wrap_alloc@V?$xalloc@USMAP_Rect@@@@@std@@QAEXPAUSMAP_Rect@@ABU2@@Z 100281b0 f i r2_R_lights.obj
 0001:000271d0       ?push_back@?$vector@USMAP_Rect@@V?$xalloc@USMAP_Rect@@@@@std@@QAEXABUSMAP_Rect@@@Z 100281d0 f i r2_R_lights.obj
 0001:00027220       ?set@?$_vector2@H@@QAEAAU1@HH@Z 10028220 f i r2_R_lights.obj
 0001:00027240       ?get_cp@SMAP_Rect@@QAEXAAU?$_vector2@H@@0@Z 10028240 f i r2_R_lights.obj
 0001:00027270       ?_Inside@?$vector@U?$_vector2@H@@V?$xalloc@U?$_vector2@H@@@@@std@@IBE_NPBU?$_vector2@H@@@Z 10028270 f i r2_R_lights.obj
 0001:00027290       ??$addressof@$$CBU?$_vector2@H@@@std@@YAPBU?$_vector2@H@@ABU1@@Z 10028290 f i r2_R_lights.obj
 0001:000272a0       ??$_Fn@V?$xalloc@U?$_vector2@H@@@@U?$_vector2@H@@AAU2@@_Alloc_construct@std@@SAXHAAV?$xalloc@U?$_vector2@H@@@@PAU?$_vector2@H@@AAU3@@Z 100282a0 f i r2_R_lights.obj
 0001:000272c0       ??$construct@U?$_vector2@H@@AAU1@@?$allocator_traits@V?$xalloc@U?$_vector2@H@@@@@std@@SAXAAV?$xalloc@U?$_vector2@H@@@@PAU?$_vector2@H@@AAU3@@Z 100282c0 f i r2_R_lights.obj
 0001:000272e0       ??$forward@AAU?$_vector2@H@@@std@@YAAAU?$_vector2@H@@AAU1@@Z 100282e0 f i r2_R_lights.obj
 0001:000272f0       ??$construct@U?$_vector2@H@@AAU1@@?$_Wrap_alloc@V?$xalloc@U?$_vector2@H@@@@@std@@QAEXPAU?$_vector2@H@@AAU2@@Z 100282f0 f i r2_R_lights.obj
 0001:00027310       ?_Unused_capacity@?$vector@U?$_vector2@H@@V?$xalloc@U?$_vector2@H@@@@@std@@QBEIXZ 10028310 f i r2_R_lights.obj
 0001:00027320       ?_Xlen@?$vector@U?$_vector2@H@@V?$xalloc@U?$_vector2@H@@@@@std@@IBEXXZ 10028320 f i r2_R_lights.obj
 0001:00027330       ??$xr_alloc@U?$_vector2@H@@@@YAPAU?$_vector2@H@@I@Z 10028330 f i r2_R_lights.obj
 0001:00027350       ?allocate@?$xalloc@U?$_vector2@H@@@@QBEPAU?$_vector2@H@@IPBX@Z 10028350 f i r2_R_lights.obj
 0001:00027370       ?allocate@?$_Wrap_alloc@V?$xalloc@U?$_vector2@H@@@@@std@@QAEPAU?$_vector2@H@@I@Z 10028370 f i r2_R_lights.obj
 0001:00027390       ??$_Rechecked@PAU?$_vector2@H@@PAU1@@std@@YAAAPAU?$_vector2@H@@AAPAU1@PAU1@@Z 10028390 f i r2_R_lights.obj
 0001:000273a0       ??$_Fn@V?$xalloc@U?$_vector2@H@@@@U?$_vector2@H@@U2@@_Alloc_construct@std@@SAXHAAV?$xalloc@U?$_vector2@H@@@@PAU?$_vector2@H@@$$QAU3@@Z 100283a0 f i r2_R_lights.obj
 0001:000273c0       ??$construct@U?$_vector2@H@@U1@@?$allocator_traits@V?$xalloc@U?$_vector2@H@@@@@std@@SAXAAV?$xalloc@U?$_vector2@H@@@@PAU?$_vector2@H@@$$QAU3@@Z 100283c0 f i r2_R_lights.obj
 0001:000273e0       ??$forward@U?$_vector2@H@@@std@@YA$$QAU?$_vector2@H@@AAU1@@Z 100283e0 f i r2_R_lights.obj
 0001:000273f0       ??$construct@U?$_vector2@H@@U1@@?$_Wrap_alloc@V?$xalloc@U?$_vector2@H@@@@@std@@QAEXPAU?$_vector2@H@@$$QAU2@@Z 100283f0 f i r2_R_lights.obj
 0001:00027410       ??$_Uninit_move@PAU?$_vector2@H@@PAU1@V?$xalloc@U?$_vector2@H@@@@U1@@std@@YAPAU?$_vector2@H@@PAU1@00AAU?$_Wrap_alloc@V?$xalloc@U?$_vector2@H@@@@@0@0U_Nonscalar_ptr_iterator_tag@0@@Z 10028410 f i r2_R_lights.obj
 0001:00027480       ??$_Val_type@PAU?$_vector2@H@@@std@@YAPAU?$_vector2@H@@PAU1@@Z 10028480 f i r2_R_lights.obj
 0001:00027490       ??$_Uninit_move@PAU?$_vector2@H@@PAU1@U?$_Wrap_alloc@V?$xalloc@U?$_vector2@H@@@@@std@@@std@@YAPAU?$_vector2@H@@PAU1@00AAU?$_Wrap_alloc@V?$xalloc@U?$_vector2@H@@@@@0@@Z 10028490 f i r2_R_lights.obj
 0001:000274b0       ??$_Unchecked@PAU?$_vector2@H@@@std@@YAPAU?$_vector2@H@@PAU1@@Z 100284b0 f i r2_R_lights.obj
 0001:000274c0       ??$_Uninitialized_move@PAU?$_vector2@H@@PAU1@U?$_Wrap_alloc@V?$xalloc@U?$_vector2@H@@@@@std@@@std@@YAPAU?$_vector2@H@@PAU1@00AAU?$_Wrap_alloc@V?$xalloc@U?$_vector2@H@@@@@0@@Z 100284c0 f i r2_R_lights.obj
 0001:000274e0       ??$_Umove@PAU?$_vector2@H@@@?$vector@U?$_vector2@H@@V?$xalloc@U?$_vector2@H@@@@@std@@IAEPAU?$_vector2@H@@PAU2@00@Z 100284e0 f i r2_R_lights.obj
 0001:00027500       ?_Reallocate@?$vector@U?$_vector2@H@@V?$xalloc@U?$_vector2@H@@@@@std@@IAEXI@Z 10028500 f i r2_R_lights.obj
 0001:000275c0       ?capacity@?$vector@U?$_vector2@H@@V?$xalloc@U?$_vector2@H@@@@@std@@QBEIXZ 100285c0 f i r2_R_lights.obj
 0001:000275d0       ?max_size@?$xalloc@U?$_vector2@H@@@@QBEIXZ 100285d0 f i r2_R_lights.obj
 0001:000275e0       ??$_Fn@V?$xalloc@U?$_vector2@H@@@@@_Alloc_max_size@std@@SAIHABV?$xalloc@U?$_vector2@H@@@@@Z 100285e0 f i r2_R_lights.obj
 0001:000275f0       ?max_size@?$allocator_traits@V?$xalloc@U?$_vector2@H@@@@@std@@SAIABV?$xalloc@U?$_vector2@H@@@@@Z 100285f0 f i r2_R_lights.obj
 0001:00027600       ?max_size@?$_Wrap_alloc@V?$xalloc@U?$_vector2@H@@@@@std@@QBEIXZ 10028600 f i r2_R_lights.obj
 0001:00027610       ?max_size@?$vector@U?$_vector2@H@@V?$xalloc@U?$_vector2@H@@@@@std@@QBEIXZ 10028610 f i r2_R_lights.obj
 0001:00027620       ?_Grow_to@?$vector@U?$_vector2@H@@V?$xalloc@U?$_vector2@H@@@@@std@@IBEII@Z 10028620 f i r2_R_lights.obj
 0001:00027660       ?size@?$vector@U?$_vector2@H@@V?$xalloc@U?$_vector2@H@@@@@std@@QBEIXZ 10028660 f i r2_R_lights.obj
 0001:00027670       ?_Reserve@?$vector@U?$_vector2@H@@V?$xalloc@U?$_vector2@H@@@@@std@@IAEXI@Z 10028670 f i r2_R_lights.obj
 0001:000276e0       ?_Orphan_range@?$vector@U?$_vector2@H@@V?$xalloc@U?$_vector2@H@@@@@std@@IBEXPAU?$_vector2@H@@0@Z 100286e0 f i r2_R_lights.obj
 0001:000276f0       ??$_Construct@U?$_vector2@H@@ABU1@@std@@YAXPAU?$_vector2@H@@ABU1@@Z 100286f0 f i r2_R_lights.obj
 0001:00027700       ?construct@?$xalloc@U?$_vector2@H@@@@QAEXPAU?$_vector2@H@@ABU2@@Z 10028700 f i r2_R_lights.obj
 0001:00027720       ??$_Fn@V?$xalloc@U?$_vector2@H@@@@U?$_vector2@H@@ABU2@@_Alloc_construct@std@@SAXHAAV?$xalloc@U?$_vector2@H@@@@PAU?$_vector2@H@@ABU3@@Z 10028720 f i r2_R_lights.obj
 0001:00027740       ??$construct@U?$_vector2@H@@ABU1@@?$allocator_traits@V?$xalloc@U?$_vector2@H@@@@@std@@SAXAAV?$xalloc@U?$_vector2@H@@@@PAU?$_vector2@H@@ABU3@@Z 10028740 f i r2_R_lights.obj
 0001:00027760       ??$forward@ABU?$_vector2@H@@@std@@YAABU?$_vector2@H@@ABU1@@Z 10028760 f i r2_R_lights.obj
 0001:00027770       ??$construct@U?$_vector2@H@@ABU1@@?$_Wrap_alloc@V?$xalloc@U?$_vector2@H@@@@@std@@QAEXPAU?$_vector2@H@@ABU2@@Z 10028770 f i r2_R_lights.obj
 0001:00027790       ?push_back@?$vector@U?$_vector2@H@@V?$xalloc@U?$_vector2@H@@@@@std@@QAEXABU?$_vector2@H@@@Z 10028790 f i r2_R_lights.obj
 0001:00027800       ?_add@SMAP_Allocator@@AAEXAAUSMAP_Rect@@@Z 10028800 f i r2_R_lights.obj
 0001:000278c0       ?push@SMAP_Allocator@@QAEHAAUSMAP_Rect@@I@Z 100288c0 f i r2_R_lights.obj
 0001:00027a10       ?clear@?$vector@USMAP_Rect@@V?$xalloc@USMAP_Rect@@@@@std@@QAEXXZ 10028a10 f i r2_R_lights.obj
 0001:00027a20       ?clear_and_free@?$xr_vector@USMAP_Rect@@V?$xalloc@USMAP_Rect@@@@@@QAEXXZ 10028a20 f i r2_R_lights.obj
 0001:00027a30       ?clear@?$xr_vector@USMAP_Rect@@V?$xalloc@USMAP_Rect@@@@@@QAEXXZ 10028a30 f i r2_R_lights.obj
 0001:00027a40       ?clear@?$vector@U?$_vector2@H@@V?$xalloc@U?$_vector2@H@@@@@std@@QAEXXZ 10028a40 f i r2_R_lights.obj
 0001:00027a50       ?clear_and_free@?$xr_vector@U?$_vector2@H@@V?$xalloc@U?$_vector2@H@@@@@@QAEXXZ 10028a50 f i r2_R_lights.obj
 0001:00027a60       ?clear@?$xr_vector@U?$_vector2@H@@V?$xalloc@U?$_vector2@H@@@@@@QAEXXZ 10028a60 f i r2_R_lights.obj
 0001:00027a70       ?initialize@SMAP_Allocator@@QAEXI@Z 10028a70 f i r2_R_lights.obj
 0001:00027a90       ?pred_sp_sort@@YA_NPAVISpatial@@0@Z 10028a90 f i r2_R_render.obj
 0001:00027b20       ?render_main@CRender@@QAEXAAU?$_matrix@M@@_N@Z 10028b20 f   r2_R_render.obj
 0001:00028370       ?render_menu@CRender@@QAEXXZ 10029370 f   r2_R_render.obj
 0001:000287e0       ?Render@CRender@@UAEXXZ    100297e0 f   r2_R_render.obj
 0001:00029670       ?render_forward@CRender@@QAEXXZ 1002a670 f   r2_R_render.obj
 0001:00029700       ?distance_to_sqr@?$_vector3@M@@QBEMABU1@@Z 1002a700 f i r2_R_render.obj
 0001:00029740       ?mul@?$_matrix@M@@QAEAAU1@ABU1@0@Z 1002a740 f i r2_R_render.obj
 0001:00029ae0       ?build_projection@?$_matrix@M@@QAEAAU1@MMMM@Z 1002aae0 f i r2_R_render.obj
 0001:00029b30       ?xform@?$_box3@M@@QAEAAV1@ABU?$_matrix@M@@@Z 1002ab30 f i r2_R_render.obj
 0001:00029df0       ?end@?$vector@PAVISpatial@@V?$xalloc@PAVISpatial@@@@@std@@QAE?AV?$_Vector_iterator@V?$_Vector_val@U?$_Simple_types@PAVISpatial@@@std@@@std@@@2@XZ 1002adf0 f i r2_R_render.obj
 0001:00029e00       ?size@?$xr_vector@VCFrustum@@V?$xalloc@VCFrustum@@@@@@QBEIXZ 1002ae00 f i r2_R_render.obj
 0001:00029e20       ??A?$xr_vector@VCFrustum@@V?$xalloc@VCFrustum@@@@@@QAEAAVCFrustum@@I@Z 1002ae20 f i r2_R_render.obj
 0001:00029e30       ?build_projection_HAT@?$_matrix@M@@QAEAAU1@MMMM@Z 1002ae30 f i r2_R_render.obj
 0001:00029ed0       ?set@?$_box3@M@@QAEAAV1@ABV1@@Z 1002aed0 f i r2_R_render.obj
 0001:00029f00       ?xform@?$_box3@M@@QAEAAV1@ABV1@ABU?$_matrix@M@@@Z 1002af00 f i r2_R_render.obj
 0001:0002a1e0       ?begin@?$vector@VCFrustum@@V?$xalloc@VCFrustum@@@@@std@@QAE?AV?$_Vector_iterator@V?$_Vector_val@U?$_Simple_types@VCFrustum@@@std@@@std@@@2@XZ 1002b1e0 f i r2_R_render.obj
 0001:0002a1f0       ?size@?$vector@VCFrustum@@V?$xalloc@VCFrustum@@@@@std@@QBEIXZ 1002b1f0 f i r2_R_render.obj
 0001:0002a210       ??D?$_Vector_iterator@V?$_Vector_val@U?$_Simple_types@VCFrustum@@@std@@@std@@@std@@QBEAAVCFrustum@@XZ 1002b210 f i r2_R_render.obj
 0001:0002a220       ??H?$_Vector_iterator@V?$_Vector_val@U?$_Simple_types@VCFrustum@@@std@@@std@@@std@@QBE?AV01@H@Z 1002b220 f i r2_R_render.obj
 0001:0002a240       ?mul@?$_vector3@M@@QAEAAU1@ABU1@M@Z 1002b240 f i r2_R_render.obj
 0001:0002a280       ??0?$_Vector_iterator@V?$_Vector_val@U?$_Simple_types@VCFrustum@@@std@@@std@@@std@@QAE@PAVCFrustum@@PBU_Container_base0@1@@Z 1002b280 f i r2_R_render.obj
 0001:0002a290       ??Y?$_Vector_iterator@V?$_Vector_val@U?$_Simple_types@VCFrustum@@@std@@@std@@@std@@QAEAAV01@H@Z 1002b290 f i r2_R_render.obj
 0001:0002a2a0       ??D?$_Vector_const_iterator@V?$_Vector_val@U?$_Simple_types@VCFrustum@@@std@@@std@@@std@@QBEABVCFrustum@@XZ 1002b2a0 f i r2_R_render.obj
 0001:0002a2b0       ??0?$_Vector_const_iterator@V?$_Vector_val@U?$_Simple_types@VCFrustum@@@std@@@std@@@std@@QAE@PAVCFrustum@@PBU_Container_base0@1@@Z 1002b2b0 f i r2_R_render.obj
 0001:0002a2c0       ??Y?$_Vector_const_iterator@V?$_Vector_val@U?$_Simple_types@VCFrustum@@@std@@@std@@@std@@QAEAAV01@H@Z 1002b2c0 f i r2_R_render.obj
 0001:0002a2d0       ??$sort@V?$_Vector_iterator@V?$_Vector_val@U?$_Simple_types@PAVISpatial@@@std@@@std@@@std@@P6A_NPAVISpatial@@0@Z@std@@YAXV?$_Vector_iterator@V?$_Vector_val@U?$_Simple_types@PAVISpatial@@@std@@@std@@@0@0P6A_NPAVISpatial@@1@Z@Z 1002b2d0 f i r2_R_render.obj
 0001:0002a2f0       ??$_max@I@@YAIII@Z         1002b2f0 f i r2_R_render.obj
 0001:0002a300       ??G?$_Vector_iterator@V?$_Vector_val@U?$_Simple_types@PAVISpatial@@@std@@@std@@@std@@QBEHABV?$_Vector_const_iterator@V?$_Vector_val@U?$_Simple_types@PAVISpatial@@@std@@@std@@@1@@Z 1002b300 f i r2_R_render.obj
 0001:0002a310       ??G?$_Vector_const_iterator@V?$_Vector_val@U?$_Simple_types@PAVISpatial@@@std@@@std@@@std@@QBEHABV01@@Z 1002b310 f i r2_R_render.obj
 0001:0002a320       ?_Compat@?$_Vector_const_iterator@V?$_Vector_val@U?$_Simple_types@PAVISpatial@@@std@@@std@@@std@@QBEXABV12@@Z 1002b320 f i r2_R_render.obj
 0001:0002a330       ??$_Unchecked@V?$_Vector_val@U?$_Simple_types@PAVISpatial@@@std@@@std@@@std@@YAPAPAVISpatial@@V?$_Vector_iterator@V?$_Vector_val@U?$_Simple_types@PAVISpatial@@@std@@@std@@@0@@Z 1002b330 f i r2_R_render.obj
 0001:0002a340       ??$_Sort@PAPAVISpatial@@HP6A_NPAV1@0@Z@std@@YAXPAPAVISpatial@@0HP6A_NPAV1@1@Z@Z 1002b340 f i r2_R_render.obj
 0001:0002a430       ?_Unchecked@?$_Vector_iterator@V?$_Vector_val@U?$_Simple_types@PAVISpatial@@@std@@@std@@@std@@QBEPAPAVISpatial@@XZ 1002b430 f i r2_R_render.obj
 0001:0002a440       ??$_Unguarded_partition@PAPAVISpatial@@P6A_NPAV1@0@Z@std@@YA?AU?$pair@PAPAVISpatial@@PAPAV1@@0@PAPAVISpatial@@0P6A_NPAV2@1@Z@Z 1002b440 f i r2_R_render.obj
 0001:0002a630       ??$make_heap@PAPAVISpatial@@P6A_NPAV1@0@Z@std@@YAXPAPAVISpatial@@0P6A_NPAV1@1@Z@Z 1002b630 f i r2_R_render.obj
 0001:0002a650       ??$sort_heap@PAPAVISpatial@@P6A_NPAV1@0@Z@std@@YAXPAPAVISpatial@@0P6A_NPAV1@1@Z@Z 1002b650 f i r2_R_render.obj
 0001:0002a660       ??$_Insertion_sort@PAPAVISpatial@@P6A_NPAV1@0@Z@std@@YAXPAPAVISpatial@@0P6A_NPAV1@1@Z@Z 1002b660 f i r2_R_render.obj
 0001:0002a670       ??$_Median@PAPAVISpatial@@P6A_NPAV1@0@Z@std@@YAXPAPAVISpatial@@00P6A_NPAV1@1@Z@Z 1002b670 f i r2_R_render.obj
 0001:0002a840       ??$iter_swap@PAPAVISpatial@@PAPAV1@@std@@YAXPAPAVISpatial@@0@Z 1002b840 f i r2_R_render.obj
 0001:0002a850       ??$?0AAPAPAVISpatial@@AAPAPAV0@X@?$pair@PAPAVISpatial@@PAPAV1@@std@@QAE@AAPAPAVISpatial@@0@Z 1002b850 f i r2_R_render.obj
 0001:0002a870       ??$_Unchecked@PAPAVISpatial@@@std@@YAPAPAVISpatial@@PAPAV1@@Z 1002b870 f i r2_R_render.obj
 0001:0002a880       ??$_Dist_type@PAPAVISpatial@@@std@@YAPAHPAPAVISpatial@@@Z 1002b880 f i r2_R_render.obj
 0001:0002a890       ??$_Val_type@PAPAVISpatial@@@std@@YAPAPAVISpatial@@PAPAV1@@Z 1002b890 f i r2_R_render.obj
 0001:0002a8a0       ??$_Make_heap@PAPAVISpatial@@HPAV1@P6A_NPAV1@0@Z@std@@YAXPAPAVISpatial@@0P6A_NPAV1@1@ZPAH0@Z 1002b8a0 f i r2_R_render.obj
 0001:0002a960       ??$_Sort_heap@PAPAVISpatial@@P6A_NPAV1@0@Z@std@@YAXPAPAVISpatial@@0P6A_NPAV1@1@Z@Z 1002b960 f i r2_R_render.obj
 0001:0002a9c0       ??$_Insertion_sort1@PAPAVISpatial@@P6A_NPAV1@0@ZPAV1@@std@@YAXPAPAVISpatial@@0P6A_NPAV1@1@Z0@Z 1002b9c0 f i r2_R_render.obj
 0001:0002aa70       ??$_Med3@PAPAVISpatial@@P6A_NPAV1@0@Z@std@@YAXPAPAVISpatial@@00P6A_NPAV1@1@Z@Z 1002ba70 f i r2_R_render.obj
 0001:0002aad0       ??$swap@PAVISpatial@@@std@@YAXAAPAVISpatial@@0@Z 1002bad0 f i r2_R_render.obj
 0001:0002aae0       ??$forward@AAPAPAVISpatial@@@std@@YAAAPAPAVISpatial@@AAPAPAV1@@Z 1002bae0 f i r2_R_render.obj
 0001:0002aaf0       ??$_Move@AAPAVISpatial@@@std@@YA$$QAPAVISpatial@@AAPAV1@@Z 1002baf0 f i r2_R_render.obj
 0001:0002ab00       ??$_Adjust_heap@PAPAVISpatial@@HPAV1@P6A_NPAV1@0@Z@std@@YAXPAPAVISpatial@@HH$$QAPAV1@P6A_NPAV1@2@Z@Z 1002bb00 f i r2_R_render.obj
 0001:0002abb0       ??$_Pop_heap@PAPAVISpatial@@P6A_NPAV1@0@Z@std@@YAXPAPAVISpatial@@0P6A_NPAV1@1@Z@Z 1002bbb0 f i r2_R_render.obj
 0001:0002abe0       ??$_Move_backward@PAPAVISpatial@@PAPAV1@@std@@YAPAPAVISpatial@@PAPAV1@00@Z 1002bbe0 f i r2_R_render.obj
 0001:0002ac00       ??$_Push_heap@PAPAVISpatial@@HPAV1@P6A_NPAV1@0@Z@std@@YAXPAPAVISpatial@@HH$$QAPAV1@P6A_NPAV1@2@Z@Z 1002bc00 f i r2_R_render.obj
 0001:0002ac70       ??$_Pop_heap_0@PAPAVISpatial@@PAV1@P6A_NPAV1@0@Z@std@@YAXPAPAVISpatial@@0P6A_NPAV1@1@Z0@Z 1002bc70 f i r2_R_render.obj
 0001:0002aca0       ??$_Move_backward@PAPAVISpatial@@PAPAV1@@std@@YAPAPAVISpatial@@PAPAV1@00U_Scalar_ptr_iterator_tag@0@@Z 1002bca0 f i r2_R_render.obj
 0001:0002acc0       ??$_Pop_heap@PAPAVISpatial@@HPAV1@P6A_NPAV1@0@Z@std@@YAXPAPAVISpatial@@00$$QAPAV1@P6A_NPAV1@2@ZPAH@Z 1002bcc0 f i r2_R_render.obj
 0001:0002acf0       ?negative@@YAHABM@Z        1002bcf0 f i r2_R_render.obj
 0001:0002ad00       ?transform_tiny@?$_matrix@M@@QBEXAAU?$_vector3@M@@ABU2@@Z 1002bd00 f i r2_R_render.obj
 0001:0002ada0       ?clear@?$vector@V?$_box3@M@@V?$doug_lea_alloc@V?$_box3@M@@@@@std@@QAEXXZ 1002bda0 f i r2_R_render.obj
 0001:0002adb0       ?clear_and_free@?$xr_vector@V?$_box3@M@@V?$doug_lea_alloc@V?$_box3@M@@@@@@QAEXXZ 1002bdb0 f i r2_R_render.obj
 0001:0002adc0       ?clear@?$xr_vector@V?$_box3@M@@V?$doug_lea_alloc@V?$_box3@M@@@@@@QAEXXZ 1002bdc0 f i r2_R_render.obj
 0001:0002add0       ?set_Recorder@R_dsgraph_structure@@QAEXPAV?$xr_vector@V?$_box3@M@@V?$doug_lea_alloc@V?$_box3@M@@@@@@@Z 1002bdd0 f i r2_R_render.obj
 0001:0002ade0       ?root@CSector@@QAEPAVIRender_Visual@@XZ 1002bde0 f i r2_R_render.obj
 0001:0002adf0       ??0BoundingBox@@QAE@PBUD3DXVECTOR3@@I@Z 1002bdf0 f i r2_R_sun.obj
 0001:0002aec0       ?Merge@BoundingBox@@QAEXPBUD3DXVECTOR3@@@Z 1002bec0 f i r2_R_sun.obj
 0001:0002af60       ?LineIntersection2D@@YAHPAUD3DXVECTOR2@@PBU1@1@Z 1002bf60 f   r2_R_sun.obj
 0001:0002b240       ??0Frustum@@QAE@XZ         1002c240 f   r2_R_sun.obj
 0001:0002b270       ??0Frustum@@QAE@PBUD3DXMATRIX@@@Z 1002c270 f   r2_R_sun.obj
 0001:0002b750       ?wform@@YA?AU?$_vector3@M@@AAU?$_matrix@M@@ABU1@@Z 1002c750 f   r2_R_sun.obj
 0001:0002b830       ?clip@DumbClipper@@QAEHAAUD3DXVECTOR3@@0@Z 1002c830 f i r2_R_sun.obj
 0001:0002ba60       ?point@DumbClipper@@QBE?AUD3DXVECTOR3@@AAV?$_box3@M@@H@Z 1002ca60 f i r2_R_sun.obj
 0001:0002bad0       ?clipped_AABB@DumbClipper@@QAE?AV?$_box3@M@@AAV?$xr_vector@V?$_box3@M@@V?$doug_lea_alloc@V?$_box3@M@@@@@@AAU?$_matrix@M@@@Z 1002cad0 f i r2_R_sun.obj
 0001:0002c0b0       ?BuildTSMProjectionMatrix_caster_depth_bounds@@YA?AUD3DXVECTOR2@@AAUD3DXMATRIX@@@Z 1002d0b0 f   r2_R_sun.obj
 0001:0002c270       ?render_sun@CRender@@QAEXXZ 1002d270 f   r2_R_sun.obj
 0001:0002f6f0       ??1?$xr_vector@V?$_plane@M@@V?$xalloc@V?$_plane@M@@@@@@QAE@XZ 100306f0 f i r2_R_sun.obj
 0001:0002f720       ??0?$DumbConvexVolume@$0A@@@QAE@XZ 10030720 f i r2_R_sun.obj
 0001:0002f770       ??1?$DumbConvexVolume@$0A@@@QAE@XZ 10030770 f i r2_R_sun.obj
 0001:0002f810       ??0_poly@?$DumbConvexVolume@$0A@@@QAE@XZ 10030810 f i r2_R_sun.obj
 0001:0002f830       ??1_poly@?$DumbConvexVolume@$0A@@@QAE@XZ 10030830 f i r2_R_sun.obj
 0001:0002f860       ??0DumbClipper@@QAE@XZ     10030860 f i r2_R_sun.obj
 0001:0002f890       ??1DumbClipper@@QAE@XZ     10030890 f i r2_R_sun.obj
 0001:0002f8d0       ??1?$xr_vector@U?$_vector3@M@@V?$xalloc@U?$_vector3@M@@@@@@QAE@XZ 100308d0 f i r2_R_sun.obj
 0001:0002f900       ??1?$xr_vector@U_poly@?$DumbConvexVolume@$0A@@@V?$xalloc@U_poly@?$DumbConvexVolume@$0A@@@@@@@QAE@XZ 10030900 f i r2_R_sun.obj
 0001:0002f950       ??1?$xr_vector@U_edge@?$DumbConvexVolume@$0A@@@V?$xalloc@U_edge@?$DumbConvexVolume@$0A@@@@@@@QAE@XZ 10030950 f i r2_R_sun.obj
 0001:0002f980       ??1?$xr_vector@HV?$xalloc@H@@@@QAE@XZ 10030980 f i r2_R_sun.obj
 0001:0002f9b0       ??1?$xr_vector@UD3DXPLANE@@V?$xalloc@UD3DXPLANE@@@@@@QAE@XZ 100309b0 f i r2_R_sun.obj
 0001:0002f9e0       ?render_sun_near@CRender@@QAEXXZ 100309e0 f   r2_R_sun.obj
 0001:000323b0       ?render_sun_filtered@CRender@@QAEXXZ 100333b0 f   r2_R_sun.obj
 0001:000323e0       ?init_cacades@CRender@@QAEXXZ 100333e0 f   r2_R_sun.obj
 0001:00032470       ?render_sun_cascades@CRender@@QAEXXZ 10033470 f   r2_R_sun.obj
 0001:00032580       ?render_sun_cascade@CRender@@QAEXI@Z 10033580 f   r2_R_sun.obj
 0001:000355c0       ??0?$FixedConvexVolume@$0A@@@QAE@XZ 100365c0 f i r2_R_sun.obj
 0001:000355e0       ??1?$FixedConvexVolume@$0A@@@QAE@XZ 100365e0 f i r2_R_sun.obj
 0001:00035610       ??4?$xr_vector@Uray@sun@@V?$xalloc@Uray@sun@@@@@@QAEAAV0@ABV0@@Z 10036610 f i r2_R_sun.obj
 0001:00035630       ?sub@?$_vector3@M@@QAEAAU1@ABU1@@Z 10036630 f i r2_R_sun.obj
 0001:00035670       ?mulA_44@?$_matrix@M@@QAEAAU1@ABU1@@Z 10036670 f i r2_R_sun.obj
 0001:00035a60       ?mulB_44@?$_matrix@M@@QAEAAU1@ABU1@@Z 10036a60 f i r2_R_sun.obj
 0001:00035e80       ?build_camera_dir@?$_matrix@M@@QAEAAU1@ABU?$_vector3@M@@00@Z 10036e80 f i r2_R_sun.obj
 0001:00036050       ?transform_dir@?$_matrix@M@@QBEXAAU?$_vector3@M@@@Z 10037050 f i r2_R_sun.obj
 0001:000360e0       ??0?$xr_vector@HV?$xalloc@H@@@@QAE@XZ 100370e0 f i r2_R_sun.obj
 0001:00036100       ??1?$vector@HV?$xalloc@H@@@std@@QAE@XZ 10037100 f i r2_R_sun.obj
 0001:00036130       ?push_back@?$vector@HV?$xalloc@H@@@std@@QAEXABH@Z 10037130 f i r2_R_sun.obj
 0001:00036190       ??0?$xr_vector@V?$_plane@M@@V?$xalloc@V?$_plane@M@@@@@@QAE@XZ 10037190 f i r2_R_sun.obj
 0001:000361b0       ?size@?$xr_vector@V?$_plane@M@@V?$xalloc@V?$_plane@M@@@@@@QBEIXZ 100371b0 f i r2_R_sun.obj
 0001:000361c0       ??A?$xr_vector@V?$_plane@M@@V?$xalloc@V?$_plane@M@@@@@@QAEAAV?$_plane@M@@I@Z 100371c0 f i r2_R_sun.obj
 0001:000361d0       ??1?$vector@V?$_plane@M@@V?$xalloc@V?$_plane@M@@@@@std@@QAE@XZ 100371d0 f i r2_R_sun.obj
 0001:00036200       ??0?$xr_vector@U?$_vector3@M@@V?$xalloc@U?$_vector3@M@@@@@@QAE@XZ 10037200 f i r2_R_sun.obj
 0001:00036220       ??A?$xr_vector@U?$_vector3@M@@V?$xalloc@U?$_vector3@M@@@@@@QAEAAU?$_vector3@M@@I@Z 10037220 f i r2_R_sun.obj
 0001:00036230       ??1?$vector@U?$_vector3@M@@V?$xalloc@U?$_vector3@M@@@@@std@@QAE@XZ 10037230 f i r2_R_sun.obj
 0001:00036260       ?reserve@?$vector@U?$_vector3@M@@V?$xalloc@U?$_vector3@M@@@@@std@@QAEXI@Z 10037260 f i r2_R_sun.obj
 0001:000362a0       ?push_back@?$vector@U?$_vector3@M@@V?$xalloc@U?$_vector3@M@@@@@std@@QAEXABU?$_vector3@M@@@Z 100372a0 f i r2_R_sun.obj
 0001:00036330       ?grow@?$_box3@M@@QAEAAV1@M@Z 10037330 f i r2_R_sun.obj
 0001:00036390       ?modify@?$_box3@M@@QAEAAV1@ABU?$_vector3@M@@@Z 10037390 f i r2_R_sun.obj
 0001:00036420       ?getvolume@?$_box3@M@@QBEMXZ 10037420 f i r2_R_sun.obj
 0001:00036450       ?getpoint@?$_box3@M@@QBEXHAAU?$_vector3@M@@@Z 10037450 f i r2_R_sun.obj
 0001:00036590       ?build_unit_normal@?$_plane@M@@QAEAAV1@ABU?$_vector3@M@@0@Z 10037590 f i r2_R_sun.obj
 0001:000365e0       ?size@?$xr_vector@V?$_box3@M@@V?$doug_lea_alloc@V?$_box3@M@@@@@@QBEIXZ 100375e0 f i r2_R_sun.obj
 0001:00036600       ??A?$xr_vector@V?$_box3@M@@V?$doug_lea_alloc@V?$_box3@M@@@@@@QAEAAV?$_box3@M@@I@Z 10037600 f i r2_R_sun.obj
 0001:00036610       ?reserve@?$vector@V?$_box3@M@@V?$doug_lea_alloc@V?$_box3@M@@@@@std@@QAEXI@Z 10037610 f i r2_R_sun.obj
 0001:00036660       ?push_back@?$vector@Uray@sun@@V?$xalloc@Uray@sun@@@@@std@@QAEX$$QAUray@sun@@@Z 10037660 f i r2_R_sun.obj
 0001:000366f0       ??4?$vector@Uray@sun@@V?$xalloc@Uray@sun@@@@@std@@QAEAAV01@ABV01@@Z 100376f0 f i r2_R_sun.obj
 0001:00036860       ?size@?$xr_vector@Ucascade@sun@@V?$xalloc@Ucascade@sun@@@@@@QBEIXZ 10037860 f i r2_R_sun.obj
 0001:00036880       ??A?$xr_vector@Ucascade@sun@@V?$xalloc@Ucascade@sun@@@@@@QAEAAUcascade@sun@@I@Z 10037880 f i r2_R_sun.obj
 0001:00036890       ?resize@?$vector@Ucascade@sun@@V?$xalloc@Ucascade@sun@@@@@std@@QAEXI@Z 10037890 f i r2_R_sun.obj
 0001:000369a0       ?back@?$vector@Ucascade@sun@@V?$xalloc@Ucascade@sun@@@@@std@@QAEAAUcascade@sun@@XZ 100379a0 f i r2_R_sun.obj
 0001:000369b0       ??0?$xr_vector@UD3DXPLANE@@V?$xalloc@UD3DXPLANE@@@@@@QAE@XZ 100379b0 f i r2_R_sun.obj
 0001:000369d0       ?size@?$xr_vector@UD3DXPLANE@@V?$xalloc@UD3DXPLANE@@@@@@QBEIXZ 100379d0 f i r2_R_sun.obj
 0001:000369e0       ??A?$xr_vector@UD3DXPLANE@@V?$xalloc@UD3DXPLANE@@@@@@QAEAAUD3DXPLANE@@I@Z 100379e0 f i r2_R_sun.obj
 0001:000369f0       ?push_back@?$vector@UD3DXPLANE@@V?$xalloc@UD3DXPLANE@@@@@std@@QAEX$$QAUD3DXPLANE@@@Z 100379f0 f i r2_R_sun.obj
 0001:00036a40       ??1?$vector@UD3DXPLANE@@V?$xalloc@UD3DXPLANE@@@@@std@@QAE@XZ 10037a40 f i r2_R_sun.obj
 0001:00036a70       ?compute_caster_model@?$DumbConvexVolume@$0A@@@QAEXAAV?$xr_vector@V?$_plane@M@@V?$xalloc@V?$_plane@M@@@@@@U?$_vector3@M@@@Z 10037a70 f i r2_R_sun.obj
 0001:00037550       ??0?$xr_vector@U_poly@?$DumbConvexVolume@$0A@@@V?$xalloc@U_poly@?$DumbConvexVolume@$0A@@@@@@@QAE@XZ 10038550 f i r2_R_sun.obj
 0001:00037570       ?push_back@?$vector@U_poly@?$DumbConvexVolume@$0A@@@V?$xalloc@U_poly@?$DumbConvexVolume@$0A@@@@@@std@@QAEX$$QAU_poly@?$DumbConvexVolume@$0A@@@@Z 10038570 f i r2_R_sun.obj
 0001:00037630       ??1?$vector@U_poly@?$DumbConvexVolume@$0A@@@V?$xalloc@U_poly@?$DumbConvexVolume@$0A@@@@@@std@@QAE@XZ 10038630 f i r2_R_sun.obj
 0001:00037680       ?back@?$vector@U_poly@?$DumbConvexVolume@$0A@@@V?$xalloc@U_poly@?$DumbConvexVolume@$0A@@@@@@std@@QAEAAU_poly@?$DumbConvexVolume@$0A@@@XZ 10038680 f i r2_R_sun.obj
 0001:00037690       ??0?$xr_vector@U_edge@?$DumbConvexVolume@$0A@@@V?$xalloc@U_edge@?$DumbConvexVolume@$0A@@@@@@@QAE@XZ 10038690 f i r2_R_sun.obj
 0001:000376b0       ??1?$vector@U_edge@?$DumbConvexVolume@$0A@@@V?$xalloc@U_edge@?$DumbConvexVolume@$0A@@@@@@std@@QAE@XZ 100386b0 f i r2_R_sun.obj
 0001:000376e0       ?compute_caster_model_fixed@?$FixedConvexVolume@$0A@@@QAEXAAV?$xr_vector@V?$_plane@M@@V?$xalloc@V?$_plane@M@@@@@@AAU?$_vector3@M@@M_N@Z 100386e0 f i r2_R_sun.obj
 0001:00038770       ?add@?$_vector3@M@@QAEAAU1@M@Z 10039770 f i r2_R_sun.obj
 0001:000387a0       ?sub@?$_vector3@M@@QAEAAU1@M@Z 100397a0 f i r2_R_sun.obj
 0001:000387d0       ?min@?$_vector3@M@@QAEAAU1@ABU1@@Z 100397d0 f i r2_R_sun.obj
 0001:00038820       ?max@?$_vector3@M@@QAEAAU1@ABU1@@Z 10039820 f i r2_R_sun.obj
 0001:00038870       ?mad@?$_vector3@M@@QAEAAU1@ABU1@M@Z 10039870 f i r2_R_sun.obj
 0001:000388b0       ?square_magnitude@?$_vector3@M@@QBEMXZ 100398b0 f i r2_R_sun.obj
 0001:000388e0       ?set@?$_matrix@M@@QAEAAU1@ABU1@@Z 100398e0 f i r2_R_sun.obj
 0001:00038950       ?transform_dir@?$_matrix@M@@QBEXAAU?$_vector3@M@@ABU2@@Z 10039950 f i r2_R_sun.obj
 0001:000389e0       ?size@?$xr_vector@HV?$xalloc@H@@@@QBEIXZ 100399e0 f i r2_R_sun.obj
 0001:000389f0       ??A?$xr_vector@HV?$xalloc@H@@@@QAEAAHI@Z 100399f0 f i r2_R_sun.obj
 0001:00038a00       ??0?$vector@HV?$xalloc@H@@@std@@QAE@XZ 10039a00 f i r2_R_sun.obj
 0001:00038a20       ?push_back@?$vector@HV?$xalloc@H@@@std@@QAEX$$QAH@Z 10039a20 f i r2_R_sun.obj
 0001:00038a80       ?begin@?$vector@HV?$xalloc@H@@@std@@QAE?AV?$_Vector_iterator@V?$_Vector_val@U?$_Simple_types@H@std@@@std@@@2@XZ 10039a80 f i r2_R_sun.obj
 0001:00038a90       ?end@?$vector@HV?$xalloc@H@@@std@@QAE?AV?$_Vector_iterator@V?$_Vector_val@U?$_Simple_types@H@std@@@std@@@2@XZ 10039a90 f i r2_R_sun.obj
 0001:00038aa0       ?_Inside@?$vector@HV?$xalloc@H@@@std@@IBE_NPBH@Z 10039aa0 f i r2_R_sun.obj
 0001:00038ac0       ?_Reserve@?$vector@HV?$xalloc@H@@@std@@IAEXI@Z 10039ac0 f i r2_R_sun.obj
 0001:00038b30       ?_Tidy@?$vector@HV?$xalloc@H@@@std@@IAEXXZ 10039b30 f i r2_R_sun.obj
 0001:00038b60       ?_Orphan_range@?$vector@HV?$xalloc@H@@@std@@IBEXPAH0@Z 10039b60 f i r2_R_sun.obj
 0001:00038b70       ?_Getal@?$_Vector_alloc@$0A@U?$_Vec_base_types@HV?$xalloc@H@@@std@@@std@@QBE?AU?$_Wrap_alloc@V?$xalloc@H@@@2@XZ 10039b70 f i r2_R_sun.obj
 0001:00038b80       ??0?$vector@V?$_plane@M@@V?$xalloc@V?$_plane@M@@@@@std@@QAE@XZ 10039b80 f i r2_R_sun.obj
 0001:00038ba0       ?begin@?$vector@V?$_plane@M@@V?$xalloc@V?$_plane@M@@@@@std@@QAE?AV?$_Vector_iterator@V?$_Vector_val@U?$_Simple_types@V?$_plane@M@@@std@@@std@@@2@XZ 10039ba0 f i r2_R_sun.obj
 0001:00038bb0       ?size@?$vector@V?$_plane@M@@V?$xalloc@V?$_plane@M@@@@@std@@QBEIXZ 10039bb0 f i r2_R_sun.obj
 0001:00038bc0       ?back@?$vector@V?$_plane@M@@V?$xalloc@V?$_plane@M@@@@@std@@QAEAAV?$_plane@M@@XZ 10039bc0 f i r2_R_sun.obj
 0001:00038bd0       ?push_back@?$vector@V?$_plane@M@@V?$xalloc@V?$_plane@M@@@@@std@@QAEXABV?$_plane@M@@@Z 10039bd0 f i r2_R_sun.obj
 0001:00038c20       ?_Tidy@?$vector@V?$_plane@M@@V?$xalloc@V?$_plane@M@@@@@std@@IAEXXZ 10039c20 f i r2_R_sun.obj
 0001:00038c50       ??0?$vector@U?$_vector3@M@@V?$xalloc@U?$_vector3@M@@@@@std@@QAE@XZ 10039c50 f i r2_R_sun.obj
 0001:00038c70       ?capacity@?$vector@U?$_vector3@M@@V?$xalloc@U?$_vector3@M@@@@@std@@QBEIXZ 10039c70 f i r2_R_sun.obj
 0001:00038c90       ?max_size@?$vector@U?$_vector3@M@@V?$xalloc@U?$_vector3@M@@@@@std@@QBEIXZ 10039c90 f i r2_R_sun.obj
 0001:00038ca0       ?_Inside@?$vector@U?$_vector3@M@@V?$xalloc@U?$_vector3@M@@@@@std@@IBE_NPBU?$_vector3@M@@@Z 10039ca0 f i r2_R_sun.obj
 0001:00038cc0       ?_Reallocate@?$vector@U?$_vector3@M@@V?$xalloc@U?$_vector3@M@@@@@std@@IAEXI@Z 10039cc0 f i r2_R_sun.obj
 0001:00038d90       ?_Reserve@?$vector@U?$_vector3@M@@V?$xalloc@U?$_vector3@M@@@@@std@@IAEXI@Z 10039d90 f i r2_R_sun.obj
 0001:00038e30       ?_Tidy@?$vector@U?$_vector3@M@@V?$xalloc@U?$_vector3@M@@@@@std@@IAEXXZ 10039e30 f i r2_R_sun.obj
 0001:00038e60       ?_Xlen@?$vector@U?$_vector3@M@@V?$xalloc@U?$_vector3@M@@@@@std@@IBEXXZ 10039e60 f i r2_R_sun.obj
 0001:00038e70       ?_Orphan_range@?$vector@U?$_vector3@M@@V?$xalloc@U?$_vector3@M@@@@@std@@IBEXPAU?$_vector3@M@@0@Z 10039e70 f i r2_R_sun.obj
 0001:00038e80       ??H?$_Vector_iterator@V?$_Vector_val@U?$_Simple_types@U?$_vector3@M@@@std@@@std@@@std@@QBE?AV01@H@Z 10039e80 f i r2_R_sun.obj
 0001:00038ea0       ?build@?$_plane@M@@QAEAAV1@ABU?$_vector3@M@@0@Z 10039ea0 f i r2_R_sun.obj
 0001:00038f40       ?intersectRayDist@?$_plane@M@@QAEHABU?$_vector3@M@@0AAM@Z 10039f40 f i r2_R_sun.obj
 0001:00038ff0       ?capacity@?$vector@V?$_box3@M@@V?$doug_lea_alloc@V?$_box3@M@@@@@std@@QBEIXZ 10039ff0 f i r2_R_sun.obj
 0001:00039010       ?begin@?$vector@V?$_box3@M@@V?$doug_lea_alloc@V?$_box3@M@@@@@std@@QAE?AV?$_Vector_iterator@V?$_Vector_val@U?$_Simple_types@V?$_box3@M@@@std@@@std@@@2@XZ 1003a010 f i r2_R_sun.obj
 0001:00039020       ?size@?$vector@V?$_box3@M@@V?$doug_lea_alloc@V?$_box3@M@@@@@std@@QBEIXZ 1003a020 f i r2_R_sun.obj
 0001:00039040       ?max_size@?$vector@V?$_box3@M@@V?$doug_lea_alloc@V?$_box3@M@@@@@std@@QBEIXZ 1003a040 f i r2_R_sun.obj
 0001:00039050       ?_Reallocate@?$vector@V?$_box3@M@@V?$doug_lea_alloc@V?$_box3@M@@@@@std@@IAEXI@Z 1003a050 f i r2_R_sun.obj
 0001:00039100       ?_Xlen@?$vector@V?$_box3@M@@V?$doug_lea_alloc@V?$_box3@M@@@@@std@@IBEXXZ 1003a100 f i r2_R_sun.obj
 0001:00039110       ?size@?$xr_vector@Uray@sun@@V?$xalloc@Uray@sun@@@@@@QBEIXZ 1003a110 f i r2_R_sun.obj
 0001:00039130       ??A?$xr_vector@Uray@sun@@V?$xalloc@Uray@sun@@@@@@QAEAAUray@sun@@I@Z 1003a130 f i r2_R_sun.obj
 0001:00039140       ?capacity@?$vector@Uray@sun@@V?$xalloc@Uray@sun@@@@@std@@QBEIXZ 1003a140 f i r2_R_sun.obj
 0001:00039160       ?size@?$vector@Uray@sun@@V?$xalloc@Uray@sun@@@@@std@@QBEIXZ 1003a160 f i r2_R_sun.obj
 0001:00039180       ?empty@?$vector@Uray@sun@@V?$xalloc@Uray@sun@@@@@std@@QBE_NXZ 1003a180 f i r2_R_sun.obj
 0001:00039190       ?clear@?$vector@Uray@sun@@V?$xalloc@Uray@sun@@@@@std@@QAEXXZ 1003a190 f i r2_R_sun.obj
 0001:000391a0       ?_Buy@?$vector@Uray@sun@@V?$xalloc@Uray@sun@@@@@std@@IAE_NI@Z 1003a1a0 f i r2_R_sun.obj
 0001:00039200       ?_Inside@?$vector@Uray@sun@@V?$xalloc@Uray@sun@@@@@std@@IBE_NPBUray@sun@@@Z 1003a200 f i r2_R_sun.obj
 0001:00039220       ?_Reserve@?$vector@Uray@sun@@V?$xalloc@Uray@sun@@@@@std@@IAEXI@Z 1003a220 f i r2_R_sun.obj
 0001:000392c0       ?_Orphan_range@?$vector@Uray@sun@@V?$xalloc@Uray@sun@@@@@std@@IBEXPAUray@sun@@0@Z 1003a2c0 f i r2_R_sun.obj
 0001:000392d0       ?_Change_alloc@?$_Vector_alloc@$0A@U?$_Vec_base_types@Uray@sun@@V?$xalloc@Uray@sun@@@@@std@@@std@@QAEXABU?$_Wrap_alloc@V?$xalloc@Uray@sun@@@@@2@@Z 1003a2d0 f i r2_R_sun.obj
 0001:000392e0       ?begin@?$vector@Ucascade@sun@@V?$xalloc@Ucascade@sun@@@@@std@@QAE?AV?$_Vector_iterator@V?$_Vector_val@U?$_Simple_types@Ucascade@sun@@@std@@@std@@@2@XZ 1003a2e0 f i r2_R_sun.obj
 0001:000392f0       ?end@?$vector@Ucascade@sun@@V?$xalloc@Ucascade@sun@@@@@std@@QAE?AV?$_Vector_iterator@V?$_Vector_val@U?$_Simple_types@Ucascade@sun@@@std@@@std@@@2@XZ 1003a2f0 f i r2_R_sun.obj
 0001:00039300       ?size@?$vector@Ucascade@sun@@V?$xalloc@Ucascade@sun@@@@@std@@QBEIXZ 1003a300 f i r2_R_sun.obj
 0001:00039320       ?_Pop_back_n@?$vector@Ucascade@sun@@V?$xalloc@Ucascade@sun@@@@@std@@QAEXI@Z 1003a320 f i r2_R_sun.obj
 0001:00039350       ?_Reserve@?$vector@Ucascade@sun@@V?$xalloc@Ucascade@sun@@@@@std@@IAEXI@Z 1003a350 f i r2_R_sun.obj
 0001:000393f0       ??0?$vector@UD3DXPLANE@@V?$xalloc@UD3DXPLANE@@@@@std@@QAE@XZ 1003a3f0 f i r2_R_sun.obj
 0001:00039410       ?begin@?$vector@UD3DXPLANE@@V?$xalloc@UD3DXPLANE@@@@@std@@QAE?AV?$_Vector_iterator@V?$_Vector_val@U?$_Simple_types@UD3DXPLANE@@@std@@@std@@@2@XZ 1003a410 f i r2_R_sun.obj
 0001:00039420       ?size@?$vector@UD3DXPLANE@@V?$xalloc@UD3DXPLANE@@@@@std@@QBEIXZ 1003a420 f i r2_R_sun.obj
 0001:00039430       ?_Inside@?$vector@UD3DXPLANE@@V?$xalloc@UD3DXPLANE@@@@@std@@IBE_NPBUD3DXPLANE@@@Z 1003a430 f i r2_R_sun.obj
 0001:00039450       ?_Reserve@?$vector@UD3DXPLANE@@V?$xalloc@UD3DXPLANE@@@@@std@@IAEXI@Z 1003a450 f i r2_R_sun.obj
 0001:000394c0       ?_Tidy@?$vector@UD3DXPLANE@@V?$xalloc@UD3DXPLANE@@@@@std@@IAEXXZ 1003a4c0 f i r2_R_sun.obj
 0001:000394f0       ?_Orphan_range@?$vector@UD3DXPLANE@@V?$xalloc@UD3DXPLANE@@@@@std@@IBEXPAUD3DXPLANE@@0@Z 1003a4f0 f i r2_R_sun.obj
 0001:00039500       ?_Getal@?$_Vector_alloc@$0A@U?$_Vec_base_types@UD3DXPLANE@@V?$xalloc@UD3DXPLANE@@@@@std@@@std@@QBE?AU?$_Wrap_alloc@V?$xalloc@UD3DXPLANE@@@@@2@XZ 1003a500 f i r2_R_sun.obj
 0001:00039510       ?compute_planes@?$DumbConvexVolume@$0A@@@QAEXXZ 1003a510 f i r2_R_sun.obj
 0001:000396b0       ?size@?$xr_vector@U_poly@?$DumbConvexVolume@$0A@@@V?$xalloc@U_poly@?$DumbConvexVolume@$0A@@@@@@@QBEIXZ 1003a6b0 f i r2_R_sun.obj
 0001:000396d0       ??A?$xr_vector@U_poly@?$DumbConvexVolume@$0A@@@V?$xalloc@U_poly@?$DumbConvexVolume@$0A@@@@@@@QAEAAU_poly@?$DumbConvexVolume@$0A@@@I@Z 1003a6d0 f i r2_R_sun.obj
 0001:000396f0       ??0?$vector@U_poly@?$DumbConvexVolume@$0A@@@V?$xalloc@U_poly@?$DumbConvexVolume@$0A@@@@@@std@@QAE@XZ 1003a6f0 f i r2_R_sun.obj
 0001:00039710       ?begin@?$vector@U_poly@?$DumbConvexVolume@$0A@@@V?$xalloc@U_poly@?$DumbConvexVolume@$0A@@@@@@std@@QAE?AV?$_Vector_iterator@V?$_Vector_val@U?$_Simple_types@U_poly@?$DumbConvexVolume@$0A@@@@std@@@std@@@2@XZ 1003a710 f i r2_R_sun.obj
 0001:00039720       ?end@?$vector@U_poly@?$DumbConvexVolume@$0A@@@V?$xalloc@U_poly@?$DumbConvexVolume@$0A@@@@@@std@@QAE?AV?$_Vector_iterator@V?$_Vector_val@U?$_Simple_types@U_poly@?$DumbConvexVolume@$0A@@@@std@@@std@@@2@XZ 1003a720 f i r2_R_sun.obj
 0001:00039730       ?erase@?$vector@U_poly@?$DumbConvexVolume@$0A@@@V?$xalloc@U_poly@?$DumbConvexVolume@$0A@@@@@@std@@QAE?AV?$_Vector_iterator@V?$_Vector_val@U?$_Simple_types@U_poly@?$DumbConvexVolume@$0A@@@@std@@@std@@@2@V?$_Vector_const_iterator@V?$_Vector_val@U?$_Simple_types@U_poly@?$DumbConvexVolume@$0A@@@@std@@@std@@@2@@Z 1003a730 f i r2_R_sun.obj
 0001:00039770       ?_Inside@?$vector@U_poly@?$DumbConvexVolume@$0A@@@V?$xalloc@U_poly@?$DumbConvexVolume@$0A@@@@@@std@@IBE_NPBU_poly@?$DumbConvexVolume@$0A@@@@Z 1003a770 f i r2_R_sun.obj
 0001:00039790       ?_Reserve@?$vector@U_poly@?$DumbConvexVolume@$0A@@@V?$xalloc@U_poly@?$DumbConvexVolume@$0A@@@@@@std@@IAEXI@Z 1003a790 f i r2_R_sun.obj
 0001:00039800       ?_Tidy@?$vector@U_poly@?$DumbConvexVolume@$0A@@@V?$xalloc@U_poly@?$DumbConvexVolume@$0A@@@@@@std@@IAEXXZ 1003a800 f i r2_R_sun.obj
 0001:00039850       ?_Orphan_range@?$vector@U_poly@?$DumbConvexVolume@$0A@@@V?$xalloc@U_poly@?$DumbConvexVolume@$0A@@@@@@std@@IBEXPAU_poly@?$DumbConvexVolume@$0A@@@0@Z 1003a850 f i r2_R_sun.obj
 0001:00039860       ?_Getal@?$_Vector_alloc@$0A@U?$_Vec_base_types@U_poly@?$DumbConvexVolume@$0A@@@V?$xalloc@U_poly@?$DumbConvexVolume@$0A@@@@@@std@@@std@@QBE?AU?$_Wrap_alloc@V?$xalloc@U_poly@?$DumbConvexVolume@$0A@@@@@@2@XZ 1003a860 f i r2_R_sun.obj
 0001:00039870       ?size@?$xr_vector@U_edge@?$DumbConvexVolume@$0A@@@V?$xalloc@U_edge@?$DumbConvexVolume@$0A@@@@@@@QBEIXZ 1003a870 f i r2_R_sun.obj
 0001:00039890       ??A?$xr_vector@U_edge@?$DumbConvexVolume@$0A@@@V?$xalloc@U_edge@?$DumbConvexVolume@$0A@@@@@@@QAEAAU_edge@?$DumbConvexVolume@$0A@@@I@Z 1003a890 f i r2_R_sun.obj
 0001:000398a0       ??0?$vector@U_edge@?$DumbConvexVolume@$0A@@@V?$xalloc@U_edge@?$DumbConvexVolume@$0A@@@@@@std@@QAE@XZ 1003a8a0 f i r2_R_sun.obj
 0001:000398c0       ?push_back@?$vector@U_edge@?$DumbConvexVolume@$0A@@@V?$xalloc@U_edge@?$DumbConvexVolume@$0A@@@@@@std@@QAEXABU_edge@?$DumbConvexVolume@$0A@@@@Z 1003a8c0 f i r2_R_sun.obj
 0001:00039950       ?_Tidy@?$vector@U_edge@?$DumbConvexVolume@$0A@@@V?$xalloc@U_edge@?$DumbConvexVolume@$0A@@@@@@std@@IAEXXZ 1003a950 f i r2_R_sun.obj
 0001:00039980       ?classify@_poly@?$DumbConvexVolume@$0A@@@QAEMAAU?$_vector3@M@@@Z 1003a980 f i r2_R_sun.obj
 0001:000399c0       ?compute_planes@?$FixedConvexVolume@$0A@@@QAEXXZ 1003a9c0 f i r2_R_sun.obj
 0001:00039ad0       ?check_cull_plane_valid@?$FixedConvexVolume@$0A@@@QAE_NABV?$_plane@M@@AAMM@Z 1003aad0 f i r2_R_sun.obj
 0001:00039c20       ?translate_light_model@?$FixedConvexVolume@$0A@@@QAEXU?$_vector3@M@@@Z 1003ac20 f i r2_R_sun.obj
 0001:00039d50       ??D?$_Vector_iterator@V?$_Vector_val@U?$_Simple_types@V?$_plane@M@@@std@@@std@@@std@@QBEAAV?$_plane@M@@XZ 1003ad50 f i r2_R_sun.obj
 0001:00039d60       ??H?$_Vector_iterator@V?$_Vector_val@U?$_Simple_types@V?$_plane@M@@@std@@@std@@@std@@QBE?AV01@H@Z 1003ad60 f i r2_R_sun.obj
 0001:00039d80       ??D?$_Vector_iterator@V?$_Vector_val@U?$_Simple_types@V?$_box3@M@@@std@@@std@@@std@@QBEAAV?$_box3@M@@XZ 1003ad80 f i r2_R_sun.obj
 0001:00039d90       ??H?$_Vector_iterator@V?$_Vector_val@U?$_Simple_types@V?$_box3@M@@@std@@@std@@@std@@QBE?AV01@H@Z 1003ad90 f i r2_R_sun.obj
 0001:00039db0       ??D?$_Vector_iterator@V?$_Vector_val@U?$_Simple_types@Ucascade@sun@@@std@@@std@@@std@@QBEAAUcascade@sun@@XZ 1003adb0 f i r2_R_sun.obj
 0001:00039dc0       ??H?$_Vector_iterator@V?$_Vector_val@U?$_Simple_types@Ucascade@sun@@@std@@@std@@@std@@QBE?AV01@H@Z 1003adc0 f i r2_R_sun.obj
 0001:00039dd0       ??G?$_Vector_iterator@V?$_Vector_val@U?$_Simple_types@Ucascade@sun@@@std@@@std@@@std@@QBE?AV01@H@Z 1003add0 f i r2_R_sun.obj
 0001:00039de0       ??D?$_Vector_iterator@V?$_Vector_val@U?$_Simple_types@UD3DXPLANE@@@std@@@std@@@std@@QBEAAUD3DXPLANE@@XZ 1003ade0 f i r2_R_sun.obj
 0001:00039df0       ??H?$_Vector_iterator@V?$_Vector_val@U?$_Simple_types@UD3DXPLANE@@@std@@@std@@@std@@QBE?AV01@H@Z 1003adf0 f i r2_R_sun.obj
 0001:00039e10       ??0_edge@?$DumbConvexVolume@$0A@@@QAE@HHH@Z 1003ae10 f i r2_R_sun.obj
 0001:00039e20       ?equal@_edge@?$DumbConvexVolume@$0A@@@QAE_NAAU12@@Z 1003ae20 f i r2_R_sun.obj
 0001:00039e40       ??D?$_Vector_iterator@V?$_Vector_val@U?$_Simple_types@U_poly@?$DumbConvexVolume@$0A@@@@std@@@std@@@std@@QBEAAU_poly@?$DumbConvexVolume@$0A@@@XZ 1003ae40 f i r2_R_sun.obj
 0001:00039e50       ??H?$_Vector_iterator@V?$_Vector_val@U?$_Simple_types@U_poly@?$DumbConvexVolume@$0A@@@@std@@@std@@@std@@QBE?AV01@H@Z 1003ae50 f i r2_R_sun.obj
 0001:00039e70       ??G?$_Vector_iterator@V?$_Vector_val@U?$_Simple_types@U_poly@?$DumbConvexVolume@$0A@@@@std@@@std@@@std@@QBE?AV01@H@Z 1003ae70 f i r2_R_sun.obj
 0001:00039e80       ?normalize@?$_vector3@M@@QAEAAU1@ABU1@@Z 1003ae80 f i r2_R_sun.obj
 0001:00039ee0       ?_Unused_capacity@?$vector@HV?$xalloc@H@@@std@@QBEIXZ 1003aee0 f i r2_R_sun.obj
 0001:00039ef0       ?size@?$vector@HV?$xalloc@H@@@std@@QBEIXZ 1003aef0 f i r2_R_sun.obj
 0001:00039f00       ?max_size@?$vector@HV?$xalloc@H@@@std@@QBEIXZ 1003af00 f i r2_R_sun.obj
 0001:00039f10       ?_Destroy@?$vector@HV?$xalloc@H@@@std@@IAEXPAH0@Z 1003af10 f i r2_R_sun.obj
 0001:00039f20       ?_Grow_to@?$vector@HV?$xalloc@H@@@std@@IBEII@Z 1003af20 f i r2_R_sun.obj
 0001:00039f70       ?_Reallocate@?$vector@HV?$xalloc@H@@@std@@IAEXI@Z 1003af70 f i r2_R_sun.obj
 0001:0003a030       ?_Xlen@?$vector@HV?$xalloc@H@@@std@@IBEXXZ 1003b030 f i r2_R_sun.obj
 0001:0003a040       ??0?$xalloc@H@@QAE@XZ      1003b040 f i r2_R_sun.obj
 0001:0003a050       ??0?$_Vector_alloc@$0A@U?$_Vec_base_types@HV?$xalloc@H@@@std@@@std@@QAE@ABV?$xalloc@H@@@Z 1003b050 f i r2_R_sun.obj
 0001:0003a070       ??0?$_Wrap_alloc@V?$xalloc@H@@@std@@QAE@XZ 1003b070 f i r2_R_sun.obj
 0001:0003a080       ?deallocate@?$_Wrap_alloc@V?$xalloc@H@@@std@@QAEXPAHI@Z 1003b080 f i r2_R_sun.obj
 0001:0003a0a0       ?end@?$vector@V?$_plane@M@@V?$xalloc@V?$_plane@M@@@@@std@@QAE?AV?$_Vector_iterator@V?$_Vector_val@U?$_Simple_types@V?$_plane@M@@@std@@@std@@@2@XZ 1003b0a0 f i r2_R_sun.obj
 0001:0003a0b0       ?_Destroy@?$vector@V?$_plane@M@@V?$xalloc@V?$_plane@M@@@@@std@@IAEXPAV?$_plane@M@@0@Z 1003b0b0 f i r2_R_sun.obj
 0001:0003a0c0       ?_Inside@?$vector@V?$_plane@M@@V?$xalloc@V?$_plane@M@@@@@std@@IBE_NPBV?$_plane@M@@@Z 1003b0c0 f i r2_R_sun.obj
 0001:0003a0e0       ?_Reserve@?$vector@V?$_plane@M@@V?$xalloc@V?$_plane@M@@@@@std@@IAEXI@Z 1003b0e0 f i r2_R_sun.obj
 0001:0003a150       ?_Orphan_range@?$vector@V?$_plane@M@@V?$xalloc@V?$_plane@M@@@@@std@@IBEXPAV?$_plane@M@@0@Z 1003b150 f i r2_R_sun.obj
 0001:0003a160       ??0?$xalloc@V?$_plane@M@@@@QAE@XZ 1003b160 f i r2_R_sun.obj
 0001:0003a170       ??0?$_Vector_alloc@$0A@U?$_Vec_base_types@V?$_plane@M@@V?$xalloc@V?$_plane@M@@@@@std@@@std@@QAE@ABV?$xalloc@V?$_plane@M@@@@@Z 1003b170 f i r2_R_sun.obj
 0001:0003a190       ?_Getal@?$_Vector_alloc@$0A@U?$_Vec_base_types@V?$_plane@M@@V?$xalloc@V?$_plane@M@@@@@std@@@std@@QBE?AU?$_Wrap_alloc@V?$xalloc@V?$_plane@M@@@@@2@XZ 1003b190 f i r2_R_sun.obj
 0001:0003a1a0       ?deallocate@?$_Wrap_alloc@V?$xalloc@V?$_plane@M@@@@@std@@QAEXPAV?$_plane@M@@I@Z 1003b1a0 f i r2_R_sun.obj
 0001:0003a1c0       ?_Unused_capacity@?$vector@U?$_vector3@M@@V?$xalloc@U?$_vector3@M@@@@@std@@QBEIXZ 1003b1c0 f i r2_R_sun.obj
 0001:0003a1e0       ?_Grow_to@?$vector@U?$_vector3@M@@V?$xalloc@U?$_vector3@M@@@@@std@@IBEII@Z 1003b1e0 f i r2_R_sun.obj
 0001:0003a230       ??0?$_Vector_alloc@$0A@U?$_Vec_base_types@U?$_vector3@M@@V?$xalloc@U?$_vector3@M@@@@@std@@@std@@QAE@ABV?$xalloc@U?$_vector3@M@@@@@Z 1003b230 f i r2_R_sun.obj
 0001:0003a250       ?allocate@?$_Wrap_alloc@V?$xalloc@U?$_vector3@M@@@@@std@@QAEPAU?$_vector3@M@@I@Z 1003b250 f i r2_R_sun.obj
 0001:0003a270       ?deallocate@?$_Wrap_alloc@V?$xalloc@U?$_vector3@M@@@@@std@@QAEXPAU?$_vector3@M@@I@Z 1003b270 f i r2_R_sun.obj
 0001:0003a290       ?max_size@?$_Wrap_alloc@V?$xalloc@U?$_vector3@M@@@@@std@@QBEIXZ 1003b290 f i r2_R_sun.obj
 0001:0003a2a0       ??Y?$_Vector_iterator@V?$_Vector_val@U?$_Simple_types@U?$_vector3@M@@@std@@@std@@@std@@QAEAAV01@H@Z 1003b2a0 f i r2_R_sun.obj
 0001:0003a2c0       ?build@?$_plane@M@@QAEAAV1@ABU?$_vector3@M@@00@Z 1003b2c0 f i r2_R_sun.obj
 0001:0003a3a0       ?allocate@?$_Wrap_alloc@V?$doug_lea_alloc@V?$_box3@M@@@@@std@@QAEPAV?$_box3@M@@I@Z 1003b3a0 f i r2_R_sun.obj
 0001:0003a3c0       ?max_size@?$_Wrap_alloc@V?$doug_lea_alloc@V?$_box3@M@@@@@std@@QBEIXZ 1003b3c0 f i r2_R_sun.obj
 0001:0003a3d0       ?_Unused_capacity@?$vector@Uray@sun@@V?$xalloc@Uray@sun@@@@@std@@QBEIXZ 1003b3d0 f i r2_R_sun.obj
 0001:0003a3f0       ?begin@?$vector@Uray@sun@@V?$xalloc@Uray@sun@@@@@std@@QAE?AV?$_Vector_iterator@V?$_Vector_val@U?$_Simple_types@Uray@sun@@@std@@@std@@@2@XZ 1003b3f0 f i r2_R_sun.obj
 0001:0003a400       ?max_size@?$vector@Uray@sun@@V?$xalloc@Uray@sun@@@@@std@@QBEIXZ 1003b400 f i r2_R_sun.obj
 0001:0003a410       ?_Grow_to@?$vector@Uray@sun@@V?$xalloc@Uray@sun@@@@@std@@IBEII@Z 1003b410 f i r2_R_sun.obj
 0001:0003a460       ?_Reallocate@?$vector@Uray@sun@@V?$xalloc@Uray@sun@@@@@std@@IAEXI@Z 1003b460 f i r2_R_sun.obj
 0001:0003a530       ?_Xlen@?$vector@Uray@sun@@V?$xalloc@Uray@sun@@@@@std@@IBEXXZ 1003b530 f i r2_R_sun.obj
 0001:0003a540       ?allocate@?$_Wrap_alloc@V?$xalloc@Uray@sun@@@@@std@@QAEPAUray@sun@@I@Z 1003b540 f i r2_R_sun.obj
 0001:0003a560       ?_Unused_capacity@?$vector@Ucascade@sun@@V?$xalloc@Ucascade@sun@@@@@std@@QBEIXZ 1003b560 f i r2_R_sun.obj
 0001:0003a580       ?max_size@?$vector@Ucascade@sun@@V?$xalloc@Ucascade@sun@@@@@std@@QBEIXZ 1003b580 f i r2_R_sun.obj
 0001:0003a590       ?_Grow_to@?$vector@Ucascade@sun@@V?$xalloc@Ucascade@sun@@@@@std@@IBEII@Z 1003b590 f i r2_R_sun.obj
 0001:0003a5e0       ?_Reallocate@?$vector@Ucascade@sun@@V?$xalloc@Ucascade@sun@@@@@std@@IAEXI@Z 1003b5e0 f i r2_R_sun.obj
 0001:0003a6c0       ?_Xlen@?$vector@Ucascade@sun@@V?$xalloc@Ucascade@sun@@@@@std@@IBEXXZ 1003b6c0 f i r2_R_sun.obj
 0001:0003a6d0       ?_Unused_capacity@?$vector@UD3DXPLANE@@V?$xalloc@UD3DXPLANE@@@@@std@@QBEIXZ 1003b6d0 f i r2_R_sun.obj
 0001:0003a6e0       ?max_size@?$vector@UD3DXPLANE@@V?$xalloc@UD3DXPLANE@@@@@std@@QBEIXZ 1003b6e0 f i r2_R_sun.obj
 0001:0003a6f0       ?_Destroy@?$vector@UD3DXPLANE@@V?$xalloc@UD3DXPLANE@@@@@std@@IAEXPAUD3DXPLANE@@0@Z 1003b6f0 f i r2_R_sun.obj
 0001:0003a700       ?_Grow_to@?$vector@UD3DXPLANE@@V?$xalloc@UD3DXPLANE@@@@@std@@IBEII@Z 1003b700 f i r2_R_sun.obj
 0001:0003a740       ?_Reallocate@?$vector@UD3DXPLANE@@V?$xalloc@UD3DXPLANE@@@@@std@@IAEXI@Z 1003b740 f i r2_R_sun.obj
 0001:0003a800       ?_Xlen@?$vector@UD3DXPLANE@@V?$xalloc@UD3DXPLANE@@@@@std@@IBEXXZ 1003b800 f i r2_R_sun.obj
 0001:0003a810       ??0?$xalloc@UD3DXPLANE@@@@QAE@XZ 1003b810 f i r2_R_sun.obj
 0001:0003a820       ??0?$_Vector_alloc@$0A@U?$_Vec_base_types@UD3DXPLANE@@V?$xalloc@UD3DXPLANE@@@@@std@@@std@@QAE@ABV?$xalloc@UD3DXPLANE@@@@@Z 1003b820 f i r2_R_sun.obj
 0001:0003a840       ??0?$_Wrap_alloc@V?$xalloc@UD3DXPLANE@@@@@std@@QAE@XZ 1003b840 f i r2_R_sun.obj
 0001:0003a850       ?deallocate@?$_Wrap_alloc@V?$xalloc@UD3DXPLANE@@@@@std@@QAEXPAUD3DXPLANE@@I@Z 1003b850 f i r2_R_sun.obj
 0001:0003a870       ?_Unused_capacity@?$vector@U_poly@?$DumbConvexVolume@$0A@@@V?$xalloc@U_poly@?$DumbConvexVolume@$0A@@@@@@std@@QBEIXZ 1003b870 f i r2_R_sun.obj
 0001:0003a890       ?_Make_iter@?$vector@U_poly@?$DumbConvexVolume@$0A@@@V?$xalloc@U_poly@?$DumbConvexVolume@$0A@@@@@@std@@QBE?AV?$_Vector_iterator@V?$_Vector_val@U?$_Simple_types@U_poly@?$DumbConvexVolume@$0A@@@@std@@@std@@@2@V?$_Vector_const_iterator@V?$_Vector_val@U?$_Simple_types@U_poly@?$DumbConvexVolume@$0A@@@@std@@@std@@@2@@Z 1003b890 f i r2_R_sun.obj
 0001:0003a8a0       ?size@?$vector@U_poly@?$DumbConvexVolume@$0A@@@V?$xalloc@U_poly@?$DumbConvexVolume@$0A@@@@@@std@@QBEIXZ 1003b8a0 f i r2_R_sun.obj
 0001:0003a8c0       ?max_size@?$vector@U_poly@?$DumbConvexVolume@$0A@@@V?$xalloc@U_poly@?$DumbConvexVolume@$0A@@@@@@std@@QBEIXZ 1003b8c0 f i r2_R_sun.obj
 0001:0003a8d0       ?_Destroy@?$vector@U_poly@?$DumbConvexVolume@$0A@@@V?$xalloc@U_poly@?$DumbConvexVolume@$0A@@@@@@std@@IAEXPAU_poly@?$DumbConvexVolume@$0A@@@0@Z 1003b8d0 f i r2_R_sun.obj
 0001:0003a8f0       ?_Grow_to@?$vector@U_poly@?$DumbConvexVolume@$0A@@@V?$xalloc@U_poly@?$DumbConvexVolume@$0A@@@@@@std@@IBEII@Z 1003b8f0 f i r2_R_sun.obj
 0001:0003a940       ?_Reallocate@?$vector@U_poly@?$DumbConvexVolume@$0A@@@V?$xalloc@U_poly@?$DumbConvexVolume@$0A@@@@@@std@@IAEXI@Z 1003b940 f i r2_R_sun.obj
 0001:0003aa30       ?_Xlen@?$vector@U_poly@?$DumbConvexVolume@$0A@@@V?$xalloc@U_poly@?$DumbConvexVolume@$0A@@@@@@std@@IBEXXZ 1003ba30 f i r2_R_sun.obj
 0001:0003aa40       ??0?$xalloc@U_poly@?$DumbConvexVolume@$0A@@@@@QAE@XZ 1003ba40 f i r2_R_sun.obj
 0001:0003aa50       ??0?$_Vector_alloc@$0A@U?$_Vec_base_types@U_poly@?$DumbConvexVolume@$0A@@@V?$xalloc@U_poly@?$DumbConvexVolume@$0A@@@@@@std@@@std@@QAE@ABV?$xalloc@U_poly@?$DumbConvexVolume@$0A@@@@@@Z 1003ba50 f i r2_R_sun.obj
 0001:0003aa70       ??0?$_Wrap_alloc@V?$xalloc@U_poly@?$DumbConvexVolume@$0A@@@@@@std@@QAE@XZ 1003ba70 f i r2_R_sun.obj
 0001:0003aa80       ?deallocate@?$_Wrap_alloc@V?$xalloc@U_poly@?$DumbConvexVolume@$0A@@@@@@std@@QAEXPAU_poly@?$DumbConvexVolume@$0A@@@I@Z 1003ba80 f i r2_R_sun.obj
 0001:0003aaa0       ?begin@?$vector@U_edge@?$DumbConvexVolume@$0A@@@V?$xalloc@U_edge@?$DumbConvexVolume@$0A@@@@@@std@@QAE?AV?$_Vector_iterator@V?$_Vector_val@U?$_Simple_types@U_edge@?$DumbConvexVolume@$0A@@@@std@@@std@@@2@XZ 1003baa0 f i r2_R_sun.obj
 0001:0003aab0       ?size@?$vector@U_edge@?$DumbConvexVolume@$0A@@@V?$xalloc@U_edge@?$DumbConvexVolume@$0A@@@@@@std@@QBEIXZ 1003bab0 f i r2_R_sun.obj
 0001:0003aad0       ?_Destroy@?$vector@U_edge@?$DumbConvexVolume@$0A@@@V?$xalloc@U_edge@?$DumbConvexVolume@$0A@@@@@@std@@IAEXPAU_edge@?$DumbConvexVolume@$0A@@@0@Z 1003bad0 f i r2_R_sun.obj
 0001:0003aae0       ?_Inside@?$vector@U_edge@?$DumbConvexVolume@$0A@@@V?$xalloc@U_edge@?$DumbConvexVolume@$0A@@@@@@std@@IBE_NPBU_edge@?$DumbConvexVolume@$0A@@@@Z 1003bae0 f i r2_R_sun.obj
 0001:0003ab00       ?_Reserve@?$vector@U_edge@?$DumbConvexVolume@$0A@@@V?$xalloc@U_edge@?$DumbConvexVolume@$0A@@@@@@std@@IAEXI@Z 1003bb00 f i r2_R_sun.obj
 0001:0003aba0       ?_Orphan_range@?$vector@U_edge@?$DumbConvexVolume@$0A@@@V?$xalloc@U_edge@?$DumbConvexVolume@$0A@@@@@@std@@IBEXPAU_edge@?$DumbConvexVolume@$0A@@@0@Z 1003bba0 f i r2_R_sun.obj
 0001:0003abb0       ??0?$xalloc@U_edge@?$DumbConvexVolume@$0A@@@@@QAE@XZ 1003bbb0 f i r2_R_sun.obj
 0001:0003abc0       ??0?$_Vector_alloc@$0A@U?$_Vec_base_types@U_edge@?$DumbConvexVolume@$0A@@@V?$xalloc@U_edge@?$DumbConvexVolume@$0A@@@@@@std@@@std@@QAE@ABV?$xalloc@U_edge@?$DumbConvexVolume@$0A@@@@@@Z 1003bbc0 f i r2_R_sun.obj
 0001:0003abe0       ?_Getal@?$_Vector_alloc@$0A@U?$_Vec_base_types@U_edge@?$DumbConvexVolume@$0A@@@V?$xalloc@U_edge@?$DumbConvexVolume@$0A@@@@@@std@@@std@@QBE?AU?$_Wrap_alloc@V?$xalloc@U_edge@?$DumbConvexVolume@$0A@@@@@@2@XZ 1003bbe0 f i r2_R_sun.obj
 0001:0003abf0       ?deallocate@?$_Wrap_alloc@V?$xalloc@U_edge@?$DumbConvexVolume@$0A@@@@@@std@@QAEXPAU_edge@?$DumbConvexVolume@$0A@@@I@Z 1003bbf0 f i r2_R_sun.obj
 0001:0003ac10       ??0?$_Vector_iterator@V?$_Vector_val@U?$_Simple_types@V?$_plane@M@@@std@@@std@@@std@@QAE@PAV?$_plane@M@@PBU_Container_base0@1@@Z 1003bc10 f i r2_R_sun.obj
 0001:0003ac20       ??Y?$_Vector_iterator@V?$_Vector_val@U?$_Simple_types@V?$_plane@M@@@std@@@std@@@std@@QAEAAV01@H@Z 1003bc20 f i r2_R_sun.obj
 0001:0003ac30       ??G?$_Vector_iterator@V?$_Vector_val@U?$_Simple_types@V?$_plane@M@@@std@@@std@@@std@@QBE?AV01@H@Z 1003bc30 f i r2_R_sun.obj
 0001:0003ac40       ??D?$_Vector_const_iterator@V?$_Vector_val@U?$_Simple_types@V?$_plane@M@@@std@@@std@@@std@@QBEABV?$_plane@M@@XZ 1003bc40 f i r2_R_sun.obj
 0001:0003ac50       ??0?$_Vector_iterator@V?$_Vector_val@U?$_Simple_types@V?$_box3@M@@@std@@@std@@@std@@QAE@PAV?$_box3@M@@PBU_Container_base0@1@@Z 1003bc50 f i r2_R_sun.obj
 0001:0003ac60       ??Y?$_Vector_iterator@V?$_Vector_val@U?$_Simple_types@V?$_box3@M@@@std@@@std@@@std@@QAEAAV01@H@Z 1003bc60 f i r2_R_sun.obj
 0001:0003ac80       ??D?$_Vector_const_iterator@V?$_Vector_val@U?$_Simple_types@V?$_box3@M@@@std@@@std@@@std@@QBEABV?$_box3@M@@XZ 1003bc80 f i r2_R_sun.obj
 0001:0003ac90       ??0?$_Vector_iterator@V?$_Vector_val@U?$_Simple_types@Ucascade@sun@@@std@@@std@@@std@@QAE@PAUcascade@sun@@PBU_Container_base0@1@@Z 1003bc90 f i r2_R_sun.obj
 0001:0003aca0       ??Y?$_Vector_iterator@V?$_Vector_val@U?$_Simple_types@Ucascade@sun@@@std@@@std@@@std@@QAEAAV01@H@Z 1003bca0 f i r2_R_sun.obj
 0001:0003acb0       ??Z?$_Vector_iterator@V?$_Vector_val@U?$_Simple_types@Ucascade@sun@@@std@@@std@@@std@@QAEAAV01@H@Z 1003bcb0 f i r2_R_sun.obj
 0001:0003acc0       ??D?$_Vector_const_iterator@V?$_Vector_val@U?$_Simple_types@Ucascade@sun@@@std@@@std@@@std@@QBEABUcascade@sun@@XZ 1003bcc0 f i r2_R_sun.obj
 0001:0003acd0       ??0?$_Vector_iterator@V?$_Vector_val@U?$_Simple_types@UD3DXPLANE@@@std@@@std@@@std@@QAE@PAUD3DXPLANE@@PBU_Container_base0@1@@Z 1003bcd0 f i r2_R_sun.obj
 0001:0003ace0       ??Y?$_Vector_iterator@V?$_Vector_val@U?$_Simple_types@UD3DXPLANE@@@std@@@std@@@std@@QAEAAV01@H@Z 1003bce0 f i r2_R_sun.obj
 0001:0003acf0       ??D?$_Vector_const_iterator@V?$_Vector_val@U?$_Simple_types@UD3DXPLANE@@@std@@@std@@@std@@QBEABUD3DXPLANE@@XZ 1003bcf0 f i r2_R_sun.obj
 0001:0003ad00       ??0?$_Vector_iterator@V?$_Vector_val@U?$_Simple_types@H@std@@@std@@@std@@QAE@PAHPBU_Container_base0@1@@Z 1003bd00 f i r2_R_sun.obj
 0001:0003ad10       ??D?$_Vector_iterator@V?$_Vector_val@U?$_Simple_types@H@std@@@std@@@std@@QBEAAHXZ 1003bd10 f i r2_R_sun.obj
 0001:0003ad20       ??H?$_Vector_iterator@V?$_Vector_val@U?$_Simple_types@H@std@@@std@@@std@@QBE?AV01@H@Z 1003bd20 f i r2_R_sun.obj
 0001:0003ad40       ??0?$_Vector_iterator@V?$_Vector_val@U?$_Simple_types@U_poly@?$DumbConvexVolume@$0A@@@@std@@@std@@@std@@QAE@PAU_poly@?$DumbConvexVolume@$0A@@@PBU_Container_base0@1@@Z 1003bd40 f i r2_R_sun.obj
 0001:0003ad50       ??Y?$_Vector_iterator@V?$_Vector_val@U?$_Simple_types@U_poly@?$DumbConvexVolume@$0A@@@@std@@@std@@@std@@QAEAAV01@H@Z 1003bd50 f i r2_R_sun.obj
 0001:0003ad70       ??Z?$_Vector_iterator@V?$_Vector_val@U?$_Simple_types@U_poly@?$DumbConvexVolume@$0A@@@@std@@@std@@@std@@QAEAAV01@H@Z 1003bd70 f i r2_R_sun.obj
 0001:0003ad80       ??D?$_Vector_const_iterator@V?$_Vector_val@U?$_Simple_types@U_poly@?$DumbConvexVolume@$0A@@@@std@@@std@@@std@@QBEABU_poly@?$DumbConvexVolume@$0A@@@XZ 1003bd80 f i r2_R_sun.obj
 0001:0003ad90       ??D?$_Vector_iterator@V?$_Vector_val@U?$_Simple_types@Uray@sun@@@std@@@std@@@std@@QBEAAUray@sun@@XZ 1003bd90 f i r2_R_sun.obj
 0001:0003ada0       ??H?$_Vector_iterator@V?$_Vector_val@U?$_Simple_types@Uray@sun@@@std@@@std@@@std@@QBE?AV01@H@Z 1003bda0 f i r2_R_sun.obj
 0001:0003adc0       ??D?$_Vector_iterator@V?$_Vector_val@U?$_Simple_types@U_edge@?$DumbConvexVolume@$0A@@@@std@@@std@@@std@@QBEAAU_edge@?$DumbConvexVolume@$0A@@@XZ 1003bdc0 f i r2_R_sun.obj
 0001:0003add0       ??H?$_Vector_iterator@V?$_Vector_val@U?$_Simple_types@U_edge@?$DumbConvexVolume@$0A@@@@std@@@std@@@std@@QBE?AV01@H@Z 1003bdd0 f i r2_R_sun.obj
 0001:0003adf0       ?capacity@?$vector@HV?$xalloc@H@@@std@@QBEIXZ 1003bdf0 f i r2_R_sun.obj
 0001:0003ae00       ?deallocate@?$xalloc@H@@QBEXPAHI@Z 1003be00 f i r2_R_sun.obj
 0001:0003ae20       ?allocate@?$_Wrap_alloc@V?$xalloc@H@@@std@@QAEPAHI@Z 1003be20 f i r2_R_sun.obj
 0001:0003ae40       ?max_size@?$_Wrap_alloc@V?$xalloc@H@@@std@@QBEIXZ 1003be40 f i r2_R_sun.obj
 0001:0003ae50       ?_Unused_capacity@?$vector@V?$_plane@M@@V?$xalloc@V?$_plane@M@@@@@std@@QBEIXZ 1003be50 f i r2_R_sun.obj
 0001:0003ae60       ?max_size@?$vector@V?$_plane@M@@V?$xalloc@V?$_plane@M@@@@@std@@QBEIXZ 1003be60 f i r2_R_sun.obj
 0001:0003ae70       ?_Grow_to@?$vector@V?$_plane@M@@V?$xalloc@V?$_plane@M@@@@@std@@IBEII@Z 1003be70 f i r2_R_sun.obj
 0001:0003aeb0       ?_Reallocate@?$vector@V?$_plane@M@@V?$xalloc@V?$_plane@M@@@@@std@@IAEXI@Z 1003beb0 f i r2_R_sun.obj
 0001:0003af70       ?_Xlen@?$vector@V?$_plane@M@@V?$xalloc@V?$_plane@M@@@@@std@@IBEXXZ 1003bf70 f i r2_R_sun.obj
 0001:0003af80       ?deallocate@?$xalloc@V?$_plane@M@@@@QBEXPAV?$_plane@M@@I@Z 1003bf80 f i r2_R_sun.obj
 0001:0003afa0       ??0?$_Wrap_alloc@V?$xalloc@V?$_plane@M@@@@@std@@QAE@XZ 1003bfa0 f i r2_R_sun.obj
 0001:0003afb0       ??0?$_Vector_val@U?$_Simple_types@V?$_plane@M@@@std@@@std@@QAE@XZ 1003bfb0 f i r2_R_sun.obj
 0001:0003afd0       ?allocate@?$xalloc@U?$_vector3@M@@@@QBEPAU?$_vector3@M@@IPBX@Z 1003bfd0 f i r2_R_sun.obj
 0001:0003aff0       ?deallocate@?$xalloc@U?$_vector3@M@@@@QBEXPAU?$_vector3@M@@I@Z 1003bff0 f i r2_R_sun.obj
 0001:0003b010       ?max_size@?$allocator_traits@V?$xalloc@U?$_vector3@M@@@@@std@@SAIABV?$xalloc@U?$_vector3@M@@@@@Z 1003c010 f i r2_R_sun.obj
 0001:0003b020       ??0?$_Vector_val@U?$_Simple_types@U?$_vector3@M@@@std@@@std@@QAE@XZ 1003c020 f i r2_R_sun.obj
 0001:0003b040       ??Y?$_Vector_const_iterator@V?$_Vector_val@U?$_Simple_types@U?$_vector3@M@@@std@@@std@@@std@@QAEAAV01@H@Z 1003c040 f i r2_R_sun.obj
 0001:0003b060       ?allocate@?$doug_lea_alloc@V?$_box3@M@@@@QBEPAV?$_box3@M@@IPBX@Z 1003c060 f i r2_R_sun.obj
 0001:0003b080       ?max_size@?$allocator_traits@V?$doug_lea_alloc@V?$_box3@M@@@@@std@@SAIABV?$doug_lea_alloc@V?$_box3@M@@@@@Z 1003c080 f i r2_R_sun.obj
 0001:0003b090       ?allocate@?$xalloc@Uray@sun@@@@QBEPAUray@sun@@IPBX@Z 1003c090 f i r2_R_sun.obj
 0001:0003b0b0       ?max_size@?$_Wrap_alloc@V?$xalloc@Uray@sun@@@@@std@@QBEIXZ 1003c0b0 f i r2_R_sun.obj
 0001:0003b0c0       ?capacity@?$vector@Ucascade@sun@@V?$xalloc@Ucascade@sun@@@@@std@@QBEIXZ 1003c0c0 f i r2_R_sun.obj
 0001:0003b0e0       ?allocate@?$_Wrap_alloc@V?$xalloc@Ucascade@sun@@@@@std@@QAEPAUcascade@sun@@I@Z 1003c0e0 f i r2_R_sun.obj
 0001:0003b100       ?max_size@?$_Wrap_alloc@V?$xalloc@Ucascade@sun@@@@@std@@QBEIXZ 1003c100 f i r2_R_sun.obj
 0001:0003b110       ?capacity@?$vector@UD3DXPLANE@@V?$xalloc@UD3DXPLANE@@@@@std@@QBEIXZ 1003c110 f i r2_R_sun.obj
 0001:0003b120       ?deallocate@?$xalloc@UD3DXPLANE@@@@QBEXPAUD3DXPLANE@@I@Z 1003c120 f i r2_R_sun.obj
 0001:0003b140       ?allocate@?$_Wrap_alloc@V?$xalloc@UD3DXPLANE@@@@@std@@QAEPAUD3DXPLANE@@I@Z 1003c140 f i r2_R_sun.obj
 0001:0003b160       ?max_size@?$_Wrap_alloc@V?$xalloc@UD3DXPLANE@@@@@std@@QBEIXZ 1003c160 f i r2_R_sun.obj
 0001:0003b170       ??0?$_Vector_val@U?$_Simple_types@UD3DXPLANE@@@std@@@std@@QAE@XZ 1003c170 f i r2_R_sun.obj
 0001:0003b190       ?capacity@?$vector@U_poly@?$DumbConvexVolume@$0A@@@V?$xalloc@U_poly@?$DumbConvexVolume@$0A@@@@@@std@@QBEIXZ 1003c190 f i r2_R_sun.obj
 0001:0003b1b0       ?deallocate@?$xalloc@U_poly@?$DumbConvexVolume@$0A@@@@@QBEXPAU_poly@?$DumbConvexVolume@$0A@@@I@Z 1003c1b0 f i r2_R_sun.obj
 0001:0003b1d0       ?allocate@?$_Wrap_alloc@V?$xalloc@U_poly@?$DumbConvexVolume@$0A@@@@@@std@@QAEPAU_poly@?$DumbConvexVolume@$0A@@@I@Z 1003c1d0 f i r2_R_sun.obj
 0001:0003b1f0       ?max_size@?$_Wrap_alloc@V?$xalloc@U_poly@?$DumbConvexVolume@$0A@@@@@@std@@QBEIXZ 1003c1f0 f i r2_R_sun.obj
 0001:0003b200       ??0?$_Vector_val@U?$_Simple_types@U_poly@?$DumbConvexVolume@$0A@@@@std@@@std@@QAE@XZ 1003c200 f i r2_R_sun.obj
 0001:0003b220       ?_Unused_capacity@?$vector@U_edge@?$DumbConvexVolume@$0A@@@V?$xalloc@U_edge@?$DumbConvexVolume@$0A@@@@@@std@@QBEIXZ 1003c220 f i r2_R_sun.obj
 0001:0003b240       ?max_size@?$vector@U_edge@?$DumbConvexVolume@$0A@@@V?$xalloc@U_edge@?$DumbConvexVolume@$0A@@@@@@std@@QBEIXZ 1003c240 f i r2_R_sun.obj
 0001:0003b250       ?_Grow_to@?$vector@U_edge@?$DumbConvexVolume@$0A@@@V?$xalloc@U_edge@?$DumbConvexVolume@$0A@@@@@@std@@IBEII@Z 1003c250 f i r2_R_sun.obj
 0001:0003b2a0       ?_Reallocate@?$vector@U_edge@?$DumbConvexVolume@$0A@@@V?$xalloc@U_edge@?$DumbConvexVolume@$0A@@@@@@std@@IAEXI@Z 1003c2a0 f i r2_R_sun.obj
 0001:0003b370       ?_Xlen@?$vector@U_edge@?$DumbConvexVolume@$0A@@@V?$xalloc@U_edge@?$DumbConvexVolume@$0A@@@@@@std@@IBEXXZ 1003c370 f i r2_R_sun.obj
 0001:0003b380       ?deallocate@?$xalloc@U_edge@?$DumbConvexVolume@$0A@@@@@QBEXPAU_edge@?$DumbConvexVolume@$0A@@@I@Z 1003c380 f i r2_R_sun.obj
 0001:0003b3a0       ??0?$_Wrap_alloc@V?$xalloc@U_edge@?$DumbConvexVolume@$0A@@@@@@std@@QAE@XZ 1003c3a0 f i r2_R_sun.obj
 0001:0003b3b0       ??0?$_Vector_val@U?$_Simple_types@U_edge@?$DumbConvexVolume@$0A@@@@std@@@std@@QAE@XZ 1003c3b0 f i r2_R_sun.obj
 0001:0003b3d0       ??Z?$_Vector_iterator@V?$_Vector_val@U?$_Simple_types@V?$_plane@M@@@std@@@std@@@std@@QAEAAV01@H@Z 1003c3d0 f i r2_R_sun.obj
 0001:0003b3e0       ??0?$_Vector_const_iterator@V?$_Vector_val@U?$_Simple_types@V?$_plane@M@@@std@@@std@@@std@@QAE@PAV?$_plane@M@@PBU_Container_base0@1@@Z 1003c3e0 f i r2_R_sun.obj
 0001:0003b3f0       ??Y?$_Vector_const_iterator@V?$_Vector_val@U?$_Simple_types@V?$_plane@M@@@std@@@std@@@std@@QAEAAV01@H@Z 1003c3f0 f i r2_R_sun.obj
 0001:0003b400       ??0?$_Vector_const_iterator@V?$_Vector_val@U?$_Simple_types@V?$_box3@M@@@std@@@std@@@std@@QAE@PAV?$_box3@M@@PBU_Container_base0@1@@Z 1003c400 f i r2_R_sun.obj
 0001:0003b410       ??Y?$_Vector_const_iterator@V?$_Vector_val@U?$_Simple_types@V?$_box3@M@@@std@@@std@@@std@@QAEAAV01@H@Z 1003c410 f i r2_R_sun.obj
 0001:0003b430       ??0?$_Vector_const_iterator@V?$_Vector_val@U?$_Simple_types@Ucascade@sun@@@std@@@std@@@std@@QAE@PAUcascade@sun@@PBU_Container_base0@1@@Z 1003c430 f i r2_R_sun.obj
 0001:0003b440       ??Y?$_Vector_const_iterator@V?$_Vector_val@U?$_Simple_types@Ucascade@sun@@@std@@@std@@@std@@QAEAAV01@H@Z 1003c440 f i r2_R_sun.obj
 0001:0003b450       ??0?$_Vector_const_iterator@V?$_Vector_val@U?$_Simple_types@UD3DXPLANE@@@std@@@std@@@std@@QAE@PAUD3DXPLANE@@PBU_Container_base0@1@@Z 1003c450 f i r2_R_sun.obj
 0001:0003b460       ??Y?$_Vector_const_iterator@V?$_Vector_val@U?$_Simple_types@UD3DXPLANE@@@std@@@std@@@std@@QAEAAV01@H@Z 1003c460 f i r2_R_sun.obj
 0001:0003b470       ??Y?$_Vector_iterator@V?$_Vector_val@U?$_Simple_types@H@std@@@std@@@std@@QAEAAV01@H@Z 1003c470 f i r2_R_sun.obj
 0001:0003b480       ??0?$_Vector_const_iterator@V?$_Vector_val@U?$_Simple_types@H@std@@@std@@@std@@QAE@PAHPBU_Container_base0@1@@Z 1003c480 f i r2_R_sun.obj
 0001:0003b490       ??D?$_Vector_const_iterator@V?$_Vector_val@U?$_Simple_types@H@std@@@std@@@std@@QBEABHXZ 1003c490 f i r2_R_sun.obj
 0001:0003b4a0       ??0?$_Vector_const_iterator@V?$_Vector_val@U?$_Simple_types@U_poly@?$DumbConvexVolume@$0A@@@@std@@@std@@@std@@QAE@PAU_poly@?$DumbConvexVolume@$0A@@@PBU_Container_base0@1@@Z 1003c4a0 f i r2_R_sun.obj
 0001:0003b4b0       ??Y?$_Vector_const_iterator@V?$_Vector_val@U?$_Simple_types@U_poly@?$DumbConvexVolume@$0A@@@@std@@@std@@@std@@QAEAAV01@H@Z 1003c4b0 f i r2_R_sun.obj
 0001:0003b4d0       ??0?$_Vector_iterator@V?$_Vector_val@U?$_Simple_types@Uray@sun@@@std@@@std@@@std@@QAE@PAUray@sun@@PBU_Container_base0@1@@Z 1003c4d0 f i r2_R_sun.obj
 0001:0003b4e0       ??Y?$_Vector_iterator@V?$_Vector_val@U?$_Simple_types@Uray@sun@@@std@@@std@@@std@@QAEAAV01@H@Z 1003c4e0 f i r2_R_sun.obj
 0001:0003b500       ??D?$_Vector_const_iterator@V?$_Vector_val@U?$_Simple_types@Uray@sun@@@std@@@std@@@std@@QBEABUray@sun@@XZ 1003c500 f i r2_R_sun.obj
 0001:0003b510       ??0?$_Vector_iterator@V?$_Vector_val@U?$_Simple_types@U_edge@?$DumbConvexVolume@$0A@@@@std@@@std@@@std@@QAE@PAU_edge@?$DumbConvexVolume@$0A@@@PBU_Container_base0@1@@Z 1003c510 f i r2_R_sun.obj
 0001:0003b520       ??Y?$_Vector_iterator@V?$_Vector_val@U?$_Simple_types@U_edge@?$DumbConvexVolume@$0A@@@@std@@@std@@@std@@QAEAAV01@H@Z 1003c520 f i r2_R_sun.obj
 0001:0003b540       ??D?$_Vector_const_iterator@V?$_Vector_val@U?$_Simple_types@U_edge@?$DumbConvexVolume@$0A@@@@std@@@std@@@std@@QBEABU_edge@?$DumbConvexVolume@$0A@@@XZ 1003c540 f i r2_R_sun.obj
 0001:0003b550       ?allocate@?$xalloc@H@@QBEPAHIPBX@Z 1003c550 f i r2_R_sun.obj
 0001:0003b570       ?max_size@?$allocator_traits@V?$xalloc@H@@@std@@SAIABV?$xalloc@H@@@Z 1003c570 f i r2_R_sun.obj
 0001:0003b580       ?capacity@?$vector@V?$_plane@M@@V?$xalloc@V?$_plane@M@@@@@std@@QBEIXZ 1003c580 f i r2_R_sun.obj
 0001:0003b590       ?allocate@?$_Wrap_alloc@V?$xalloc@V?$_plane@M@@@@@std@@QAEPAV?$_plane@M@@I@Z 1003c590 f i r2_R_sun.obj
 0001:0003b5b0       ?max_size@?$_Wrap_alloc@V?$xalloc@V?$_plane@M@@@@@std@@QBEIXZ 1003c5b0 f i r2_R_sun.obj
 0001:0003b5c0       ?max_size@?$allocator_traits@V?$xalloc@Uray@sun@@@@@std@@SAIABV?$xalloc@Uray@sun@@@@@Z 1003c5c0 f i r2_R_sun.obj
 0001:0003b5d0       ?allocate@?$xalloc@Ucascade@sun@@@@QBEPAUcascade@sun@@IPBX@Z 1003c5d0 f i r2_R_sun.obj
 0001:0003b5f0       ?max_size@?$allocator_traits@V?$xalloc@Ucascade@sun@@@@@std@@SAIABV?$xalloc@Ucascade@sun@@@@@Z 1003c5f0 f i r2_R_sun.obj
 0001:0003b600       ?allocate@?$xalloc@UD3DXPLANE@@@@QBEPAUD3DXPLANE@@IPBX@Z 1003c600 f i r2_R_sun.obj
 0001:0003b620       ?max_size@?$allocator_traits@V?$xalloc@UD3DXPLANE@@@@@std@@SAIABV?$xalloc@UD3DXPLANE@@@@@Z 1003c620 f i r2_R_sun.obj
 0001:0003b630       ?allocate@?$xalloc@U_poly@?$DumbConvexVolume@$0A@@@@@QBEPAU_poly@?$DumbConvexVolume@$0A@@@IPBX@Z 1003c630 f i r2_R_sun.obj
 0001:0003b650       ?max_size@?$allocator_traits@V?$xalloc@U_poly@?$DumbConvexVolume@$0A@@@@@@std@@SAIABV?$xalloc@U_poly@?$DumbConvexVolume@$0A@@@@@@Z 1003c650 f i r2_R_sun.obj
 0001:0003b660       ?capacity@?$vector@U_edge@?$DumbConvexVolume@$0A@@@V?$xalloc@U_edge@?$DumbConvexVolume@$0A@@@@@@std@@QBEIXZ 1003c660 f i r2_R_sun.obj
 0001:0003b680       ?allocate@?$_Wrap_alloc@V?$xalloc@U_edge@?$DumbConvexVolume@$0A@@@@@@std@@QAEPAU_edge@?$DumbConvexVolume@$0A@@@I@Z 1003c680 f i r2_R_sun.obj
 0001:0003b6a0       ?max_size@?$_Wrap_alloc@V?$xalloc@U_edge@?$DumbConvexVolume@$0A@@@@@@std@@QBEIXZ 1003c6a0 f i r2_R_sun.obj
 0001:0003b6b0       ??Y?$_Vector_const_iterator@V?$_Vector_val@U?$_Simple_types@H@std@@@std@@@std@@QAEAAV01@H@Z 1003c6b0 f i r2_R_sun.obj
 0001:0003b6c0       ??0?$_Vector_const_iterator@V?$_Vector_val@U?$_Simple_types@Uray@sun@@@std@@@std@@@std@@QAE@PAUray@sun@@PBU_Container_base0@1@@Z 1003c6c0 f i r2_R_sun.obj
 0001:0003b6d0       ??Y?$_Vector_const_iterator@V?$_Vector_val@U?$_Simple_types@Uray@sun@@@std@@@std@@@std@@QAEAAV01@H@Z 1003c6d0 f i r2_R_sun.obj
 0001:0003b6f0       ??0?$_Vector_const_iterator@V?$_Vector_val@U?$_Simple_types@U_edge@?$DumbConvexVolume@$0A@@@@std@@@std@@@std@@QAE@PAU_edge@?$DumbConvexVolume@$0A@@@PBU_Container_base0@1@@Z 1003c6f0 f i r2_R_sun.obj
 0001:0003b700       ??Y?$_Vector_const_iterator@V?$_Vector_val@U?$_Simple_types@U_edge@?$DumbConvexVolume@$0A@@@@std@@@std@@@std@@QAEAAV01@H@Z 1003c700 f i r2_R_sun.obj
 0001:0003b720       ?allocate@?$xalloc@V?$_plane@M@@@@QBEPAV?$_plane@M@@IPBX@Z 1003c720 f i r2_R_sun.obj
 0001:0003b740       ?max_size@?$allocator_traits@V?$xalloc@V?$_plane@M@@@@@std@@SAIABV?$xalloc@V?$_plane@M@@@@@Z 1003c740 f i r2_R_sun.obj
 0001:0003b750       ?allocate@?$xalloc@U_edge@?$DumbConvexVolume@$0A@@@@@QBEPAU_edge@?$DumbConvexVolume@$0A@@@IPBX@Z 1003c750 f i r2_R_sun.obj
 0001:0003b770       ?max_size@?$allocator_traits@V?$xalloc@U_edge@?$DumbConvexVolume@$0A@@@@@@std@@SAIABV?$xalloc@U_edge@?$DumbConvexVolume@$0A@@@@@@Z 1003c770 f i r2_R_sun.obj
 0001:0003b780       ??$_min@M@@YAMMM@Z         1003c780 f i r2_R_sun.obj
 0001:0003b790       ??$min@M@@YAABMABM0@Z      1003c790 f i r2_R_sun.obj
 0001:0003b7a0       ??$max@M@@YAABMABM0@Z      1003c7a0 f i r2_R_sun.obj
 0001:0003b7b0       ??$addressof@$$CBH@std@@YAPBHABH@Z 1003c7b0 f i r2_R_sun.obj
 0001:0003b7c0       ??$construct@HAAH@?$_Wrap_alloc@V?$xalloc@H@@@std@@QAEXPAHAAH@Z 1003c7c0 f i r2_R_sun.obj
 0001:0003b7e0       ??$construct@HABH@?$_Wrap_alloc@V?$xalloc@H@@@std@@QAEXPAHABH@Z 1003c7e0 f i r2_R_sun.obj
 0001:0003b800       ??$addressof@$$CBU?$_vector3@M@@@std@@YAPBU?$_vector3@M@@ABU1@@Z 1003c800 f i r2_R_sun.obj
 0001:0003b810       ??$construct@U?$_vector3@M@@AAU1@@?$_Wrap_alloc@V?$xalloc@U?$_vector3@M@@@@@std@@QAEXPAU?$_vector3@M@@AAU2@@Z 1003c810 f i r2_R_sun.obj
 0001:0003b830       ??$construct@U?$_vector3@M@@ABU1@@?$_Wrap_alloc@V?$xalloc@U?$_vector3@M@@@@@std@@QAEXPAU?$_vector3@M@@ABU2@@Z 1003c830 f i r2_R_sun.obj
 0001:0003b850       ??$addressof@Uray@sun@@@std@@YAPAUray@sun@@AAU12@@Z 1003c850 f i r2_R_sun.obj
 0001:0003b860       ??$forward@Uray@sun@@@std@@YA$$QAUray@sun@@AAU12@@Z 1003c860 f i r2_R_sun.obj
 0001:0003b870       ??$construct@Uray@sun@@U12@@?$_Wrap_alloc@V?$xalloc@Uray@sun@@@@@std@@QAEXPAUray@sun@@$$QAU23@@Z 1003c870 f i r2_R_sun.obj
 0001:0003b8a0       ??$?9V?$xalloc@Uray@sun@@@@V0@@std@@YA_NABU?$_Wrap_alloc@V?$xalloc@Uray@sun@@@@@0@0@Z 1003c8a0 f i r2_R_sun.obj
 0001:0003b8b0       ??$_Copy_impl@PAUray@sun@@PAU12@@std@@YAPAUray@sun@@PAU12@00@Z 1003c8b0 f i r2_R_sun.obj
 0001:0003b8e0       ??$_Ucopy@PAUray@sun@@@?$vector@Uray@sun@@V?$xalloc@Uray@sun@@@@@std@@IAEPAUray@sun@@PAU23@00@Z 1003c8e0 f i r2_R_sun.obj
 0001:0003b900       ??$_Uninitialized_default_fill_n@PAUcascade@sun@@IU?$_Wrap_alloc@V?$xalloc@Ucascade@sun@@@@@std@@@std@@YAXPAUcascade@sun@@IAAU?$_Wrap_alloc@V?$xalloc@Ucascade@sun@@@@@0@@Z 1003c900 f i r2_R_sun.obj
 0001:0003b910       ??$addressof@UD3DXPLANE@@@std@@YAPAUD3DXPLANE@@AAU1@@Z 1003c910 f i r2_R_sun.obj
 0001:0003b920       ??$forward@UD3DXPLANE@@@std@@YA$$QAUD3DXPLANE@@AAU1@@Z 1003c920 f i r2_R_sun.obj
 0001:0003b930       ??$construct@UD3DXPLANE@@U1@@?$_Wrap_alloc@V?$xalloc@UD3DXPLANE@@@@@std@@QAEXPAUD3DXPLANE@@$$QAU2@@Z 1003c930 f i r2_R_sun.obj
 0001:0003b950       ??$reverse@V?$_Vector_iterator@V?$_Vector_val@U?$_Simple_types@H@std@@@std@@@std@@@std@@YAXV?$_Vector_iterator@V?$_Vector_val@U?$_Simple_types@H@std@@@std@@@0@0@Z 1003c950 f i r2_R_sun.obj
 0001:0003b980       ??$addressof@U_poly@?$DumbConvexVolume@$0A@@@@std@@YAPAU_poly@?$DumbConvexVolume@$0A@@@AAU12@@Z 1003c980 f i r2_R_sun.obj
 0001:0003b990       ??$forward@U_poly@?$DumbConvexVolume@$0A@@@@std@@YA$$QAU_poly@?$DumbConvexVolume@$0A@@@AAU12@@Z 1003c990 f i r2_R_sun.obj
 0001:0003b9a0       ??$construct@U_poly@?$DumbConvexVolume@$0A@@@U12@@?$_Wrap_alloc@V?$xalloc@U_poly@?$DumbConvexVolume@$0A@@@@@@std@@QAEXPAU_poly@?$DumbConvexVolume@$0A@@@$$QAU23@@Z 1003c9a0 f i r2_R_sun.obj
 0001:0003b9e0       ??$addressof@H@std@@YAPAHAAH@Z 1003c9e0 f i r2_R_sun.obj
 0001:0003b9f0       ??$forward@H@std@@YA$$QAHAAH@Z 1003c9f0 f i r2_R_sun.obj
 0001:0003ba00       ??$construct@HH@?$_Wrap_alloc@V?$xalloc@H@@@std@@QAEXPAH$$QAH@Z 1003ca00 f i r2_R_sun.obj
 0001:0003ba20       ??$addressof@$$CBV?$_plane@M@@@std@@YAPBV?$_plane@M@@ABV1@@Z 1003ca20 f i r2_R_sun.obj
 0001:0003ba30       ??$construct@V?$_plane@M@@AAV1@@?$_Wrap_alloc@V?$xalloc@V?$_plane@M@@@@@std@@QAEXPAV?$_plane@M@@AAV2@@Z 1003ca30 f i r2_R_sun.obj
 0001:0003ba50       ??$construct@V?$_plane@M@@ABV1@@?$_Wrap_alloc@V?$xalloc@V?$_plane@M@@@@@std@@QAEXPAV?$_plane@M@@ABV2@@Z 1003ca50 f i r2_R_sun.obj
 0001:0003ba70       ??$_Umove@PAU?$_vector3@M@@@?$vector@U?$_vector3@M@@V?$xalloc@U?$_vector3@M@@@@@std@@IAEPAU?$_vector3@M@@PAU2@00@Z 1003ca70 f i r2_R_sun.obj
 0001:0003ba90       ??$_Umove@PAV?$_box3@M@@@?$vector@V?$_box3@M@@V?$doug_lea_alloc@V?$_box3@M@@@@@std@@IAEPAV?$_box3@M@@PAV2@00@Z 1003ca90 f i r2_R_sun.obj
 0001:0003bab0       ??$_Move@PAU_poly@?$DumbConvexVolume@$0A@@@PAU12@@std@@YAPAU_poly@?$DumbConvexVolume@$0A@@@PAU12@00@Z 1003cab0 f i r2_R_sun.obj
 0001:0003bad0       ??$addressof@$$CBU_edge@?$DumbConvexVolume@$0A@@@@std@@YAPBU_edge@?$DumbConvexVolume@$0A@@@ABU12@@Z 1003cad0 f i r2_R_sun.obj
 0001:0003bae0       ??$construct@U_edge@?$DumbConvexVolume@$0A@@@AAU12@@?$_Wrap_alloc@V?$xalloc@U_edge@?$DumbConvexVolume@$0A@@@@@@std@@QAEXPAU_edge@?$DumbConvexVolume@$0A@@@AAU23@@Z 1003cae0 f i r2_R_sun.obj
 0001:0003bb00       ??$construct@U_edge@?$DumbConvexVolume@$0A@@@ABU12@@?$_Wrap_alloc@V?$xalloc@U_edge@?$DumbConvexVolume@$0A@@@@@@std@@QAEXPAU_edge@?$DumbConvexVolume@$0A@@@ABU23@@Z 1003cb00 f i r2_R_sun.obj
 0001:0003bb20       ??$_Destroy_range@U?$_Wrap_alloc@V?$xalloc@H@@@std@@@std@@YAXPAH0AAU?$_Wrap_alloc@V?$xalloc@H@@@0@@Z 1003cb20 f i r2_R_sun.obj
 0001:0003bb30       ??$_Umove@PAH@?$vector@HV?$xalloc@H@@@std@@IAEPAHPAH00@Z 1003cb30 f i r2_R_sun.obj
 0001:0003bb60       ??$_Destroy_range@U?$_Wrap_alloc@V?$xalloc@V?$_plane@M@@@@@std@@@std@@YAXPAV?$_plane@M@@0AAU?$_Wrap_alloc@V?$xalloc@V?$_plane@M@@@@@0@@Z 1003cb60 f i r2_R_sun.obj
 0001:0003bb70       ??$_Umove@PAUray@sun@@@?$vector@Uray@sun@@V?$xalloc@Uray@sun@@@@@std@@IAEPAUray@sun@@PAU23@00@Z 1003cb70 f i r2_R_sun.obj
 0001:0003bb90       ??$_Umove@PAUcascade@sun@@@?$vector@Ucascade@sun@@V?$xalloc@Ucascade@sun@@@@@std@@IAEPAUcascade@sun@@PAU23@00@Z 1003cb90 f i r2_R_sun.obj
 0001:0003bbb0       ??$_Destroy_range@U?$_Wrap_alloc@V?$xalloc@UD3DXPLANE@@@@@std@@@std@@YAXPAUD3DXPLANE@@0AAU?$_Wrap_alloc@V?$xalloc@UD3DXPLANE@@@@@0@@Z 1003cbb0 f i r2_R_sun.obj
 0001:0003bbc0       ??$_Umove@PAUD3DXPLANE@@@?$vector@UD3DXPLANE@@V?$xalloc@UD3DXPLANE@@@@@std@@IAEPAUD3DXPLANE@@PAU2@00@Z 1003cbc0 f i r2_R_sun.obj
 0001:0003bbe0       ??$_Destroy_range@U?$_Wrap_alloc@V?$xalloc@U_poly@?$DumbConvexVolume@$0A@@@@@@std@@@std@@YAXPAU_poly@?$DumbConvexVolume@$0A@@@0AAU?$_Wrap_alloc@V?$xalloc@U_poly@?$DumbConvexVolume@$0A@@@@@@0@@Z 1003cbe0 f i r2_R_sun.obj
